Archive member included to satisfy reference by file (symbol)

c:/vsarm/armcc/102021~1.10/bin/../lib/gcc/arm-none-eabi/10.3.1/thumb/v6-m/nofp\libgcc.a(_dvmd_tls.o)
                              CMakeFiles/gif_screen_driver.dir/C_/VSARM/sdk/pico/pico-sdk/src/rp2_common/pico_divider/divider.S.obj (__aeabi_idiv0)
c:/vsarm/armcc/102021~1.10/bin/../lib/gcc/arm-none-eabi/10.3.1/../../../../arm-none-eabi/lib/thumb/v6-m/nofp\libg.a(lib_a-calloc.o)
                              CMakeFiles/gif_screen_driver.dir/C_/VSARM/sdk/pico/pico-sdk/src/rp2_common/pico_malloc/pico_malloc.c.obj (calloc)
c:/vsarm/armcc/102021~1.10/bin/../lib/gcc/arm-none-eabi/10.3.1/../../../../arm-none-eabi/lib/thumb/v6-m/nofp\libg.a(lib_a-callocr.o)
                              c:/vsarm/armcc/102021~1.10/bin/../lib/gcc/arm-none-eabi/10.3.1/../../../../arm-none-eabi/lib/thumb/v6-m/nofp\libg.a(lib_a-calloc.o) (_calloc_r)
c:/vsarm/armcc/102021~1.10/bin/../lib/gcc/arm-none-eabi/10.3.1/../../../../arm-none-eabi/lib/thumb/v6-m/nofp\libg.a(lib_a-errno.o)
                              CMakeFiles/gif_screen_driver.dir/M_/house-projects/Christmas/display-screen-ws2812b/FatFs_SPI/src/ff_stdio.c.obj (__errno)
c:/vsarm/armcc/102021~1.10/bin/../lib/gcc/arm-none-eabi/10.3.1/../../../../arm-none-eabi/lib/thumb/v6-m/nofp\libg.a(lib_a-fflush.o)
                              CMakeFiles/gif_screen_driver.dir/M_/house-projects/Christmas/display-screen-ws2812b/FatFs_SPI/sd_driver/demo_logging.c.obj (fflush)
c:/vsarm/armcc/102021~1.10/bin/../lib/gcc/arm-none-eabi/10.3.1/../../../../arm-none-eabi/lib/thumb/v6-m/nofp\libg.a(lib_a-findfp.o)
                              c:/vsarm/armcc/102021~1.10/bin/../lib/gcc/arm-none-eabi/10.3.1/../../../../arm-none-eabi/lib/thumb/v6-m/nofp\libg.a(lib_a-fflush.o) (__sinit)
c:/vsarm/armcc/102021~1.10/bin/../lib/gcc/arm-none-eabi/10.3.1/../../../../arm-none-eabi/lib/thumb/v6-m/nofp\libg.a(lib_a-freer.o)
                              c:/vsarm/armcc/102021~1.10/bin/../lib/gcc/arm-none-eabi/10.3.1/../../../../arm-none-eabi/lib/thumb/v6-m/nofp\libg.a(lib_a-fflush.o) (_free_r)
c:/vsarm/armcc/102021~1.10/bin/../lib/gcc/arm-none-eabi/10.3.1/../../../../arm-none-eabi/lib/thumb/v6-m/nofp\libg.a(lib_a-fwalk.o)
                              c:/vsarm/armcc/102021~1.10/bin/../lib/gcc/arm-none-eabi/10.3.1/../../../../arm-none-eabi/lib/thumb/v6-m/nofp\libg.a(lib_a-findfp.o) (_fwalk)
c:/vsarm/armcc/102021~1.10/bin/../lib/gcc/arm-none-eabi/10.3.1/../../../../arm-none-eabi/lib/thumb/v6-m/nofp\libg.a(lib_a-impure.o)
                              c:/vsarm/armcc/102021~1.10/bin/../lib/gcc/arm-none-eabi/10.3.1/../../../../arm-none-eabi/lib/thumb/v6-m/nofp\libg.a(lib_a-fflush.o) (_global_impure_ptr)
c:/vsarm/armcc/102021~1.10/bin/../lib/gcc/arm-none-eabi/10.3.1/../../../../arm-none-eabi/lib/thumb/v6-m/nofp\libg.a(lib_a-init.o)
                              c:/vsarm/armcc/102021~1.10/bin/../lib/gcc/arm-none-eabi/10.3.1/../../../../arm-none-eabi/lib/thumb/v6-m/nofp/crt0.o (__libc_init_array)
c:/vsarm/armcc/102021~1.10/bin/../lib/gcc/arm-none-eabi/10.3.1/../../../../arm-none-eabi/lib/thumb/v6-m/nofp\libg.a(lib_a-lock.o)
                              c:/vsarm/armcc/102021~1.10/bin/../lib/gcc/arm-none-eabi/10.3.1/../../../../arm-none-eabi/lib/thumb/v6-m/nofp\libg.a(lib_a-findfp.o) (__retarget_lock_init_recursive)
c:/vsarm/armcc/102021~1.10/bin/../lib/gcc/arm-none-eabi/10.3.1/../../../../arm-none-eabi/lib/thumb/v6-m/nofp\libg.a(lib_a-malloc.o)
                              CMakeFiles/gif_screen_driver.dir/C_/VSARM/sdk/pico/pico-sdk/src/rp2_common/pico_malloc/pico_malloc.c.obj (malloc)
c:/vsarm/armcc/102021~1.10/bin/../lib/gcc/arm-none-eabi/10.3.1/../../../../arm-none-eabi/lib/thumb/v6-m/nofp\libg.a(lib_a-mallocr.o)
                              c:/vsarm/armcc/102021~1.10/bin/../lib/gcc/arm-none-eabi/10.3.1/../../../../arm-none-eabi/lib/thumb/v6-m/nofp\libg.a(lib_a-callocr.o) (_malloc_r)
c:/vsarm/armcc/102021~1.10/bin/../lib/gcc/arm-none-eabi/10.3.1/../../../../arm-none-eabi/lib/thumb/v6-m/nofp\libg.a(lib_a-memcmp.o)
                              CMakeFiles/gif_screen_driver.dir/gifdec.c.obj (memcmp)
c:/vsarm/armcc/102021~1.10/bin/../lib/gcc/arm-none-eabi/10.3.1/../../../../arm-none-eabi/lib/thumb/v6-m/nofp\libg.a(lib_a-mktime.o)
                              CMakeFiles/gif_screen_driver.dir/M_/house-projects/Christmas/display-screen-ws2812b/FatFs_SPI/src/rtc.c.obj (mktime)
c:/vsarm/armcc/102021~1.10/bin/../lib/gcc/arm-none-eabi/10.3.1/../../../../arm-none-eabi/lib/thumb/v6-m/nofp\libg.a(lib_a-mlock.o)
                              c:/vsarm/armcc/102021~1.10/bin/../lib/gcc/arm-none-eabi/10.3.1/../../../../arm-none-eabi/lib/thumb/v6-m/nofp\libg.a(lib_a-freer.o) (__malloc_lock)
c:/vsarm/armcc/102021~1.10/bin/../lib/gcc/arm-none-eabi/10.3.1/../../../../arm-none-eabi/lib/thumb/v6-m/nofp\libg.a(lib_a-realloc.o)
                              CMakeFiles/gif_screen_driver.dir/C_/VSARM/sdk/pico/pico-sdk/src/rp2_common/pico_malloc/pico_malloc.c.obj (realloc)
c:/vsarm/armcc/102021~1.10/bin/../lib/gcc/arm-none-eabi/10.3.1/../../../../arm-none-eabi/lib/thumb/v6-m/nofp\libg.a(lib_a-reallocr.o)
                              c:/vsarm/armcc/102021~1.10/bin/../lib/gcc/arm-none-eabi/10.3.1/../../../../arm-none-eabi/lib/thumb/v6-m/nofp\libg.a(lib_a-realloc.o) (_realloc_r)
c:/vsarm/armcc/102021~1.10/bin/../lib/gcc/arm-none-eabi/10.3.1/../../../../arm-none-eabi/lib/thumb/v6-m/nofp\libg.a(lib_a-sbrkr.o)
                              c:/vsarm/armcc/102021~1.10/bin/../lib/gcc/arm-none-eabi/10.3.1/../../../../arm-none-eabi/lib/thumb/v6-m/nofp\libg.a(lib_a-freer.o) (_sbrk_r)
c:/vsarm/armcc/102021~1.10/bin/../lib/gcc/arm-none-eabi/10.3.1/../../../../arm-none-eabi/lib/thumb/v6-m/nofp\libg.a(lib_a-stdio.o)
                              c:/vsarm/armcc/102021~1.10/bin/../lib/gcc/arm-none-eabi/10.3.1/../../../../arm-none-eabi/lib/thumb/v6-m/nofp\libg.a(lib_a-findfp.o) (__sread)
c:/vsarm/armcc/102021~1.10/bin/../lib/gcc/arm-none-eabi/10.3.1/../../../../arm-none-eabi/lib/thumb/v6-m/nofp\libg.a(lib_a-strchr.o)
                              CMakeFiles/gif_screen_driver.dir/M_/house-projects/Christmas/display-screen-ws2812b/FatFs_SPI/ff15/source/ff.c.obj (strchr)
c:/vsarm/armcc/102021~1.10/bin/../lib/gcc/arm-none-eabi/10.3.1/../../../../arm-none-eabi/lib/thumb/v6-m/nofp\libg.a(lib_a-strcmp.o)
                              CMakeFiles/gif_screen_driver.dir/M_/house-projects/Christmas/display-screen-ws2812b/FatFs_SPI/src/ff_stdio.c.obj (strcmp)
c:/vsarm/armcc/102021~1.10/bin/../lib/gcc/arm-none-eabi/10.3.1/../../../../arm-none-eabi/lib/thumb/v6-m/nofp\libg.a(lib_a-strlen-stub.o)
                              CMakeFiles/gif_screen_driver.dir/C_/VSARM/sdk/pico/pico-sdk/src/rp2_common/pico_stdio/stdio.c.obj (strlen)
c:/vsarm/armcc/102021~1.10/bin/../lib/gcc/arm-none-eabi/10.3.1/../../../../arm-none-eabi/lib/thumb/v6-m/nofp\libg.a(lib_a-strncmp.o)
                              CMakeFiles/gif_screen_driver.dir/gifdec.c.obj (strncmp)
c:/vsarm/armcc/102021~1.10/bin/../lib/gcc/arm-none-eabi/10.3.1/../../../../arm-none-eabi/lib/thumb/v6-m/nofp\libg.a(lib_a-strncpy.o)
                              CMakeFiles/gif_screen_driver.dir/M_/house-projects/Christmas/display-screen-ws2812b/FatFs_SPI/src/ff_stdio.c.obj (strncpy)
c:/vsarm/armcc/102021~1.10/bin/../lib/gcc/arm-none-eabi/10.3.1/../../../../arm-none-eabi/lib/thumb/v6-m/nofp\libg.a(lib_a-tzcalc_limits.o)
                              c:/vsarm/armcc/102021~1.10/bin/../lib/gcc/arm-none-eabi/10.3.1/../../../../arm-none-eabi/lib/thumb/v6-m/nofp\libg.a(lib_a-mktime.o) (__tzcalc_limits)
c:/vsarm/armcc/102021~1.10/bin/../lib/gcc/arm-none-eabi/10.3.1/../../../../arm-none-eabi/lib/thumb/v6-m/nofp\libg.a(lib_a-tzlock.o)
                              c:/vsarm/armcc/102021~1.10/bin/../lib/gcc/arm-none-eabi/10.3.1/../../../../arm-none-eabi/lib/thumb/v6-m/nofp\libg.a(lib_a-mktime.o) (__tz_lock)
c:/vsarm/armcc/102021~1.10/bin/../lib/gcc/arm-none-eabi/10.3.1/../../../../arm-none-eabi/lib/thumb/v6-m/nofp\libg.a(lib_a-tzset.o)
                              c:/vsarm/armcc/102021~1.10/bin/../lib/gcc/arm-none-eabi/10.3.1/../../../../arm-none-eabi/lib/thumb/v6-m/nofp\libg.a(lib_a-mktime.o) (_tzset_unlocked)
c:/vsarm/armcc/102021~1.10/bin/../lib/gcc/arm-none-eabi/10.3.1/../../../../arm-none-eabi/lib/thumb/v6-m/nofp\libg.a(lib_a-tzset_r.o)
                              c:/vsarm/armcc/102021~1.10/bin/../lib/gcc/arm-none-eabi/10.3.1/../../../../arm-none-eabi/lib/thumb/v6-m/nofp\libg.a(lib_a-tzset.o) (_tzset_unlocked_r)
c:/vsarm/armcc/102021~1.10/bin/../lib/gcc/arm-none-eabi/10.3.1/../../../../arm-none-eabi/lib/thumb/v6-m/nofp\libg.a(lib_a-tzvars.o)
                              c:/vsarm/armcc/102021~1.10/bin/../lib/gcc/arm-none-eabi/10.3.1/../../../../arm-none-eabi/lib/thumb/v6-m/nofp\libg.a(lib_a-tzset_r.o) (_timezone)
c:/vsarm/armcc/102021~1.10/bin/../lib/gcc/arm-none-eabi/10.3.1/../../../../arm-none-eabi/lib/thumb/v6-m/nofp\libg.a(lib_a-writer.o)
                              c:/vsarm/armcc/102021~1.10/bin/../lib/gcc/arm-none-eabi/10.3.1/../../../../arm-none-eabi/lib/thumb/v6-m/nofp\libg.a(lib_a-stdio.o) (_write_r)
c:/vsarm/armcc/102021~1.10/bin/../lib/gcc/arm-none-eabi/10.3.1/../../../../arm-none-eabi/lib/thumb/v6-m/nofp\libg.a(lib_a-closer.o)
                              c:/vsarm/armcc/102021~1.10/bin/../lib/gcc/arm-none-eabi/10.3.1/../../../../arm-none-eabi/lib/thumb/v6-m/nofp\libg.a(lib_a-stdio.o) (_close_r)
c:/vsarm/armcc/102021~1.10/bin/../lib/gcc/arm-none-eabi/10.3.1/../../../../arm-none-eabi/lib/thumb/v6-m/nofp\libg.a(lib_a-div.o)
                              c:/vsarm/armcc/102021~1.10/bin/../lib/gcc/arm-none-eabi/10.3.1/../../../../arm-none-eabi/lib/thumb/v6-m/nofp\libg.a(lib_a-mktime.o) (div)
c:/vsarm/armcc/102021~1.10/bin/../lib/gcc/arm-none-eabi/10.3.1/../../../../arm-none-eabi/lib/thumb/v6-m/nofp\libg.a(lib_a-fclose.o)
                              c:/vsarm/armcc/102021~1.10/bin/../lib/gcc/arm-none-eabi/10.3.1/../../../../arm-none-eabi/lib/thumb/v6-m/nofp\libg.a(lib_a-findfp.o) (_fclose_r)
c:/vsarm/armcc/102021~1.10/bin/../lib/gcc/arm-none-eabi/10.3.1/../../../../arm-none-eabi/lib/thumb/v6-m/nofp\libg.a(lib_a-getenv_r.o)
                              c:/vsarm/armcc/102021~1.10/bin/../lib/gcc/arm-none-eabi/10.3.1/../../../../arm-none-eabi/lib/thumb/v6-m/nofp\libg.a(lib_a-tzset_r.o) (_getenv_r)
c:/vsarm/armcc/102021~1.10/bin/../lib/gcc/arm-none-eabi/10.3.1/../../../../arm-none-eabi/lib/thumb/v6-m/nofp\libg.a(lib_a-gettzinfo.o)
                              c:/vsarm/armcc/102021~1.10/bin/../lib/gcc/arm-none-eabi/10.3.1/../../../../arm-none-eabi/lib/thumb/v6-m/nofp\libg.a(lib_a-mktime.o) (__gettzinfo)
c:/vsarm/armcc/102021~1.10/bin/../lib/gcc/arm-none-eabi/10.3.1/../../../../arm-none-eabi/lib/thumb/v6-m/nofp\libg.a(lib_a-lseekr.o)
                              c:/vsarm/armcc/102021~1.10/bin/../lib/gcc/arm-none-eabi/10.3.1/../../../../arm-none-eabi/lib/thumb/v6-m/nofp\libg.a(lib_a-stdio.o) (_lseek_r)
c:/vsarm/armcc/102021~1.10/bin/../lib/gcc/arm-none-eabi/10.3.1/../../../../arm-none-eabi/lib/thumb/v6-m/nofp\libg.a(lib_a-memmove.o)
                              c:/vsarm/armcc/102021~1.10/bin/../lib/gcc/arm-none-eabi/10.3.1/../../../../arm-none-eabi/lib/thumb/v6-m/nofp\libg.a(lib_a-reallocr.o) (memmove)
c:/vsarm/armcc/102021~1.10/bin/../lib/gcc/arm-none-eabi/10.3.1/../../../../arm-none-eabi/lib/thumb/v6-m/nofp\libg.a(lib_a-month_lengths.o)
                              c:/vsarm/armcc/102021~1.10/bin/../lib/gcc/arm-none-eabi/10.3.1/../../../../arm-none-eabi/lib/thumb/v6-m/nofp\libg.a(lib_a-tzcalc_limits.o) (__month_lengths)
c:/vsarm/armcc/102021~1.10/bin/../lib/gcc/arm-none-eabi/10.3.1/../../../../arm-none-eabi/lib/thumb/v6-m/nofp\libg.a(lib_a-readr.o)
                              c:/vsarm/armcc/102021~1.10/bin/../lib/gcc/arm-none-eabi/10.3.1/../../../../arm-none-eabi/lib/thumb/v6-m/nofp\libg.a(lib_a-stdio.o) (_read_r)
c:/vsarm/armcc/102021~1.10/bin/../lib/gcc/arm-none-eabi/10.3.1/../../../../arm-none-eabi/lib/thumb/v6-m/nofp\libg.a(lib_a-reent.o)
                              c:/vsarm/armcc/102021~1.10/bin/../lib/gcc/arm-none-eabi/10.3.1/../../../../arm-none-eabi/lib/thumb/v6-m/nofp\libg.a(lib_a-sbrkr.o) (errno)
c:/vsarm/armcc/102021~1.10/bin/../lib/gcc/arm-none-eabi/10.3.1/../../../../arm-none-eabi/lib/thumb/v6-m/nofp\libg.a(lib_a-siscanf.o)
                              c:/vsarm/armcc/102021~1.10/bin/../lib/gcc/arm-none-eabi/10.3.1/../../../../arm-none-eabi/lib/thumb/v6-m/nofp\libg.a(lib_a-tzset_r.o) (siscanf)
c:/vsarm/armcc/102021~1.10/bin/../lib/gcc/arm-none-eabi/10.3.1/../../../../arm-none-eabi/lib/thumb/v6-m/nofp\libg.a(lib_a-strcpy.o)
                              c:/vsarm/armcc/102021~1.10/bin/../lib/gcc/arm-none-eabi/10.3.1/../../../../arm-none-eabi/lib/thumb/v6-m/nofp\libg.a(lib_a-tzset_r.o) (strcpy)
c:/vsarm/armcc/102021~1.10/bin/../lib/gcc/arm-none-eabi/10.3.1/../../../../arm-none-eabi/lib/thumb/v6-m/nofp\libg.a(lib_a-strtoul.o)
                              c:/vsarm/armcc/102021~1.10/bin/../lib/gcc/arm-none-eabi/10.3.1/../../../../arm-none-eabi/lib/thumb/v6-m/nofp\libg.a(lib_a-tzset_r.o) (strtoul)
c:/vsarm/armcc/102021~1.10/bin/../lib/gcc/arm-none-eabi/10.3.1/../../../../arm-none-eabi/lib/thumb/v6-m/nofp\libg.a(lib_a-svfiscanf.o)
                              c:/vsarm/armcc/102021~1.10/bin/../lib/gcc/arm-none-eabi/10.3.1/../../../../arm-none-eabi/lib/thumb/v6-m/nofp\libg.a(lib_a-siscanf.o) (__ssvfiscanf_r)
c:/vsarm/armcc/102021~1.10/bin/../lib/gcc/arm-none-eabi/10.3.1/../../../../arm-none-eabi/lib/thumb/v6-m/nofp\libg.a(lib_a-ungetc.o)
                              c:/vsarm/armcc/102021~1.10/bin/../lib/gcc/arm-none-eabi/10.3.1/../../../../arm-none-eabi/lib/thumb/v6-m/nofp\libg.a(lib_a-svfiscanf.o) (__submore)
c:/vsarm/armcc/102021~1.10/bin/../lib/gcc/arm-none-eabi/10.3.1/../../../../arm-none-eabi/lib/thumb/v6-m/nofp\libg.a(lib_a-ctype_.o)
                              c:/vsarm/armcc/102021~1.10/bin/../lib/gcc/arm-none-eabi/10.3.1/../../../../arm-none-eabi/lib/thumb/v6-m/nofp\libg.a(lib_a-strtoul.o) (_ctype_)
c:/vsarm/armcc/102021~1.10/bin/../lib/gcc/arm-none-eabi/10.3.1/../../../../arm-none-eabi/lib/thumb/v6-m/nofp\libg.a(lib_a-environ.o)
                              c:/vsarm/armcc/102021~1.10/bin/../lib/gcc/arm-none-eabi/10.3.1/../../../../arm-none-eabi/lib/thumb/v6-m/nofp\libg.a(lib_a-getenv_r.o) (environ)
c:/vsarm/armcc/102021~1.10/bin/../lib/gcc/arm-none-eabi/10.3.1/../../../../arm-none-eabi/lib/thumb/v6-m/nofp\libg.a(lib_a-envlock.o)
                              c:/vsarm/armcc/102021~1.10/bin/../lib/gcc/arm-none-eabi/10.3.1/../../../../arm-none-eabi/lib/thumb/v6-m/nofp\libg.a(lib_a-getenv_r.o) (__env_lock)
c:/vsarm/armcc/102021~1.10/bin/../lib/gcc/arm-none-eabi/10.3.1/../../../../arm-none-eabi/lib/thumb/v6-m/nofp\libg.a(lib_a-iswspace.o)
                              c:/vsarm/armcc/102021~1.10/bin/../lib/gcc/arm-none-eabi/10.3.1/../../../../arm-none-eabi/lib/thumb/v6-m/nofp\libg.a(lib_a-svfiscanf.o) (iswspace)
c:/vsarm/armcc/102021~1.10/bin/../lib/gcc/arm-none-eabi/10.3.1/../../../../arm-none-eabi/lib/thumb/v6-m/nofp\libg.a(lib_a-iswspace_l.o)
                              c:/vsarm/armcc/102021~1.10/bin/../lib/gcc/arm-none-eabi/10.3.1/../../../../arm-none-eabi/lib/thumb/v6-m/nofp\libg.a(lib_a-iswspace.o) (iswspace_l)
c:/vsarm/armcc/102021~1.10/bin/../lib/gcc/arm-none-eabi/10.3.1/../../../../arm-none-eabi/lib/thumb/v6-m/nofp\libg.a(lib_a-locale.o)
                              c:/vsarm/armcc/102021~1.10/bin/../lib/gcc/arm-none-eabi/10.3.1/../../../../arm-none-eabi/lib/thumb/v6-m/nofp\libg.a(lib_a-svfiscanf.o) (__locale_mb_cur_max)
c:/vsarm/armcc/102021~1.10/bin/../lib/gcc/arm-none-eabi/10.3.1/../../../../arm-none-eabi/lib/thumb/v6-m/nofp\libg.a(lib_a-mbrtowc.o)
                              c:/vsarm/armcc/102021~1.10/bin/../lib/gcc/arm-none-eabi/10.3.1/../../../../arm-none-eabi/lib/thumb/v6-m/nofp\libg.a(lib_a-svfiscanf.o) (_mbrtowc_r)
c:/vsarm/armcc/102021~1.10/bin/../lib/gcc/arm-none-eabi/10.3.1/../../../../arm-none-eabi/lib/thumb/v6-m/nofp\libg.a(lib_a-mbtowc_r.o)
                              c:/vsarm/armcc/102021~1.10/bin/../lib/gcc/arm-none-eabi/10.3.1/../../../../arm-none-eabi/lib/thumb/v6-m/nofp\libg.a(lib_a-locale.o) (__ascii_mbtowc)
c:/vsarm/armcc/102021~1.10/bin/../lib/gcc/arm-none-eabi/10.3.1/../../../../arm-none-eabi/lib/thumb/v6-m/nofp\libg.a(lib_a-sccl.o)
                              c:/vsarm/armcc/102021~1.10/bin/../lib/gcc/arm-none-eabi/10.3.1/../../../../arm-none-eabi/lib/thumb/v6-m/nofp\libg.a(lib_a-svfiscanf.o) (__sccl)
c:/vsarm/armcc/102021~1.10/bin/../lib/gcc/arm-none-eabi/10.3.1/../../../../arm-none-eabi/lib/thumb/v6-m/nofp\libg.a(lib_a-strtol.o)
                              c:/vsarm/armcc/102021~1.10/bin/../lib/gcc/arm-none-eabi/10.3.1/../../../../arm-none-eabi/lib/thumb/v6-m/nofp\libg.a(lib_a-svfiscanf.o) (_strtol_r)
c:/vsarm/armcc/102021~1.10/bin/../lib/gcc/arm-none-eabi/10.3.1/../../../../arm-none-eabi/lib/thumb/v6-m/nofp\libg.a(lib_a-strtoll.o)
                              c:/vsarm/armcc/102021~1.10/bin/../lib/gcc/arm-none-eabi/10.3.1/../../../../arm-none-eabi/lib/thumb/v6-m/nofp\libg.a(lib_a-svfiscanf.o) (_strtoll_r)
c:/vsarm/armcc/102021~1.10/bin/../lib/gcc/arm-none-eabi/10.3.1/../../../../arm-none-eabi/lib/thumb/v6-m/nofp\libg.a(lib_a-strtoull.o)
                              c:/vsarm/armcc/102021~1.10/bin/../lib/gcc/arm-none-eabi/10.3.1/../../../../arm-none-eabi/lib/thumb/v6-m/nofp\libg.a(lib_a-svfiscanf.o) (_strtoull_r)
c:/vsarm/armcc/102021~1.10/bin/../lib/gcc/arm-none-eabi/10.3.1/../../../../arm-none-eabi/lib/thumb/v6-m/nofp\libg.a(lib_a-wctomb_r.o)
                              c:/vsarm/armcc/102021~1.10/bin/../lib/gcc/arm-none-eabi/10.3.1/../../../../arm-none-eabi/lib/thumb/v6-m/nofp\libg.a(lib_a-locale.o) (__ascii_wctomb)

Discarded input sections

 .text          0x00000000        0x0 c:/vsarm/armcc/102021~1.10/bin/../lib/gcc/arm-none-eabi/10.3.1/thumb/v6-m/nofp/crti.o
 .data          0x00000000        0x0 c:/vsarm/armcc/102021~1.10/bin/../lib/gcc/arm-none-eabi/10.3.1/thumb/v6-m/nofp/crti.o
 .bss           0x00000000        0x0 c:/vsarm/armcc/102021~1.10/bin/../lib/gcc/arm-none-eabi/10.3.1/thumb/v6-m/nofp/crti.o
 .data          0x00000000        0x4 c:/vsarm/armcc/102021~1.10/bin/../lib/gcc/arm-none-eabi/10.3.1/thumb/v6-m/nofp/crtbegin.o
 .rodata        0x00000000       0x24 c:/vsarm/armcc/102021~1.10/bin/../lib/gcc/arm-none-eabi/10.3.1/thumb/v6-m/nofp/crtbegin.o
 .fini_array    0x00000000        0x4 c:/vsarm/armcc/102021~1.10/bin/../lib/gcc/arm-none-eabi/10.3.1/thumb/v6-m/nofp/crtbegin.o
 .text          0x00000000       0x80 c:/vsarm/armcc/102021~1.10/bin/../lib/gcc/arm-none-eabi/10.3.1/../../../../arm-none-eabi/lib/thumb/v6-m/nofp/crt0.o
 .data          0x00000000        0x0 c:/vsarm/armcc/102021~1.10/bin/../lib/gcc/arm-none-eabi/10.3.1/../../../../arm-none-eabi/lib/thumb/v6-m/nofp/crt0.o
 .bss           0x00000000        0x0 c:/vsarm/armcc/102021~1.10/bin/../lib/gcc/arm-none-eabi/10.3.1/../../../../arm-none-eabi/lib/thumb/v6-m/nofp/crt0.o
 .ARM.extab     0x00000000        0x0 c:/vsarm/armcc/102021~1.10/bin/../lib/gcc/arm-none-eabi/10.3.1/../../../../arm-none-eabi/lib/thumb/v6-m/nofp/crt0.o
 .ARM.exidx     0x00000000       0x10 c:/vsarm/armcc/102021~1.10/bin/../lib/gcc/arm-none-eabi/10.3.1/../../../../arm-none-eabi/lib/thumb/v6-m/nofp/crt0.o
 .ARM.attributes
                0x00000000       0x1b c:/vsarm/armcc/102021~1.10/bin/../lib/gcc/arm-none-eabi/10.3.1/../../../../arm-none-eabi/lib/thumb/v6-m/nofp/crt0.o
 .text          0x00000000        0x0 CMakeFiles/gif_screen_driver.dir/gif_screen_driver.c.obj
 .data          0x00000000        0x0 CMakeFiles/gif_screen_driver.dir/gif_screen_driver.c.obj
 .bss           0x00000000        0x0 CMakeFiles/gif_screen_driver.dir/gif_screen_driver.c.obj
 .text.output_left_blank
                0x00000000       0x30 CMakeFiles/gif_screen_driver.dir/gif_screen_driver.c.obj
 .bss.frame_buff_0
                0x00000000        0x4 CMakeFiles/gif_screen_driver.dir/gif_screen_driver.c.obj
 .bss.frame_buff_1
                0x00000000        0x4 CMakeFiles/gif_screen_driver.dir/gif_screen_driver.c.obj
 .text          0x00000000        0x0 CMakeFiles/gif_screen_driver.dir/hw_config.c.obj
 .data          0x00000000        0x0 CMakeFiles/gif_screen_driver.dir/hw_config.c.obj
 .bss           0x00000000        0x0 CMakeFiles/gif_screen_driver.dir/hw_config.c.obj
 .text          0x00000000        0x0 CMakeFiles/gif_screen_driver.dir/gifdec.c.obj
 .data          0x00000000        0x0 CMakeFiles/gif_screen_driver.dir/gifdec.c.obj
 .bss           0x00000000        0x0 CMakeFiles/gif_screen_driver.dir/gifdec.c.obj
 .text.gd_is_bgcolor
                0x00000000       0x24 CMakeFiles/gif_screen_driver.dir/gifdec.c.obj
 .text          0x00000000        0x0 CMakeFiles/gif_screen_driver.dir/ssd1306.c.obj
 .data          0x00000000        0x0 CMakeFiles/gif_screen_driver.dir/ssd1306.c.obj
 .bss           0x00000000        0x0 CMakeFiles/gif_screen_driver.dir/ssd1306.c.obj
 .text.ssd1306_deinit
                0x00000000        0xc CMakeFiles/gif_screen_driver.dir/ssd1306.c.obj
 .text.ssd1306_poweroff
                0x00000000       0x4c CMakeFiles/gif_screen_driver.dir/ssd1306.c.obj
 .text.ssd1306_poweron
                0x00000000       0x4c CMakeFiles/gif_screen_driver.dir/ssd1306.c.obj
 .text.ssd1306_contrast
                0x00000000       0x80 CMakeFiles/gif_screen_driver.dir/ssd1306.c.obj
 .text.ssd1306_invert
                0x00000000       0x54 CMakeFiles/gif_screen_driver.dir/ssd1306.c.obj
 .text.ssd1306_draw_line
                0x00000000       0x90 CMakeFiles/gif_screen_driver.dir/ssd1306.c.obj
 .text.ssd1306_draw_empty_square
                0x00000000       0x56 CMakeFiles/gif_screen_driver.dir/ssd1306.c.obj
 .text.ssd1306_draw_char
                0x00000000       0x1c CMakeFiles/gif_screen_driver.dir/ssd1306.c.obj
 .text.ssd1306_bmp_show_image_with_offset
                0x00000000      0x15e CMakeFiles/gif_screen_driver.dir/ssd1306.c.obj
 .text.ssd1306_bmp_show_image
                0x00000000       0x10 CMakeFiles/gif_screen_driver.dir/ssd1306.c.obj
 .text          0x00000000        0x0 CMakeFiles/gif_screen_driver.dir/C_/VSARM/sdk/pico/pico-sdk/src/rp2_common/pico_stdlib/stdlib.c.obj
 .data          0x00000000        0x0 CMakeFiles/gif_screen_driver.dir/C_/VSARM/sdk/pico/pico-sdk/src/rp2_common/pico_stdlib/stdlib.c.obj
 .bss           0x00000000        0x0 CMakeFiles/gif_screen_driver.dir/C_/VSARM/sdk/pico/pico-sdk/src/rp2_common/pico_stdlib/stdlib.c.obj
 .text.set_sys_clock_48mhz
                0x00000000       0x40 CMakeFiles/gif_screen_driver.dir/C_/VSARM/sdk/pico/pico-sdk/src/rp2_common/pico_stdlib/stdlib.c.obj
 .text.setup_default_uart
                0x00000000       0x2c CMakeFiles/gif_screen_driver.dir/C_/VSARM/sdk/pico/pico-sdk/src/rp2_common/pico_stdlib/stdlib.c.obj
 .binary_info.__bi_ptr118
                0x00000000        0x4 CMakeFiles/gif_screen_driver.dir/C_/VSARM/sdk/pico/pico-sdk/src/rp2_common/pico_stdlib/stdlib.c.obj
 .rodata.__bi_118.0
                0x00000000        0x8 CMakeFiles/gif_screen_driver.dir/C_/VSARM/sdk/pico/pico-sdk/src/rp2_common/pico_stdlib/stdlib.c.obj
 .text          0x00000000        0x0 CMakeFiles/gif_screen_driver.dir/C_/VSARM/sdk/pico/pico-sdk/src/rp2_common/hardware_gpio/gpio.c.obj
 .data          0x00000000        0x0 CMakeFiles/gif_screen_driver.dir/C_/VSARM/sdk/pico/pico-sdk/src/rp2_common/hardware_gpio/gpio.c.obj
 .bss           0x00000000        0x0 CMakeFiles/gif_screen_driver.dir/C_/VSARM/sdk/pico/pico-sdk/src/rp2_common/hardware_gpio/gpio.c.obj
 .text.gpio_get_pad
                0x00000000       0x28 CMakeFiles/gif_screen_driver.dir/C_/VSARM/sdk/pico/pico-sdk/src/rp2_common/hardware_gpio/gpio.c.obj
 .text.gpio_get_function
                0x00000000       0x14 CMakeFiles/gif_screen_driver.dir/C_/VSARM/sdk/pico/pico-sdk/src/rp2_common/hardware_gpio/gpio.c.obj
 .text.gpio_set_irqover
                0x00000000       0x24 CMakeFiles/gif_screen_driver.dir/C_/VSARM/sdk/pico/pico-sdk/src/rp2_common/hardware_gpio/gpio.c.obj
 .text.gpio_set_inover
                0x00000000       0x24 CMakeFiles/gif_screen_driver.dir/C_/VSARM/sdk/pico/pico-sdk/src/rp2_common/hardware_gpio/gpio.c.obj
 .text.gpio_set_outover
                0x00000000       0x24 CMakeFiles/gif_screen_driver.dir/C_/VSARM/sdk/pico/pico-sdk/src/rp2_common/hardware_gpio/gpio.c.obj
 .text.gpio_set_oeover
                0x00000000       0x24 CMakeFiles/gif_screen_driver.dir/C_/VSARM/sdk/pico/pico-sdk/src/rp2_common/hardware_gpio/gpio.c.obj
 .text.gpio_set_input_hysteresis_enabled
                0x00000000       0x30 CMakeFiles/gif_screen_driver.dir/C_/VSARM/sdk/pico/pico-sdk/src/rp2_common/hardware_gpio/gpio.c.obj
 .text.gpio_is_input_hysteresis_enabled
                0x00000000       0x1c CMakeFiles/gif_screen_driver.dir/C_/VSARM/sdk/pico/pico-sdk/src/rp2_common/hardware_gpio/gpio.c.obj
 .text.gpio_set_slew_rate
                0x00000000       0x20 CMakeFiles/gif_screen_driver.dir/C_/VSARM/sdk/pico/pico-sdk/src/rp2_common/hardware_gpio/gpio.c.obj
 .text.gpio_get_slew_rate
                0x00000000       0x14 CMakeFiles/gif_screen_driver.dir/C_/VSARM/sdk/pico/pico-sdk/src/rp2_common/hardware_gpio/gpio.c.obj
 .text.gpio_get_drive_strength
                0x00000000       0x18 CMakeFiles/gif_screen_driver.dir/C_/VSARM/sdk/pico/pico-sdk/src/rp2_common/hardware_gpio/gpio.c.obj
 .text.gpio_set_irq_callback
                0x00000000       0x48 CMakeFiles/gif_screen_driver.dir/C_/VSARM/sdk/pico/pico-sdk/src/rp2_common/hardware_gpio/gpio.c.obj
 .rodata.gpio_add_raw_irq_handler_with_order_priority_masked.str1.4
                0x00000000       0x6b CMakeFiles/gif_screen_driver.dir/C_/VSARM/sdk/pico/pico-sdk/src/rp2_common/hardware_gpio/gpio.c.obj
 .text.gpio_add_raw_irq_handler_with_order_priority_masked
                0x00000000       0x40 CMakeFiles/gif_screen_driver.dir/C_/VSARM/sdk/pico/pico-sdk/src/rp2_common/hardware_gpio/gpio.c.obj
 .text.gpio_add_raw_irq_handler_masked
                0x00000000        0xa CMakeFiles/gif_screen_driver.dir/C_/VSARM/sdk/pico/pico-sdk/src/rp2_common/hardware_gpio/gpio.c.obj
 .rodata.gpio_remove_raw_irq_handler_masked.str1.4
                0x00000000       0x29 CMakeFiles/gif_screen_driver.dir/C_/VSARM/sdk/pico/pico-sdk/src/rp2_common/hardware_gpio/gpio.c.obj
 .text.gpio_remove_raw_irq_handler_masked
                0x00000000       0x48 CMakeFiles/gif_screen_driver.dir/C_/VSARM/sdk/pico/pico-sdk/src/rp2_common/hardware_gpio/gpio.c.obj
 .text.gpio_acknowledge_irq
                0x00000000       0x18 CMakeFiles/gif_screen_driver.dir/C_/VSARM/sdk/pico/pico-sdk/src/rp2_common/hardware_gpio/gpio.c.obj
 .text._gpio_set_irq_enabled
                0x00000000       0x34 CMakeFiles/gif_screen_driver.dir/C_/VSARM/sdk/pico/pico-sdk/src/rp2_common/hardware_gpio/gpio.c.obj
 .text.gpio_set_irq_enabled
                0x00000000       0x20 CMakeFiles/gif_screen_driver.dir/C_/VSARM/sdk/pico/pico-sdk/src/rp2_common/hardware_gpio/gpio.c.obj
 .text.gpio_set_irq_enabled_with_callback
                0x00000000       0x20 CMakeFiles/gif_screen_driver.dir/C_/VSARM/sdk/pico/pico-sdk/src/rp2_common/hardware_gpio/gpio.c.obj
 .text.gpio_set_dormant_irq_enabled
                0x00000000       0x10 CMakeFiles/gif_screen_driver.dir/C_/VSARM/sdk/pico/pico-sdk/src/rp2_common/hardware_gpio/gpio.c.obj
 .text.gpio_default_irq_handler
                0x00000000       0x98 CMakeFiles/gif_screen_driver.dir/C_/VSARM/sdk/pico/pico-sdk/src/rp2_common/hardware_gpio/gpio.c.obj
 .text.gpio_set_input_enabled
                0x00000000       0x30 CMakeFiles/gif_screen_driver.dir/C_/VSARM/sdk/pico/pico-sdk/src/rp2_common/hardware_gpio/gpio.c.obj
 .text.gpio_deinit
                0x00000000        0xa CMakeFiles/gif_screen_driver.dir/C_/VSARM/sdk/pico/pico-sdk/src/rp2_common/hardware_gpio/gpio.c.obj
 .text.gpio_init_mask
                0x00000000       0x1e CMakeFiles/gif_screen_driver.dir/C_/VSARM/sdk/pico/pico-sdk/src/rp2_common/hardware_gpio/gpio.c.obj
 .text.gpio_debug_pins_init
                0x00000000       0x18 CMakeFiles/gif_screen_driver.dir/C_/VSARM/sdk/pico/pico-sdk/src/rp2_common/hardware_gpio/gpio.c.obj
 .bss.callbacks
                0x00000000        0x8 CMakeFiles/gif_screen_driver.dir/C_/VSARM/sdk/pico/pico-sdk/src/rp2_common/hardware_gpio/gpio.c.obj
 .bss.raw_irq_mask
                0x00000000        0x8 CMakeFiles/gif_screen_driver.dir/C_/VSARM/sdk/pico/pico-sdk/src/rp2_common/hardware_gpio/gpio.c.obj
 .rodata.__func__.0
                0x00000000       0x23 CMakeFiles/gif_screen_driver.dir/C_/VSARM/sdk/pico/pico-sdk/src/rp2_common/hardware_gpio/gpio.c.obj
 .rodata.__func__.1
                0x00000000       0x34 CMakeFiles/gif_screen_driver.dir/C_/VSARM/sdk/pico/pico-sdk/src/rp2_common/hardware_gpio/gpio.c.obj
 .text          0x00000000        0x0 CMakeFiles/gif_screen_driver.dir/C_/VSARM/sdk/pico/pico-sdk/src/rp2_common/pico_platform/platform.c.obj
 .data          0x00000000        0x0 CMakeFiles/gif_screen_driver.dir/C_/VSARM/sdk/pico/pico-sdk/src/rp2_common/pico_platform/platform.c.obj
 .bss           0x00000000        0x0 CMakeFiles/gif_screen_driver.dir/C_/VSARM/sdk/pico/pico-sdk/src/rp2_common/pico_platform/platform.c.obj
 .rodata.rp2040_chip_version.str1.4
                0x00000000       0x79 CMakeFiles/gif_screen_driver.dir/C_/VSARM/sdk/pico/pico-sdk/src/rp2_common/pico_platform/platform.c.obj
 .text.rp2040_chip_version
                0x00000000       0x4c CMakeFiles/gif_screen_driver.dir/C_/VSARM/sdk/pico/pico-sdk/src/rp2_common/pico_platform/platform.c.obj
 .rodata.__func__.0
                0x00000000       0x14 CMakeFiles/gif_screen_driver.dir/C_/VSARM/sdk/pico/pico-sdk/src/rp2_common/pico_platform/platform.c.obj
 .text          0x00000000        0x0 CMakeFiles/gif_screen_driver.dir/C_/VSARM/sdk/pico/pico-sdk/src/rp2_common/hardware_claim/claim.c.obj
 .data          0x00000000        0x0 CMakeFiles/gif_screen_driver.dir/C_/VSARM/sdk/pico/pico-sdk/src/rp2_common/hardware_claim/claim.c.obj
 .bss           0x00000000        0x0 CMakeFiles/gif_screen_driver.dir/C_/VSARM/sdk/pico/pico-sdk/src/rp2_common/hardware_claim/claim.c.obj
 .text.hw_is_claimed
                0x00000000       0x16 CMakeFiles/gif_screen_driver.dir/C_/VSARM/sdk/pico/pico-sdk/src/rp2_common/hardware_claim/claim.c.obj
 .rodata.hw_claim_clear.str1.4
                0x00000000       0x61 CMakeFiles/gif_screen_driver.dir/C_/VSARM/sdk/pico/pico-sdk/src/rp2_common/hardware_claim/claim.c.obj
 .text.hw_claim_clear
                0x00000000       0x40 CMakeFiles/gif_screen_driver.dir/C_/VSARM/sdk/pico/pico-sdk/src/rp2_common/hardware_claim/claim.c.obj
 .rodata.__func__.0
                0x00000000        0xf CMakeFiles/gif_screen_driver.dir/C_/VSARM/sdk/pico/pico-sdk/src/rp2_common/hardware_claim/claim.c.obj
 .text          0x00000000        0x0 CMakeFiles/gif_screen_driver.dir/C_/VSARM/sdk/pico/pico-sdk/src/rp2_common/hardware_sync/sync.c.obj
 .data          0x00000000        0x0 CMakeFiles/gif_screen_driver.dir/C_/VSARM/sdk/pico/pico-sdk/src/rp2_common/hardware_sync/sync.c.obj
 .bss           0x00000000        0x0 CMakeFiles/gif_screen_driver.dir/C_/VSARM/sdk/pico/pico-sdk/src/rp2_common/hardware_sync/sync.c.obj
 .rodata.spin_lock_init.str1.4
                0x00000000       0x5b CMakeFiles/gif_screen_driver.dir/C_/VSARM/sdk/pico/pico-sdk/src/rp2_common/hardware_sync/sync.c.obj
 .text.spin_lock_init
                0x00000000       0x34 CMakeFiles/gif_screen_driver.dir/C_/VSARM/sdk/pico/pico-sdk/src/rp2_common/hardware_sync/sync.c.obj
 .rodata.spin_lock_claim.str1.4
                0x00000000       0x1f CMakeFiles/gif_screen_driver.dir/C_/VSARM/sdk/pico/pico-sdk/src/rp2_common/hardware_sync/sync.c.obj
 .text.spin_lock_claim
                0x00000000       0x18 CMakeFiles/gif_screen_driver.dir/C_/VSARM/sdk/pico/pico-sdk/src/rp2_common/hardware_sync/sync.c.obj
 .text.spin_lock_claim_mask
                0x00000000       0x1e CMakeFiles/gif_screen_driver.dir/C_/VSARM/sdk/pico/pico-sdk/src/rp2_common/hardware_sync/sync.c.obj
 .text.spin_lock_unclaim
                0x00000000       0x24 CMakeFiles/gif_screen_driver.dir/C_/VSARM/sdk/pico/pico-sdk/src/rp2_common/hardware_sync/sync.c.obj
 .text.spin_lock_is_claimed
                0x00000000       0x10 CMakeFiles/gif_screen_driver.dir/C_/VSARM/sdk/pico/pico-sdk/src/rp2_common/hardware_sync/sync.c.obj
 .rodata.__func__.0
                0x00000000        0xf CMakeFiles/gif_screen_driver.dir/C_/VSARM/sdk/pico/pico-sdk/src/rp2_common/hardware_sync/sync.c.obj
 .text          0x00000000        0x0 CMakeFiles/gif_screen_driver.dir/C_/VSARM/sdk/pico/pico-sdk/src/rp2_common/hardware_irq/irq.c.obj
 .data          0x00000000        0x0 CMakeFiles/gif_screen_driver.dir/C_/VSARM/sdk/pico/pico-sdk/src/rp2_common/hardware_irq/irq.c.obj
 .bss           0x00000000        0x0 CMakeFiles/gif_screen_driver.dir/C_/VSARM/sdk/pico/pico-sdk/src/rp2_common/hardware_irq/irq.c.obj
 .text.get_user_irq_claim_index
                0x00000000        0x6 CMakeFiles/gif_screen_driver.dir/C_/VSARM/sdk/pico/pico-sdk/src/rp2_common/hardware_irq/irq.c.obj
 .text.irq_get_exclusive_handler
                0x00000000       0x4c CMakeFiles/gif_screen_driver.dir/C_/VSARM/sdk/pico/pico-sdk/src/rp2_common/hardware_irq/irq.c.obj
 .text.irq_set_priority
                0x00000000       0x28 CMakeFiles/gif_screen_driver.dir/C_/VSARM/sdk/pico/pico-sdk/src/rp2_common/hardware_irq/irq.c.obj
 .text.irq_get_priority
                0x00000000       0x20 CMakeFiles/gif_screen_driver.dir/C_/VSARM/sdk/pico/pico-sdk/src/rp2_common/hardware_irq/irq.c.obj
 .rodata.user_irq_claim.str1.4
                0x00000000       0x1c CMakeFiles/gif_screen_driver.dir/C_/VSARM/sdk/pico/pico-sdk/src/rp2_common/hardware_irq/irq.c.obj
 .text.user_irq_claim
                0x00000000       0x1c CMakeFiles/gif_screen_driver.dir/C_/VSARM/sdk/pico/pico-sdk/src/rp2_common/hardware_irq/irq.c.obj
 .text.user_irq_unclaim
                0x00000000       0x14 CMakeFiles/gif_screen_driver.dir/C_/VSARM/sdk/pico/pico-sdk/src/rp2_common/hardware_irq/irq.c.obj
 .text.user_irq_is_claimed
                0x00000000       0x14 CMakeFiles/gif_screen_driver.dir/C_/VSARM/sdk/pico/pico-sdk/src/rp2_common/hardware_irq/irq.c.obj
 .text          0x00000000        0x0 CMakeFiles/gif_screen_driver.dir/C_/VSARM/sdk/pico/pico-sdk/src/rp2_common/hardware_irq/irq_handler_chain.S.obj
 .bss           0x00000000        0x0 CMakeFiles/gif_screen_driver.dir/C_/VSARM/sdk/pico/pico-sdk/src/rp2_common/hardware_irq/irq_handler_chain.S.obj
 .text          0x00000000        0x0 CMakeFiles/gif_screen_driver.dir/C_/VSARM/sdk/pico/pico-sdk/src/common/pico_sync/sem.c.obj
 .data          0x00000000        0x0 CMakeFiles/gif_screen_driver.dir/C_/VSARM/sdk/pico/pico-sdk/src/common/pico_sync/sem.c.obj
 .bss           0x00000000        0x0 CMakeFiles/gif_screen_driver.dir/C_/VSARM/sdk/pico/pico-sdk/src/common/pico_sync/sem.c.obj
 .time_critical.sem_acquire_blocking
                0x00000000       0x40 CMakeFiles/gif_screen_driver.dir/C_/VSARM/sdk/pico/pico-sdk/src/common/pico_sync/sem.c.obj
 .time_critical.sem_acquire_timeout_us
                0x00000000       0x58 CMakeFiles/gif_screen_driver.dir/C_/VSARM/sdk/pico/pico-sdk/src/common/pico_sync/sem.c.obj
 .time_critical.sem_try_acquire
                0x00000000       0x42 CMakeFiles/gif_screen_driver.dir/C_/VSARM/sdk/pico/pico-sdk/src/common/pico_sync/sem.c.obj
 .text          0x00000000        0x0 CMakeFiles/gif_screen_driver.dir/C_/VSARM/sdk/pico/pico-sdk/src/common/pico_sync/lock_core.c.obj
 .data          0x00000000        0x0 CMakeFiles/gif_screen_driver.dir/C_/VSARM/sdk/pico/pico-sdk/src/common/pico_sync/lock_core.c.obj
 .bss           0x00000000        0x0 CMakeFiles/gif_screen_driver.dir/C_/VSARM/sdk/pico/pico-sdk/src/common/pico_sync/lock_core.c.obj
 .text          0x00000000        0x0 CMakeFiles/gif_screen_driver.dir/C_/VSARM/sdk/pico/pico-sdk/src/common/pico_sync/mutex.c.obj
 .data          0x00000000        0x0 CMakeFiles/gif_screen_driver.dir/C_/VSARM/sdk/pico/pico-sdk/src/common/pico_sync/mutex.c.obj
 .bss           0x00000000        0x0 CMakeFiles/gif_screen_driver.dir/C_/VSARM/sdk/pico/pico-sdk/src/common/pico_sync/mutex.c.obj
 .time_critical.recursive_mutex_enter_blocking
                0x00000000       0x70 CMakeFiles/gif_screen_driver.dir/C_/VSARM/sdk/pico/pico-sdk/src/common/pico_sync/mutex.c.obj
 .time_critical.recursive_mutex_try_enter
                0x00000000       0x70 CMakeFiles/gif_screen_driver.dir/C_/VSARM/sdk/pico/pico-sdk/src/common/pico_sync/mutex.c.obj
 .time_critical.mutex_enter_timeout_us
                0x00000000       0x58 CMakeFiles/gif_screen_driver.dir/C_/VSARM/sdk/pico/pico-sdk/src/common/pico_sync/mutex.c.obj
 .time_critical.recursive_mutex_enter_block_until
                0x00000000       0xac CMakeFiles/gif_screen_driver.dir/C_/VSARM/sdk/pico/pico-sdk/src/common/pico_sync/mutex.c.obj
 .time_critical.recursive_mutex_enter_timeout_ms
                0x00000000       0x68 CMakeFiles/gif_screen_driver.dir/C_/VSARM/sdk/pico/pico-sdk/src/common/pico_sync/mutex.c.obj
 .time_critical.recursive_mutex_enter_timeout_us
                0x00000000       0x58 CMakeFiles/gif_screen_driver.dir/C_/VSARM/sdk/pico/pico-sdk/src/common/pico_sync/mutex.c.obj
 .time_critical.recursive_mutex_exit
                0x00000000       0x7c CMakeFiles/gif_screen_driver.dir/C_/VSARM/sdk/pico/pico-sdk/src/common/pico_sync/mutex.c.obj
 .rodata.__func__.0
                0x00000000       0x15 CMakeFiles/gif_screen_driver.dir/C_/VSARM/sdk/pico/pico-sdk/src/common/pico_sync/mutex.c.obj
 .rodata.__func__.2
                0x00000000       0x22 CMakeFiles/gif_screen_driver.dir/C_/VSARM/sdk/pico/pico-sdk/src/common/pico_sync/mutex.c.obj
 .rodata.__func__.5
                0x00000000       0x1a CMakeFiles/gif_screen_driver.dir/C_/VSARM/sdk/pico/pico-sdk/src/common/pico_sync/mutex.c.obj
 .rodata.__func__.6
                0x00000000       0x1f CMakeFiles/gif_screen_driver.dir/C_/VSARM/sdk/pico/pico-sdk/src/common/pico_sync/mutex.c.obj
 .text          0x00000000        0x0 CMakeFiles/gif_screen_driver.dir/C_/VSARM/sdk/pico/pico-sdk/src/common/pico_sync/critical_section.c.obj
 .data          0x00000000        0x0 CMakeFiles/gif_screen_driver.dir/C_/VSARM/sdk/pico/pico-sdk/src/common/pico_sync/critical_section.c.obj
 .bss           0x00000000        0x0 CMakeFiles/gif_screen_driver.dir/C_/VSARM/sdk/pico/pico-sdk/src/common/pico_sync/critical_section.c.obj
 .text.critical_section_deinit
                0x00000000       0x1c CMakeFiles/gif_screen_driver.dir/C_/VSARM/sdk/pico/pico-sdk/src/common/pico_sync/critical_section.c.obj
 .text          0x00000000        0x0 CMakeFiles/gif_screen_driver.dir/C_/VSARM/sdk/pico/pico-sdk/src/common/pico_time/time.c.obj
 .data          0x00000000        0x0 CMakeFiles/gif_screen_driver.dir/C_/VSARM/sdk/pico/pico-sdk/src/common/pico_time/time.c.obj
 .bss           0x00000000        0x0 CMakeFiles/gif_screen_driver.dir/C_/VSARM/sdk/pico/pico-sdk/src/common/pico_time/time.c.obj
 .rodata.alarm_pool_dump_key.str1.4
                0x00000000        0xf CMakeFiles/gif_screen_driver.dir/C_/VSARM/sdk/pico/pico-sdk/src/common/pico_time/time.c.obj
 .text.alarm_pool_dump_key
                0x00000000       0x70 CMakeFiles/gif_screen_driver.dir/C_/VSARM/sdk/pico/pico-sdk/src/common/pico_time/time.c.obj
 .text.alarm_pool_create
                0x00000000       0x44 CMakeFiles/gif_screen_driver.dir/C_/VSARM/sdk/pico/pico-sdk/src/common/pico_time/time.c.obj
 .rodata.alarm_pool_destroy.str1.4
                0x00000000       0x30 CMakeFiles/gif_screen_driver.dir/C_/VSARM/sdk/pico/pico-sdk/src/common/pico_time/time.c.obj
 .text.alarm_pool_destroy
                0x00000000       0x78 CMakeFiles/gif_screen_driver.dir/C_/VSARM/sdk/pico/pico-sdk/src/common/pico_time/time.c.obj
 .text.alarm_pool_add_alarm_at_force_in_context
                0x00000000       0xa4 CMakeFiles/gif_screen_driver.dir/C_/VSARM/sdk/pico/pico-sdk/src/common/pico_time/time.c.obj
 .text.alarm_pool_hardware_alarm_num
                0x00000000        0x4 CMakeFiles/gif_screen_driver.dir/C_/VSARM/sdk/pico/pico-sdk/src/common/pico_time/time.c.obj
 .text.cancel_repeating_timer
                0x00000000       0x1a CMakeFiles/gif_screen_driver.dir/C_/VSARM/sdk/pico/pico-sdk/src/common/pico_time/time.c.obj
 .text.alarm_pool_dump
                0x00000000       0x34 CMakeFiles/gif_screen_driver.dir/C_/VSARM/sdk/pico/pico-sdk/src/common/pico_time/time.c.obj
 .rodata.__func__.2
                0x00000000       0x13 CMakeFiles/gif_screen_driver.dir/C_/VSARM/sdk/pico/pico-sdk/src/common/pico_time/time.c.obj
 .rodata.nil_time
                0x00000000        0x8 CMakeFiles/gif_screen_driver.dir/C_/VSARM/sdk/pico/pico-sdk/src/common/pico_time/time.c.obj
 .text          0x00000000        0x0 CMakeFiles/gif_screen_driver.dir/C_/VSARM/sdk/pico/pico-sdk/src/common/pico_time/timeout_helper.c.obj
 .data          0x00000000        0x0 CMakeFiles/gif_screen_driver.dir/C_/VSARM/sdk/pico/pico-sdk/src/common/pico_time/timeout_helper.c.obj
 .bss           0x00000000        0x0 CMakeFiles/gif_screen_driver.dir/C_/VSARM/sdk/pico/pico-sdk/src/common/pico_time/timeout_helper.c.obj
 .rodata.check_per_iteration_timeout_us.str1.4
                0x00000000       0x61 CMakeFiles/gif_screen_driver.dir/C_/VSARM/sdk/pico/pico-sdk/src/common/pico_time/timeout_helper.c.obj
 .text.check_per_iteration_timeout_us
                0x00000000       0x88 CMakeFiles/gif_screen_driver.dir/C_/VSARM/sdk/pico/pico-sdk/src/common/pico_time/timeout_helper.c.obj
 .text.check_single_timeout_us
                0x00000000       0x2c CMakeFiles/gif_screen_driver.dir/C_/VSARM/sdk/pico/pico-sdk/src/common/pico_time/timeout_helper.c.obj
 .text.init_single_timeout_until
                0x00000000        0xc CMakeFiles/gif_screen_driver.dir/C_/VSARM/sdk/pico/pico-sdk/src/common/pico_time/timeout_helper.c.obj
 .text.init_per_iteration_timeout_us
                0x00000000       0x60 CMakeFiles/gif_screen_driver.dir/C_/VSARM/sdk/pico/pico-sdk/src/common/pico_time/timeout_helper.c.obj
 .rodata.__func__.0
                0x00000000       0x15 CMakeFiles/gif_screen_driver.dir/C_/VSARM/sdk/pico/pico-sdk/src/common/pico_time/timeout_helper.c.obj
 .debug_info    0x00000000      0x813 CMakeFiles/gif_screen_driver.dir/C_/VSARM/sdk/pico/pico-sdk/src/common/pico_time/timeout_helper.c.obj
 .debug_abbrev  0x00000000      0x243 CMakeFiles/gif_screen_driver.dir/C_/VSARM/sdk/pico/pico-sdk/src/common/pico_time/timeout_helper.c.obj
 .debug_loc     0x00000000      0x488 CMakeFiles/gif_screen_driver.dir/C_/VSARM/sdk/pico/pico-sdk/src/common/pico_time/timeout_helper.c.obj
 .debug_aranges
                0x00000000       0x38 CMakeFiles/gif_screen_driver.dir/C_/VSARM/sdk/pico/pico-sdk/src/common/pico_time/timeout_helper.c.obj
 .debug_ranges  0x00000000      0x148 CMakeFiles/gif_screen_driver.dir/C_/VSARM/sdk/pico/pico-sdk/src/common/pico_time/timeout_helper.c.obj
 .debug_line    0x00000000      0x525 CMakeFiles/gif_screen_driver.dir/C_/VSARM/sdk/pico/pico-sdk/src/common/pico_time/timeout_helper.c.obj
 .debug_str     0x00000000      0x420 CMakeFiles/gif_screen_driver.dir/C_/VSARM/sdk/pico/pico-sdk/src/common/pico_time/timeout_helper.c.obj
 .comment       0x00000000       0x4a CMakeFiles/gif_screen_driver.dir/C_/VSARM/sdk/pico/pico-sdk/src/common/pico_time/timeout_helper.c.obj
 .debug_frame   0x00000000       0x6c CMakeFiles/gif_screen_driver.dir/C_/VSARM/sdk/pico/pico-sdk/src/common/pico_time/timeout_helper.c.obj
 .ARM.attributes
                0x00000000       0x2c CMakeFiles/gif_screen_driver.dir/C_/VSARM/sdk/pico/pico-sdk/src/common/pico_time/timeout_helper.c.obj
 .text          0x00000000        0x0 CMakeFiles/gif_screen_driver.dir/C_/VSARM/sdk/pico/pico-sdk/src/rp2_common/hardware_timer/timer.c.obj
 .data          0x00000000        0x0 CMakeFiles/gif_screen_driver.dir/C_/VSARM/sdk/pico/pico-sdk/src/rp2_common/hardware_timer/timer.c.obj
 .bss           0x00000000        0x0 CMakeFiles/gif_screen_driver.dir/C_/VSARM/sdk/pico/pico-sdk/src/rp2_common/hardware_timer/timer.c.obj
 .text.hardware_alarm_unclaim
                0x00000000       0x10 CMakeFiles/gif_screen_driver.dir/C_/VSARM/sdk/pico/pico-sdk/src/rp2_common/hardware_timer/timer.c.obj
 .text.hardware_alarm_is_claimed
                0x00000000       0x10 CMakeFiles/gif_screen_driver.dir/C_/VSARM/sdk/pico/pico-sdk/src/rp2_common/hardware_timer/timer.c.obj
 .text.busy_wait_us_32
                0x00000000       0x24 CMakeFiles/gif_screen_driver.dir/C_/VSARM/sdk/pico/pico-sdk/src/rp2_common/hardware_timer/timer.c.obj
 .text.busy_wait_ms
                0x00000000       0x30 CMakeFiles/gif_screen_driver.dir/C_/VSARM/sdk/pico/pico-sdk/src/rp2_common/hardware_timer/timer.c.obj
 .text.hardware_alarm_force_irq
                0x00000000       0x40 CMakeFiles/gif_screen_driver.dir/C_/VSARM/sdk/pico/pico-sdk/src/rp2_common/hardware_timer/timer.c.obj
 .text          0x00000000        0x0 CMakeFiles/gif_screen_driver.dir/C_/VSARM/sdk/pico/pico-sdk/src/common/pico_util/datetime.c.obj
 .data          0x00000000        0x0 CMakeFiles/gif_screen_driver.dir/C_/VSARM/sdk/pico/pico-sdk/src/common/pico_util/datetime.c.obj
 .bss           0x00000000        0x0 CMakeFiles/gif_screen_driver.dir/C_/VSARM/sdk/pico/pico-sdk/src/common/pico_util/datetime.c.obj
 .rodata.datetime_to_str.str1.4
                0x00000000       0x19 CMakeFiles/gif_screen_driver.dir/C_/VSARM/sdk/pico/pico-sdk/src/common/pico_util/datetime.c.obj
 .text.datetime_to_str
                0x00000000       0x64 CMakeFiles/gif_screen_driver.dir/C_/VSARM/sdk/pico/pico-sdk/src/common/pico_util/datetime.c.obj
 .rodata.str1.4
                0x00000000       0xad CMakeFiles/gif_screen_driver.dir/C_/VSARM/sdk/pico/pico-sdk/src/common/pico_util/datetime.c.obj
 .rodata.DATETIME_DOWS
                0x00000000       0x1c CMakeFiles/gif_screen_driver.dir/C_/VSARM/sdk/pico/pico-sdk/src/common/pico_util/datetime.c.obj
 .rodata.DATETIME_MONTHS
                0x00000000       0x30 CMakeFiles/gif_screen_driver.dir/C_/VSARM/sdk/pico/pico-sdk/src/common/pico_util/datetime.c.obj
 .debug_info    0x00000000      0x21a CMakeFiles/gif_screen_driver.dir/C_/VSARM/sdk/pico/pico-sdk/src/common/pico_util/datetime.c.obj
 .debug_abbrev  0x00000000      0x10b CMakeFiles/gif_screen_driver.dir/C_/VSARM/sdk/pico/pico-sdk/src/common/pico_util/datetime.c.obj
 .debug_loc     0x00000000       0x7c CMakeFiles/gif_screen_driver.dir/C_/VSARM/sdk/pico/pico-sdk/src/common/pico_util/datetime.c.obj
 .debug_aranges
                0x00000000       0x20 CMakeFiles/gif_screen_driver.dir/C_/VSARM/sdk/pico/pico-sdk/src/common/pico_util/datetime.c.obj
 .debug_ranges  0x00000000       0x10 CMakeFiles/gif_screen_driver.dir/C_/VSARM/sdk/pico/pico-sdk/src/common/pico_util/datetime.c.obj
 .debug_line    0x00000000      0x1a5 CMakeFiles/gif_screen_driver.dir/C_/VSARM/sdk/pico/pico-sdk/src/common/pico_util/datetime.c.obj
 .debug_str     0x00000000      0x237 CMakeFiles/gif_screen_driver.dir/C_/VSARM/sdk/pico/pico-sdk/src/common/pico_util/datetime.c.obj
 .comment       0x00000000       0x4a CMakeFiles/gif_screen_driver.dir/C_/VSARM/sdk/pico/pico-sdk/src/common/pico_util/datetime.c.obj
 .debug_frame   0x00000000       0x38 CMakeFiles/gif_screen_driver.dir/C_/VSARM/sdk/pico/pico-sdk/src/common/pico_util/datetime.c.obj
 .ARM.attributes
                0x00000000       0x2c CMakeFiles/gif_screen_driver.dir/C_/VSARM/sdk/pico/pico-sdk/src/common/pico_util/datetime.c.obj
 .text          0x00000000        0x0 CMakeFiles/gif_screen_driver.dir/C_/VSARM/sdk/pico/pico-sdk/src/common/pico_util/pheap.c.obj
 .data          0x00000000        0x0 CMakeFiles/gif_screen_driver.dir/C_/VSARM/sdk/pico/pico-sdk/src/common/pico_util/pheap.c.obj
 .bss           0x00000000        0x0 CMakeFiles/gif_screen_driver.dir/C_/VSARM/sdk/pico/pico-sdk/src/common/pico_util/pheap.c.obj
 .rodata.ph_dump_node.str1.4
                0x00000000       0x15 CMakeFiles/gif_screen_driver.dir/C_/VSARM/sdk/pico/pico-sdk/src/common/pico_util/pheap.c.obj
 .text.ph_dump_node
                0x00000000       0xb4 CMakeFiles/gif_screen_driver.dir/C_/VSARM/sdk/pico/pico-sdk/src/common/pico_util/pheap.c.obj
 .text.ph_destroy
                0x00000000       0x12 CMakeFiles/gif_screen_driver.dir/C_/VSARM/sdk/pico/pico-sdk/src/common/pico_util/pheap.c.obj
 .rodata.ph_dump.str1.4
                0x00000000        0xf CMakeFiles/gif_screen_driver.dir/C_/VSARM/sdk/pico/pico-sdk/src/common/pico_util/pheap.c.obj
 .text.ph_dump  0x00000000       0x24 CMakeFiles/gif_screen_driver.dir/C_/VSARM/sdk/pico/pico-sdk/src/common/pico_util/pheap.c.obj
 .text          0x00000000        0x0 CMakeFiles/gif_screen_driver.dir/C_/VSARM/sdk/pico/pico-sdk/src/common/pico_util/queue.c.obj
 .data          0x00000000        0x0 CMakeFiles/gif_screen_driver.dir/C_/VSARM/sdk/pico/pico-sdk/src/common/pico_util/queue.c.obj
 .bss           0x00000000        0x0 CMakeFiles/gif_screen_driver.dir/C_/VSARM/sdk/pico/pico-sdk/src/common/pico_util/queue.c.obj
 .rodata.queue_add_internal.str1.4
                0x00000000       0x54 CMakeFiles/gif_screen_driver.dir/C_/VSARM/sdk/pico/pico-sdk/src/common/pico_util/queue.c.obj
 .text.queue_add_internal
                0x00000000       0xa0 CMakeFiles/gif_screen_driver.dir/C_/VSARM/sdk/pico/pico-sdk/src/common/pico_util/queue.c.obj
 .text.queue_peek_internal
                0x00000000       0x94 CMakeFiles/gif_screen_driver.dir/C_/VSARM/sdk/pico/pico-sdk/src/common/pico_util/queue.c.obj
 .text.queue_remove_internal
                0x00000000       0xa4 CMakeFiles/gif_screen_driver.dir/C_/VSARM/sdk/pico/pico-sdk/src/common/pico_util/queue.c.obj
 .text.queue_init_with_spinlock
                0x00000000       0x24 CMakeFiles/gif_screen_driver.dir/C_/VSARM/sdk/pico/pico-sdk/src/common/pico_util/queue.c.obj
 .text.queue_free
                0x00000000        0xa CMakeFiles/gif_screen_driver.dir/C_/VSARM/sdk/pico/pico-sdk/src/common/pico_util/queue.c.obj
 .text.queue_try_add
                0x00000000        0xa CMakeFiles/gif_screen_driver.dir/C_/VSARM/sdk/pico/pico-sdk/src/common/pico_util/queue.c.obj
 .text.queue_try_remove
                0x00000000        0xa CMakeFiles/gif_screen_driver.dir/C_/VSARM/sdk/pico/pico-sdk/src/common/pico_util/queue.c.obj
 .text.queue_try_peek
                0x00000000        0xa CMakeFiles/gif_screen_driver.dir/C_/VSARM/sdk/pico/pico-sdk/src/common/pico_util/queue.c.obj
 .text.queue_add_blocking
                0x00000000        0xa CMakeFiles/gif_screen_driver.dir/C_/VSARM/sdk/pico/pico-sdk/src/common/pico_util/queue.c.obj
 .text.queue_remove_blocking
                0x00000000        0xa CMakeFiles/gif_screen_driver.dir/C_/VSARM/sdk/pico/pico-sdk/src/common/pico_util/queue.c.obj
 .text.queue_peek_blocking
                0x00000000        0xa CMakeFiles/gif_screen_driver.dir/C_/VSARM/sdk/pico/pico-sdk/src/common/pico_util/queue.c.obj
 .rodata.__func__.0
                0x00000000        0xc CMakeFiles/gif_screen_driver.dir/C_/VSARM/sdk/pico/pico-sdk/src/common/pico_util/queue.c.obj
 .debug_info    0x00000000     0x1204 CMakeFiles/gif_screen_driver.dir/C_/VSARM/sdk/pico/pico-sdk/src/common/pico_util/queue.c.obj
 .debug_abbrev  0x00000000      0x307 CMakeFiles/gif_screen_driver.dir/C_/VSARM/sdk/pico/pico-sdk/src/common/pico_util/queue.c.obj
 .debug_loc     0x00000000      0xcdf CMakeFiles/gif_screen_driver.dir/C_/VSARM/sdk/pico/pico-sdk/src/common/pico_util/queue.c.obj
 .debug_aranges
                0x00000000       0x70 CMakeFiles/gif_screen_driver.dir/C_/VSARM/sdk/pico/pico-sdk/src/common/pico_util/queue.c.obj
 .debug_ranges  0x00000000      0x630 CMakeFiles/gif_screen_driver.dir/C_/VSARM/sdk/pico/pico-sdk/src/common/pico_util/queue.c.obj
 .debug_line    0x00000000      0x985 CMakeFiles/gif_screen_driver.dir/C_/VSARM/sdk/pico/pico-sdk/src/common/pico_util/queue.c.obj
 .debug_str     0x00000000      0x48e CMakeFiles/gif_screen_driver.dir/C_/VSARM/sdk/pico/pico-sdk/src/common/pico_util/queue.c.obj
 .comment       0x00000000       0x4a CMakeFiles/gif_screen_driver.dir/C_/VSARM/sdk/pico/pico-sdk/src/common/pico_util/queue.c.obj
 .debug_frame   0x00000000      0x12c CMakeFiles/gif_screen_driver.dir/C_/VSARM/sdk/pico/pico-sdk/src/common/pico_util/queue.c.obj
 .ARM.attributes
                0x00000000       0x2c CMakeFiles/gif_screen_driver.dir/C_/VSARM/sdk/pico/pico-sdk/src/common/pico_util/queue.c.obj
 .text          0x00000000        0x0 CMakeFiles/gif_screen_driver.dir/C_/VSARM/sdk/pico/pico-sdk/src/rp2_common/hardware_uart/uart.c.obj
 .data          0x00000000        0x0 CMakeFiles/gif_screen_driver.dir/C_/VSARM/sdk/pico/pico-sdk/src/rp2_common/hardware_uart/uart.c.obj
 .bss           0x00000000        0x0 CMakeFiles/gif_screen_driver.dir/C_/VSARM/sdk/pico/pico-sdk/src/rp2_common/hardware_uart/uart.c.obj
 .text.uart_disable_before_lcr_write
                0x00000000       0x48 CMakeFiles/gif_screen_driver.dir/C_/VSARM/sdk/pico/pico-sdk/src/rp2_common/hardware_uart/uart.c.obj
 .text.uart_write_lcr_bits_masked
                0x00000000       0x22 CMakeFiles/gif_screen_driver.dir/C_/VSARM/sdk/pico/pico-sdk/src/rp2_common/hardware_uart/uart.c.obj
 .text.uart_deinit
                0x00000000       0x20 CMakeFiles/gif_screen_driver.dir/C_/VSARM/sdk/pico/pico-sdk/src/rp2_common/hardware_uart/uart.c.obj
 .text.uart_set_baudrate
                0x00000000       0x5c CMakeFiles/gif_screen_driver.dir/C_/VSARM/sdk/pico/pico-sdk/src/rp2_common/hardware_uart/uart.c.obj
 .text.uart_set_format
                0x00000000       0x2c CMakeFiles/gif_screen_driver.dir/C_/VSARM/sdk/pico/pico-sdk/src/rp2_common/hardware_uart/uart.c.obj
 .text.uart_set_fifo_enabled
                0x00000000       0x10 CMakeFiles/gif_screen_driver.dir/C_/VSARM/sdk/pico/pico-sdk/src/rp2_common/hardware_uart/uart.c.obj
 .text.uart_set_break
                0x00000000       0x10 CMakeFiles/gif_screen_driver.dir/C_/VSARM/sdk/pico/pico-sdk/src/rp2_common/hardware_uart/uart.c.obj
 .text.uart_set_translate_crlf
                0x00000000       0x28 CMakeFiles/gif_screen_driver.dir/C_/VSARM/sdk/pico/pico-sdk/src/rp2_common/hardware_uart/uart.c.obj
 .text.uart_init
                0x00000000       0x80 CMakeFiles/gif_screen_driver.dir/C_/VSARM/sdk/pico/pico-sdk/src/rp2_common/hardware_uart/uart.c.obj
 .text.uart_is_readable_within_us
                0x00000000       0x20 CMakeFiles/gif_screen_driver.dir/C_/VSARM/sdk/pico/pico-sdk/src/rp2_common/hardware_uart/uart.c.obj
 .bss.uart_char_to_line_feed
                0x00000000        0x4 CMakeFiles/gif_screen_driver.dir/C_/VSARM/sdk/pico/pico-sdk/src/rp2_common/hardware_uart/uart.c.obj
 .debug_info    0x00000000      0xdd2 CMakeFiles/gif_screen_driver.dir/C_/VSARM/sdk/pico/pico-sdk/src/rp2_common/hardware_uart/uart.c.obj
 .debug_abbrev  0x00000000      0x31c CMakeFiles/gif_screen_driver.dir/C_/VSARM/sdk/pico/pico-sdk/src/rp2_common/hardware_uart/uart.c.obj
 .debug_loc     0x00000000      0x83b CMakeFiles/gif_screen_driver.dir/C_/VSARM/sdk/pico/pico-sdk/src/rp2_common/hardware_uart/uart.c.obj
 .debug_aranges
                0x00000000       0x68 CMakeFiles/gif_screen_driver.dir/C_/VSARM/sdk/pico/pico-sdk/src/rp2_common/hardware_uart/uart.c.obj
 .debug_ranges  0x00000000      0x130 CMakeFiles/gif_screen_driver.dir/C_/VSARM/sdk/pico/pico-sdk/src/rp2_common/hardware_uart/uart.c.obj
 .debug_line    0x00000000      0x8a0 CMakeFiles/gif_screen_driver.dir/C_/VSARM/sdk/pico/pico-sdk/src/rp2_common/hardware_uart/uart.c.obj
 .debug_str     0x00000000      0x63f CMakeFiles/gif_screen_driver.dir/C_/VSARM/sdk/pico/pico-sdk/src/rp2_common/hardware_uart/uart.c.obj
 .comment       0x00000000       0x4a CMakeFiles/gif_screen_driver.dir/C_/VSARM/sdk/pico/pico-sdk/src/rp2_common/hardware_uart/uart.c.obj
 .debug_frame   0x00000000       0xf8 CMakeFiles/gif_screen_driver.dir/C_/VSARM/sdk/pico/pico-sdk/src/rp2_common/hardware_uart/uart.c.obj
 .ARM.attributes
                0x00000000       0x2c CMakeFiles/gif_screen_driver.dir/C_/VSARM/sdk/pico/pico-sdk/src/rp2_common/hardware_uart/uart.c.obj
 .text          0x00000000        0x0 CMakeFiles/gif_screen_driver.dir/C_/VSARM/sdk/pico/pico-sdk/src/rp2_common/hardware_clocks/clocks.c.obj
 .data          0x00000000        0x0 CMakeFiles/gif_screen_driver.dir/C_/VSARM/sdk/pico/pico-sdk/src/rp2_common/hardware_clocks/clocks.c.obj
 .bss           0x00000000        0x0 CMakeFiles/gif_screen_driver.dir/C_/VSARM/sdk/pico/pico-sdk/src/rp2_common/hardware_clocks/clocks.c.obj
 .text.clock_stop
                0x00000000       0x2c CMakeFiles/gif_screen_driver.dir/C_/VSARM/sdk/pico/pico-sdk/src/rp2_common/hardware_clocks/clocks.c.obj
 .rodata.clocks_handle_resus.str1.4
                0x00000000       0x8b CMakeFiles/gif_screen_driver.dir/C_/VSARM/sdk/pico/pico-sdk/src/rp2_common/hardware_clocks/clocks.c.obj
 .text.clocks_handle_resus
                0x00000000       0x7c CMakeFiles/gif_screen_driver.dir/C_/VSARM/sdk/pico/pico-sdk/src/rp2_common/hardware_clocks/clocks.c.obj
 .rodata.clocks_irq_handler.str1.4
                0x00000000       0x17 CMakeFiles/gif_screen_driver.dir/C_/VSARM/sdk/pico/pico-sdk/src/rp2_common/hardware_clocks/clocks.c.obj
 .text.clocks_irq_handler
                0x00000000       0x2c CMakeFiles/gif_screen_driver.dir/C_/VSARM/sdk/pico/pico-sdk/src/rp2_common/hardware_clocks/clocks.c.obj
 .text.clock_set_reported_hz
                0x00000000        0xc CMakeFiles/gif_screen_driver.dir/C_/VSARM/sdk/pico/pico-sdk/src/rp2_common/hardware_clocks/clocks.c.obj
 .text.frequency_count_khz
                0x00000000       0x40 CMakeFiles/gif_screen_driver.dir/C_/VSARM/sdk/pico/pico-sdk/src/rp2_common/hardware_clocks/clocks.c.obj
 .text.clocks_enable_resus
                0x00000000       0x34 CMakeFiles/gif_screen_driver.dir/C_/VSARM/sdk/pico/pico-sdk/src/rp2_common/hardware_clocks/clocks.c.obj
 .text.clock_gpio_init_int_frac
                0x00000000       0x50 CMakeFiles/gif_screen_driver.dir/C_/VSARM/sdk/pico/pico-sdk/src/rp2_common/hardware_clocks/clocks.c.obj
 .text.clock_configure_gpin
                0x00000000       0x5c CMakeFiles/gif_screen_driver.dir/C_/VSARM/sdk/pico/pico-sdk/src/rp2_common/hardware_clocks/clocks.c.obj
 .bss._resus_callback
                0x00000000        0x4 CMakeFiles/gif_screen_driver.dir/C_/VSARM/sdk/pico/pico-sdk/src/rp2_common/hardware_clocks/clocks.c.obj
 .rodata.__func__.0
                0x00000000       0x14 CMakeFiles/gif_screen_driver.dir/C_/VSARM/sdk/pico/pico-sdk/src/rp2_common/hardware_clocks/clocks.c.obj
 .rodata.gpin0_src
                0x00000000        0xa CMakeFiles/gif_screen_driver.dir/C_/VSARM/sdk/pico/pico-sdk/src/rp2_common/hardware_clocks/clocks.c.obj
 .text          0x00000000        0x0 CMakeFiles/gif_screen_driver.dir/C_/VSARM/sdk/pico/pico-sdk/src/rp2_common/hardware_pll/pll.c.obj
 .data          0x00000000        0x0 CMakeFiles/gif_screen_driver.dir/C_/VSARM/sdk/pico/pico-sdk/src/rp2_common/hardware_pll/pll.c.obj
 .bss           0x00000000        0x0 CMakeFiles/gif_screen_driver.dir/C_/VSARM/sdk/pico/pico-sdk/src/rp2_common/hardware_pll/pll.c.obj
 .text.pll_deinit
                0x00000000        0x6 CMakeFiles/gif_screen_driver.dir/C_/VSARM/sdk/pico/pico-sdk/src/rp2_common/hardware_pll/pll.c.obj
 .text          0x00000000        0x0 CMakeFiles/gif_screen_driver.dir/C_/VSARM/sdk/pico/pico-sdk/src/rp2_common/hardware_vreg/vreg.c.obj
 .data          0x00000000        0x0 CMakeFiles/gif_screen_driver.dir/C_/VSARM/sdk/pico/pico-sdk/src/rp2_common/hardware_vreg/vreg.c.obj
 .bss           0x00000000        0x0 CMakeFiles/gif_screen_driver.dir/C_/VSARM/sdk/pico/pico-sdk/src/rp2_common/hardware_vreg/vreg.c.obj
 .text.vreg_set_voltage
                0x00000000       0x1c CMakeFiles/gif_screen_driver.dir/C_/VSARM/sdk/pico/pico-sdk/src/rp2_common/hardware_vreg/vreg.c.obj
 .debug_info    0x00000000      0x250 CMakeFiles/gif_screen_driver.dir/C_/VSARM/sdk/pico/pico-sdk/src/rp2_common/hardware_vreg/vreg.c.obj
 .debug_abbrev  0x00000000      0x11d CMakeFiles/gif_screen_driver.dir/C_/VSARM/sdk/pico/pico-sdk/src/rp2_common/hardware_vreg/vreg.c.obj
 .debug_loc     0x00000000       0x9a CMakeFiles/gif_screen_driver.dir/C_/VSARM/sdk/pico/pico-sdk/src/rp2_common/hardware_vreg/vreg.c.obj
 .debug_aranges
                0x00000000       0x20 CMakeFiles/gif_screen_driver.dir/C_/VSARM/sdk/pico/pico-sdk/src/rp2_common/hardware_vreg/vreg.c.obj
 .debug_ranges  0x00000000       0x10 CMakeFiles/gif_screen_driver.dir/C_/VSARM/sdk/pico/pico-sdk/src/rp2_common/hardware_vreg/vreg.c.obj
 .debug_line    0x00000000      0x293 CMakeFiles/gif_screen_driver.dir/C_/VSARM/sdk/pico/pico-sdk/src/rp2_common/hardware_vreg/vreg.c.obj
 .debug_str     0x00000000      0x359 CMakeFiles/gif_screen_driver.dir/C_/VSARM/sdk/pico/pico-sdk/src/rp2_common/hardware_vreg/vreg.c.obj
 .comment       0x00000000       0x4a CMakeFiles/gif_screen_driver.dir/C_/VSARM/sdk/pico/pico-sdk/src/rp2_common/hardware_vreg/vreg.c.obj
 .debug_frame   0x00000000       0x20 CMakeFiles/gif_screen_driver.dir/C_/VSARM/sdk/pico/pico-sdk/src/rp2_common/hardware_vreg/vreg.c.obj
 .ARM.attributes
                0x00000000       0x2c CMakeFiles/gif_screen_driver.dir/C_/VSARM/sdk/pico/pico-sdk/src/rp2_common/hardware_vreg/vreg.c.obj
 .text          0x00000000        0x0 CMakeFiles/gif_screen_driver.dir/C_/VSARM/sdk/pico/pico-sdk/src/rp2_common/hardware_watchdog/watchdog.c.obj
 .data          0x00000000        0x0 CMakeFiles/gif_screen_driver.dir/C_/VSARM/sdk/pico/pico-sdk/src/rp2_common/hardware_watchdog/watchdog.c.obj
 .bss           0x00000000        0x0 CMakeFiles/gif_screen_driver.dir/C_/VSARM/sdk/pico/pico-sdk/src/rp2_common/hardware_watchdog/watchdog.c.obj
 .text.watchdog_get_count
                0x00000000       0x10 CMakeFiles/gif_screen_driver.dir/C_/VSARM/sdk/pico/pico-sdk/src/rp2_common/hardware_watchdog/watchdog.c.obj
 .text.watchdog_enable
                0x00000000       0x18 CMakeFiles/gif_screen_driver.dir/C_/VSARM/sdk/pico/pico-sdk/src/rp2_common/hardware_watchdog/watchdog.c.obj
 .text.watchdog_caused_reboot
                0x00000000       0x10 CMakeFiles/gif_screen_driver.dir/C_/VSARM/sdk/pico/pico-sdk/src/rp2_common/hardware_watchdog/watchdog.c.obj
 .text.watchdog_enable_caused_reboot
                0x00000000       0x28 CMakeFiles/gif_screen_driver.dir/C_/VSARM/sdk/pico/pico-sdk/src/rp2_common/hardware_watchdog/watchdog.c.obj
 .text          0x00000000        0x0 CMakeFiles/gif_screen_driver.dir/C_/VSARM/sdk/pico/pico-sdk/src/rp2_common/hardware_xosc/xosc.c.obj
 .data          0x00000000        0x0 CMakeFiles/gif_screen_driver.dir/C_/VSARM/sdk/pico/pico-sdk/src/rp2_common/hardware_xosc/xosc.c.obj
 .bss           0x00000000        0x0 CMakeFiles/gif_screen_driver.dir/C_/VSARM/sdk/pico/pico-sdk/src/rp2_common/hardware_xosc/xosc.c.obj
 .text.xosc_disable
                0x00000000       0x24 CMakeFiles/gif_screen_driver.dir/C_/VSARM/sdk/pico/pico-sdk/src/rp2_common/hardware_xosc/xosc.c.obj
 .text.xosc_dormant
                0x00000000       0x18 CMakeFiles/gif_screen_driver.dir/C_/VSARM/sdk/pico/pico-sdk/src/rp2_common/hardware_xosc/xosc.c.obj
 .text          0x00000000        0x0 CMakeFiles/gif_screen_driver.dir/C_/VSARM/sdk/pico/pico-sdk/src/rp2_common/hardware_divider/divider.S.obj
 .data          0x00000000        0x0 CMakeFiles/gif_screen_driver.dir/C_/VSARM/sdk/pico/pico-sdk/src/rp2_common/hardware_divider/divider.S.obj
 .bss           0x00000000        0x0 CMakeFiles/gif_screen_driver.dir/C_/VSARM/sdk/pico/pico-sdk/src/rp2_common/hardware_divider/divider.S.obj
 .text.hw_divider_divmod_s32
                0x00000000        0xc CMakeFiles/gif_screen_driver.dir/C_/VSARM/sdk/pico/pico-sdk/src/rp2_common/hardware_divider/divider.S.obj
 .text.hw_divider_divmod_u32
                0x00000000        0xc CMakeFiles/gif_screen_driver.dir/C_/VSARM/sdk/pico/pico-sdk/src/rp2_common/hardware_divider/divider.S.obj
 .text.hw_divider_divmod_return
                0x00000000        0xc CMakeFiles/gif_screen_driver.dir/C_/VSARM/sdk/pico/pico-sdk/src/rp2_common/hardware_divider/divider.S.obj
 .text.hw_divider_save_state
                0x00000000       0x14 CMakeFiles/gif_screen_driver.dir/C_/VSARM/sdk/pico/pico-sdk/src/rp2_common/hardware_divider/divider.S.obj
 .text.hw_divider_restore_state
                0x00000000       0x14 CMakeFiles/gif_screen_driver.dir/C_/VSARM/sdk/pico/pico-sdk/src/rp2_common/hardware_divider/divider.S.obj
 .debug_line    0x00000000       0xcf CMakeFiles/gif_screen_driver.dir/C_/VSARM/sdk/pico/pico-sdk/src/rp2_common/hardware_divider/divider.S.obj
 .debug_info    0x00000000       0x22 CMakeFiles/gif_screen_driver.dir/C_/VSARM/sdk/pico/pico-sdk/src/rp2_common/hardware_divider/divider.S.obj
 .debug_abbrev  0x00000000       0x12 CMakeFiles/gif_screen_driver.dir/C_/VSARM/sdk/pico/pico-sdk/src/rp2_common/hardware_divider/divider.S.obj
 .debug_aranges
                0x00000000       0x40 CMakeFiles/gif_screen_driver.dir/C_/VSARM/sdk/pico/pico-sdk/src/rp2_common/hardware_divider/divider.S.obj
 .debug_str     0x00000000       0x9e CMakeFiles/gif_screen_driver.dir/C_/VSARM/sdk/pico/pico-sdk/src/rp2_common/hardware_divider/divider.S.obj
 .debug_ranges  0x00000000       0x38 CMakeFiles/gif_screen_driver.dir/C_/VSARM/sdk/pico/pico-sdk/src/rp2_common/hardware_divider/divider.S.obj
 .ARM.attributes
                0x00000000       0x22 CMakeFiles/gif_screen_driver.dir/C_/VSARM/sdk/pico/pico-sdk/src/rp2_common/hardware_divider/divider.S.obj
 .text          0x00000000        0x0 CMakeFiles/gif_screen_driver.dir/C_/VSARM/sdk/pico/pico-sdk/src/rp2_common/pico_runtime/runtime.c.obj
 .data          0x00000000        0x0 CMakeFiles/gif_screen_driver.dir/C_/VSARM/sdk/pico/pico-sdk/src/rp2_common/pico_runtime/runtime.c.obj
 .bss           0x00000000        0x0 CMakeFiles/gif_screen_driver.dir/C_/VSARM/sdk/pico/pico-sdk/src/rp2_common/pico_runtime/runtime.c.obj
 .text.runtime_install_stack_guard
                0x00000000       0x40 CMakeFiles/gif_screen_driver.dir/C_/VSARM/sdk/pico/pico-sdk/src/rp2_common/pico_runtime/runtime.c.obj
 .text._getpid  0x00000000        0x4 CMakeFiles/gif_screen_driver.dir/C_/VSARM/sdk/pico/pico-sdk/src/rp2_common/pico_runtime/runtime.c.obj
 .text._kill    0x00000000        0x6 CMakeFiles/gif_screen_driver.dir/C_/VSARM/sdk/pico/pico-sdk/src/rp2_common/pico_runtime/runtime.c.obj
 .rodata._gettimeofday.str1.4
                0x00000000       0x61 CMakeFiles/gif_screen_driver.dir/C_/VSARM/sdk/pico/pico-sdk/src/rp2_common/pico_runtime/runtime.c.obj
 .text._gettimeofday
                0x00000000       0x5c CMakeFiles/gif_screen_driver.dir/C_/VSARM/sdk/pico/pico-sdk/src/rp2_common/pico_runtime/runtime.c.obj
 .text._times   0x00000000       0x40 CMakeFiles/gif_screen_driver.dir/C_/VSARM/sdk/pico/pico-sdk/src/rp2_common/pico_runtime/runtime.c.obj
 .text.settimeofday
                0x00000000       0x70 CMakeFiles/gif_screen_driver.dir/C_/VSARM/sdk/pico/pico-sdk/src/rp2_common/pico_runtime/runtime.c.obj
 .rodata.panic_unsupported.str1.4
                0x00000000        0xe CMakeFiles/gif_screen_driver.dir/C_/VSARM/sdk/pico/pico-sdk/src/rp2_common/pico_runtime/runtime.c.obj
 .text.panic_unsupported
                0x00000000        0xc CMakeFiles/gif_screen_driver.dir/C_/VSARM/sdk/pico/pico-sdk/src/rp2_common/pico_runtime/runtime.c.obj
 .rodata.hard_assertion_failure.str1.4
                0x00000000        0xc CMakeFiles/gif_screen_driver.dir/C_/VSARM/sdk/pico/pico-sdk/src/rp2_common/pico_runtime/runtime.c.obj
 .text.hard_assertion_failure
                0x00000000        0xc CMakeFiles/gif_screen_driver.dir/C_/VSARM/sdk/pico/pico-sdk/src/rp2_common/pico_runtime/runtime.c.obj
 .bss.epoch_time_us_since_boot
                0x00000000        0x8 CMakeFiles/gif_screen_driver.dir/C_/VSARM/sdk/pico/pico-sdk/src/rp2_common/pico_runtime/runtime.c.obj
 .rodata.__func__.0
                0x00000000       0x15 CMakeFiles/gif_screen_driver.dir/C_/VSARM/sdk/pico/pico-sdk/src/rp2_common/pico_runtime/runtime.c.obj
 .text          0x00000000        0x0 CMakeFiles/gif_screen_driver.dir/C_/VSARM/sdk/pico/pico-sdk/src/rp2_common/pico_printf/printf.c.obj
 .data          0x00000000        0x0 CMakeFiles/gif_screen_driver.dir/C_/VSARM/sdk/pico/pico-sdk/src/rp2_common/pico_printf/printf.c.obj
 .bss           0x00000000        0x0 CMakeFiles/gif_screen_driver.dir/C_/VSARM/sdk/pico/pico-sdk/src/rp2_common/pico_printf/printf.c.obj
 .text.__wrap_sprintf
                0x00000000       0x28 CMakeFiles/gif_screen_driver.dir/C_/VSARM/sdk/pico/pico-sdk/src/rp2_common/pico_printf/printf.c.obj
 .text.__wrap_snprintf
                0x00000000       0x28 CMakeFiles/gif_screen_driver.dir/C_/VSARM/sdk/pico/pico-sdk/src/rp2_common/pico_printf/printf.c.obj
 .data          0x00000000        0x0 CMakeFiles/gif_screen_driver.dir/C_/VSARM/sdk/pico/pico-sdk/src/rp2_common/pico_bit_ops/bit_ops_aeabi.S.obj
 .bss           0x00000000        0x0 CMakeFiles/gif_screen_driver.dir/C_/VSARM/sdk/pico/pico-sdk/src/rp2_common/pico_bit_ops/bit_ops_aeabi.S.obj
 .text.clzsi    0x00000000        0xc CMakeFiles/gif_screen_driver.dir/C_/VSARM/sdk/pico/pico-sdk/src/rp2_common/pico_bit_ops/bit_ops_aeabi.S.obj
 .text.ctzsi    0x00000000        0xc CMakeFiles/gif_screen_driver.dir/C_/VSARM/sdk/pico/pico-sdk/src/rp2_common/pico_bit_ops/bit_ops_aeabi.S.obj
 .text.popcountsi
                0x00000000        0xc CMakeFiles/gif_screen_driver.dir/C_/VSARM/sdk/pico/pico-sdk/src/rp2_common/pico_bit_ops/bit_ops_aeabi.S.obj
 .text.clzdi    0x00000000       0x18 CMakeFiles/gif_screen_driver.dir/C_/VSARM/sdk/pico/pico-sdk/src/rp2_common/pico_bit_ops/bit_ops_aeabi.S.obj
 .text.ctzdi    0x00000000       0x18 CMakeFiles/gif_screen_driver.dir/C_/VSARM/sdk/pico/pico-sdk/src/rp2_common/pico_bit_ops/bit_ops_aeabi.S.obj
 .text.popcountdi
                0x00000000       0x18 CMakeFiles/gif_screen_driver.dir/C_/VSARM/sdk/pico/pico-sdk/src/rp2_common/pico_bit_ops/bit_ops_aeabi.S.obj
 .text.reverse32
                0x00000000        0xc CMakeFiles/gif_screen_driver.dir/C_/VSARM/sdk/pico/pico-sdk/src/rp2_common/pico_bit_ops/bit_ops_aeabi.S.obj
 .text.__rev    0x00000000        0xc CMakeFiles/gif_screen_driver.dir/C_/VSARM/sdk/pico/pico-sdk/src/rp2_common/pico_bit_ops/bit_ops_aeabi.S.obj
 .text.__revll  0x00000000       0x18 CMakeFiles/gif_screen_driver.dir/C_/VSARM/sdk/pico/pico-sdk/src/rp2_common/pico_bit_ops/bit_ops_aeabi.S.obj
 .text          0x00000000        0x0 CMakeFiles/gif_screen_driver.dir/C_/VSARM/sdk/pico/pico-sdk/src/rp2_common/pico_bootrom/bootrom.c.obj
 .data          0x00000000        0x0 CMakeFiles/gif_screen_driver.dir/C_/VSARM/sdk/pico/pico-sdk/src/rp2_common/pico_bootrom/bootrom.c.obj
 .bss           0x00000000        0x0 CMakeFiles/gif_screen_driver.dir/C_/VSARM/sdk/pico/pico-sdk/src/rp2_common/pico_bootrom/bootrom.c.obj
 .text          0x00000000        0x0 CMakeFiles/gif_screen_driver.dir/C_/VSARM/sdk/pico/pico-sdk/src/rp2_common/pico_divider/divider.S.obj
 .data          0x00000000        0x0 CMakeFiles/gif_screen_driver.dir/C_/VSARM/sdk/pico/pico-sdk/src/rp2_common/pico_divider/divider.S.obj
 .bss           0x00000000        0x0 CMakeFiles/gif_screen_driver.dir/C_/VSARM/sdk/pico/pico-sdk/src/rp2_common/pico_divider/divider.S.obj
 .text.divmod_s64s64_rem
                0x00000000        0xc CMakeFiles/gif_screen_driver.dir/C_/VSARM/sdk/pico/pico-sdk/src/rp2_common/pico_divider/divider.S.obj
 .text.divmod_u64u64_rem
                0x00000000        0xc CMakeFiles/gif_screen_driver.dir/C_/VSARM/sdk/pico/pico-sdk/src/rp2_common/pico_divider/divider.S.obj
 .text          0x00000000        0x0 CMakeFiles/gif_screen_driver.dir/C_/VSARM/sdk/pico/pico-sdk/src/rp2_common/pico_double/double_aeabi.S.obj
 .data          0x00000000        0x0 CMakeFiles/gif_screen_driver.dir/C_/VSARM/sdk/pico/pico-sdk/src/rp2_common/pico_double/double_aeabi.S.obj
 .bss           0x00000000        0x0 CMakeFiles/gif_screen_driver.dir/C_/VSARM/sdk/pico/pico-sdk/src/rp2_common/pico_double/double_aeabi.S.obj
 .text.push_r8_r11
                0x00000000        0xc CMakeFiles/gif_screen_driver.dir/C_/VSARM/sdk/pico/pico-sdk/src/rp2_common/pico_double/double_aeabi.S.obj
 .text.pop_r8_r11
                0x00000000        0xc CMakeFiles/gif_screen_driver.dir/C_/VSARM/sdk/pico/pico-sdk/src/rp2_common/pico_double/double_aeabi.S.obj
 .text.__wrap___aeabi_ui2d
                0x00000000       0x18 CMakeFiles/gif_screen_driver.dir/C_/VSARM/sdk/pico/pico-sdk/src/rp2_common/pico_double/double_aeabi.S.obj
 .text.double2int
                0x00000000       0x18 CMakeFiles/gif_screen_driver.dir/C_/VSARM/sdk/pico/pico-sdk/src/rp2_common/pico_double/double_aeabi.S.obj
 .text.fix2double
                0x00000000       0x18 CMakeFiles/gif_screen_driver.dir/C_/VSARM/sdk/pico/pico-sdk/src/rp2_common/pico_double/double_aeabi.S.obj
 .text.ufix2double
                0x00000000       0x28 CMakeFiles/gif_screen_driver.dir/C_/VSARM/sdk/pico/pico-sdk/src/rp2_common/pico_double/double_aeabi.S.obj
 .text.fix642double
                0x00000000       0x18 CMakeFiles/gif_screen_driver.dir/C_/VSARM/sdk/pico/pico-sdk/src/rp2_common/pico_double/double_aeabi.S.obj
 .text.__wrap___aeabi_l2d
                0x00000000       0x18 CMakeFiles/gif_screen_driver.dir/C_/VSARM/sdk/pico/pico-sdk/src/rp2_common/pico_double/double_aeabi.S.obj
 .text.__wrap___aeabi_ul2d
                0x00000000       0x18 CMakeFiles/gif_screen_driver.dir/C_/VSARM/sdk/pico/pico-sdk/src/rp2_common/pico_double/double_aeabi.S.obj
 .text.__wrap___aeabi_d2lz
                0x00000000       0x26 CMakeFiles/gif_screen_driver.dir/C_/VSARM/sdk/pico/pico-sdk/src/rp2_common/pico_double/double_aeabi.S.obj
 .text.double2int64
                0x00000000       0x18 CMakeFiles/gif_screen_driver.dir/C_/VSARM/sdk/pico/pico-sdk/src/rp2_common/pico_double/double_aeabi.S.obj
 .text.__wrap___aeabi_d2ulz
                0x00000000       0x18 CMakeFiles/gif_screen_driver.dir/C_/VSARM/sdk/pico/pico-sdk/src/rp2_common/pico_double/double_aeabi.S.obj
 .text.double2fix64
                0x00000000       0x18 CMakeFiles/gif_screen_driver.dir/C_/VSARM/sdk/pico/pico-sdk/src/rp2_common/pico_double/double_aeabi.S.obj
 .text.double2ufix64
                0x00000000       0x18 CMakeFiles/gif_screen_driver.dir/C_/VSARM/sdk/pico/pico-sdk/src/rp2_common/pico_double/double_aeabi.S.obj
 .text.double2fix
                0x00000000       0x18 CMakeFiles/gif_screen_driver.dir/C_/VSARM/sdk/pico/pico-sdk/src/rp2_common/pico_double/double_aeabi.S.obj
 .text.double2ufix
                0x00000000       0x18 CMakeFiles/gif_screen_driver.dir/C_/VSARM/sdk/pico/pico-sdk/src/rp2_common/pico_double/double_aeabi.S.obj
 .text.__wrap___aeabi_d2f
                0x00000000       0x18 CMakeFiles/gif_screen_driver.dir/C_/VSARM/sdk/pico/pico-sdk/src/rp2_common/pico_double/double_aeabi.S.obj
 .text.__wrap_srqt
                0x00000000       0x18 CMakeFiles/gif_screen_driver.dir/C_/VSARM/sdk/pico/pico-sdk/src/rp2_common/pico_double/double_aeabi.S.obj
 .text.__wrap_sincostan_remainder
                0x00000000       0x14 CMakeFiles/gif_screen_driver.dir/C_/VSARM/sdk/pico/pico-sdk/src/rp2_common/pico_double/double_aeabi.S.obj
 .text.__wrap_cos
                0x00000000       0x2c CMakeFiles/gif_screen_driver.dir/C_/VSARM/sdk/pico/pico-sdk/src/rp2_common/pico_double/double_aeabi.S.obj
 .text.__wrap_sin
                0x00000000       0x2c CMakeFiles/gif_screen_driver.dir/C_/VSARM/sdk/pico/pico-sdk/src/rp2_common/pico_double/double_aeabi.S.obj
 .text.__wrap_sincos
                0x00000000       0xa0 CMakeFiles/gif_screen_driver.dir/C_/VSARM/sdk/pico/pico-sdk/src/rp2_common/pico_double/double_aeabi.S.obj
 .text.__wrap_tan
                0x00000000       0x5c CMakeFiles/gif_screen_driver.dir/C_/VSARM/sdk/pico/pico-sdk/src/rp2_common/pico_double/double_aeabi.S.obj
 .text.__wrap_atan2
                0x00000000       0x18 CMakeFiles/gif_screen_driver.dir/C_/VSARM/sdk/pico/pico-sdk/src/rp2_common/pico_double/double_aeabi.S.obj
 .text          0x00000000        0x0 CMakeFiles/gif_screen_driver.dir/C_/VSARM/sdk/pico/pico-sdk/src/rp2_common/pico_double/double_init_rom.c.obj
 .data          0x00000000        0x0 CMakeFiles/gif_screen_driver.dir/C_/VSARM/sdk/pico/pico-sdk/src/rp2_common/pico_double/double_init_rom.c.obj
 .bss           0x00000000        0x0 CMakeFiles/gif_screen_driver.dir/C_/VSARM/sdk/pico/pico-sdk/src/rp2_common/pico_double/double_init_rom.c.obj
 .text          0x00000000        0x0 CMakeFiles/gif_screen_driver.dir/C_/VSARM/sdk/pico/pico-sdk/src/rp2_common/pico_double/double_math.c.obj
 .data          0x00000000        0x0 CMakeFiles/gif_screen_driver.dir/C_/VSARM/sdk/pico/pico-sdk/src/rp2_common/pico_double/double_math.c.obj
 .bss           0x00000000        0x0 CMakeFiles/gif_screen_driver.dir/C_/VSARM/sdk/pico/pico-sdk/src/rp2_common/pico_double/double_math.c.obj
 .text.drem_0   0x00000000      0x130 CMakeFiles/gif_screen_driver.dir/C_/VSARM/sdk/pico/pico-sdk/src/rp2_common/pico_double/double_math.c.obj
 .text.dpowint_0
                0x00000000      0x194 CMakeFiles/gif_screen_driver.dir/C_/VSARM/sdk/pico/pico-sdk/src/rp2_common/pico_double/double_math.c.obj
 .text.__wrap_copysign
                0x00000000       0x10 CMakeFiles/gif_screen_driver.dir/C_/VSARM/sdk/pico/pico-sdk/src/rp2_common/pico_double/double_math.c.obj
 .text.__wrap_trunc
                0x00000000       0x60 CMakeFiles/gif_screen_driver.dir/C_/VSARM/sdk/pico/pico-sdk/src/rp2_common/pico_double/double_math.c.obj
 .text.__wrap_floor
                0x00000000       0x9c CMakeFiles/gif_screen_driver.dir/C_/VSARM/sdk/pico/pico-sdk/src/rp2_common/pico_double/double_math.c.obj
 .text.__wrap_ceil
                0x00000000       0x9c CMakeFiles/gif_screen_driver.dir/C_/VSARM/sdk/pico/pico-sdk/src/rp2_common/pico_double/double_math.c.obj
 .text.__wrap_asin
                0x00000000       0x60 CMakeFiles/gif_screen_driver.dir/C_/VSARM/sdk/pico/pico-sdk/src/rp2_common/pico_double/double_math.c.obj
 .text.__wrap_acos
                0x00000000       0x5c CMakeFiles/gif_screen_driver.dir/C_/VSARM/sdk/pico/pico-sdk/src/rp2_common/pico_double/double_math.c.obj
 .text.__wrap_atan
                0x00000000       0x40 CMakeFiles/gif_screen_driver.dir/C_/VSARM/sdk/pico/pico-sdk/src/rp2_common/pico_double/double_math.c.obj
 .text.__wrap_sinh
                0x00000000       0x7c CMakeFiles/gif_screen_driver.dir/C_/VSARM/sdk/pico/pico-sdk/src/rp2_common/pico_double/double_math.c.obj
 .text.__wrap_cosh
                0x00000000       0x7c CMakeFiles/gif_screen_driver.dir/C_/VSARM/sdk/pico/pico-sdk/src/rp2_common/pico_double/double_math.c.obj
 .text.__wrap_tanh
                0x00000000       0x98 CMakeFiles/gif_screen_driver.dir/C_/VSARM/sdk/pico/pico-sdk/src/rp2_common/pico_double/double_math.c.obj
 .text.__wrap_asinh
                0x00000000       0xb8 CMakeFiles/gif_screen_driver.dir/C_/VSARM/sdk/pico/pico-sdk/src/rp2_common/pico_double/double_math.c.obj
 .text.__wrap_acosh
                0x00000000       0x78 CMakeFiles/gif_screen_driver.dir/C_/VSARM/sdk/pico/pico-sdk/src/rp2_common/pico_double/double_math.c.obj
 .text.__wrap_atanh
                0x00000000       0x84 CMakeFiles/gif_screen_driver.dir/C_/VSARM/sdk/pico/pico-sdk/src/rp2_common/pico_double/double_math.c.obj
 .text.__wrap_log2
                0x00000000       0x18 CMakeFiles/gif_screen_driver.dir/C_/VSARM/sdk/pico/pico-sdk/src/rp2_common/pico_double/double_math.c.obj
 .text.__wrap_exp10
                0x00000000       0x14 CMakeFiles/gif_screen_driver.dir/C_/VSARM/sdk/pico/pico-sdk/src/rp2_common/pico_double/double_math.c.obj
 .text.__wrap_log10
                0x00000000       0x18 CMakeFiles/gif_screen_driver.dir/C_/VSARM/sdk/pico/pico-sdk/src/rp2_common/pico_double/double_math.c.obj
 .text.__wrap_expm1
                0x00000000       0x14 CMakeFiles/gif_screen_driver.dir/C_/VSARM/sdk/pico/pico-sdk/src/rp2_common/pico_double/double_math.c.obj
 .text.__wrap_log1p
                0x00000000       0x14 CMakeFiles/gif_screen_driver.dir/C_/VSARM/sdk/pico/pico-sdk/src/rp2_common/pico_double/double_math.c.obj
 .text.__wrap_fma
                0x00000000       0x10 CMakeFiles/gif_screen_driver.dir/C_/VSARM/sdk/pico/pico-sdk/src/rp2_common/pico_double/double_math.c.obj
 .text.__wrap_powint
                0x00000000       0xbc CMakeFiles/gif_screen_driver.dir/C_/VSARM/sdk/pico/pico-sdk/src/rp2_common/pico_double/double_math.c.obj
 .text.__wrap_hypot
                0x00000000      0x238 CMakeFiles/gif_screen_driver.dir/C_/VSARM/sdk/pico/pico-sdk/src/rp2_common/pico_double/double_math.c.obj
 .text.__wrap_cbrt
                0x00000000       0xf0 CMakeFiles/gif_screen_driver.dir/C_/VSARM/sdk/pico/pico-sdk/src/rp2_common/pico_double/double_math.c.obj
 .text.__wrap_fmod
                0x00000000       0xa8 CMakeFiles/gif_screen_driver.dir/C_/VSARM/sdk/pico/pico-sdk/src/rp2_common/pico_double/double_math.c.obj
 .text.__wrap_remquo
                0x00000000      0x17c CMakeFiles/gif_screen_driver.dir/C_/VSARM/sdk/pico/pico-sdk/src/rp2_common/pico_double/double_math.c.obj
 .text.__wrap_drem
                0x00000000       0x10 CMakeFiles/gif_screen_driver.dir/C_/VSARM/sdk/pico/pico-sdk/src/rp2_common/pico_double/double_math.c.obj
 .text.__wrap_remainder
                0x00000000       0x10 CMakeFiles/gif_screen_driver.dir/C_/VSARM/sdk/pico/pico-sdk/src/rp2_common/pico_double/double_math.c.obj
 .text          0x00000000        0x0 CMakeFiles/gif_screen_driver.dir/C_/VSARM/sdk/pico/pico-sdk/src/rp2_common/pico_double/double_v1_rom_shim.S.obj
 .data          0x00000000        0x0 CMakeFiles/gif_screen_driver.dir/C_/VSARM/sdk/pico/pico-sdk/src/rp2_common/pico_double/double_v1_rom_shim.S.obj
 .bss           0x00000000        0x0 CMakeFiles/gif_screen_driver.dir/C_/VSARM/sdk/pico/pico-sdk/src/rp2_common/pico_double/double_v1_rom_shim.S.obj
 .text.dsqrt_shim
                0x00000000      0x1a8 CMakeFiles/gif_screen_driver.dir/C_/VSARM/sdk/pico/pico-sdk/src/rp2_common/pico_double/double_v1_rom_shim.S.obj
 .text.dcordic_vec_step
                0x00000000        0xe CMakeFiles/gif_screen_driver.dir/C_/VSARM/sdk/pico/pico-sdk/src/rp2_common/pico_double/double_v1_rom_shim.S.obj
 .text.dcordic_rot_step
                0x00000000       0x76 CMakeFiles/gif_screen_driver.dir/C_/VSARM/sdk/pico/pico-sdk/src/rp2_common/pico_double/double_v1_rom_shim.S.obj
 .text.double2int_shim
                0x00000000        0xe CMakeFiles/gif_screen_driver.dir/C_/VSARM/sdk/pico/pico-sdk/src/rp2_common/pico_double/double_v1_rom_shim.S.obj
 .text.double2int64_shim
                0x00000000       0x1a CMakeFiles/gif_screen_driver.dir/C_/VSARM/sdk/pico/pico-sdk/src/rp2_common/pico_double/double_v1_rom_shim.S.obj
 .text.double2float_shim
                0x00000000       0x5c CMakeFiles/gif_screen_driver.dir/C_/VSARM/sdk/pico/pico-sdk/src/rp2_common/pico_double/double_v1_rom_shim.S.obj
 .text.dtan_shim
                0x00000000       0x20 CMakeFiles/gif_screen_driver.dir/C_/VSARM/sdk/pico/pico-sdk/src/rp2_common/pico_double/double_v1_rom_shim.S.obj
 .text.dcos_shim
                0x00000000       0x10 CMakeFiles/gif_screen_driver.dir/C_/VSARM/sdk/pico/pico-sdk/src/rp2_common/pico_double/double_v1_rom_shim.S.obj
 .text.dsin_shim
                0x00000000       0x14 CMakeFiles/gif_screen_driver.dir/C_/VSARM/sdk/pico/pico-sdk/src/rp2_common/pico_double/double_v1_rom_shim.S.obj
 .text.dsincos_shim
                0x00000000       0x20 CMakeFiles/gif_screen_driver.dir/C_/VSARM/sdk/pico/pico-sdk/src/rp2_common/pico_double/double_v1_rom_shim.S.obj
 .text.dtrig_guts
                0x00000000      0x2ec CMakeFiles/gif_screen_driver.dir/C_/VSARM/sdk/pico/pico-sdk/src/rp2_common/pico_double/double_v1_rom_shim.S.obj
 .text          0x00000000        0x0 CMakeFiles/gif_screen_driver.dir/C_/VSARM/sdk/pico/pico-sdk/src/rp2_common/pico_int64_ops/pico_int64_ops_aeabi.S.obj
 .data          0x00000000        0x0 CMakeFiles/gif_screen_driver.dir/C_/VSARM/sdk/pico/pico-sdk/src/rp2_common/pico_int64_ops/pico_int64_ops_aeabi.S.obj
 .bss           0x00000000        0x0 CMakeFiles/gif_screen_driver.dir/C_/VSARM/sdk/pico/pico-sdk/src/rp2_common/pico_int64_ops/pico_int64_ops_aeabi.S.obj
 .text          0x00000000        0x0 CMakeFiles/gif_screen_driver.dir/C_/VSARM/sdk/pico/pico-sdk/src/rp2_common/pico_float/float_aeabi.S.obj
 .data          0x00000000        0x0 CMakeFiles/gif_screen_driver.dir/C_/VSARM/sdk/pico/pico-sdk/src/rp2_common/pico_float/float_aeabi.S.obj
 .bss           0x00000000        0x0 CMakeFiles/gif_screen_driver.dir/C_/VSARM/sdk/pico/pico-sdk/src/rp2_common/pico_float/float_aeabi.S.obj
 .text.__wrap___aeabi_cfcmple
                0x00000000       0x50 CMakeFiles/gif_screen_driver.dir/C_/VSARM/sdk/pico/pico-sdk/src/rp2_common/pico_float/float_aeabi.S.obj
 .text.__wrap___aeabi_fcmpeq
                0x00000000       0x10 CMakeFiles/gif_screen_driver.dir/C_/VSARM/sdk/pico/pico-sdk/src/rp2_common/pico_float/float_aeabi.S.obj
 .text.__wrap___aeabi_fcmplt
                0x00000000        0xc CMakeFiles/gif_screen_driver.dir/C_/VSARM/sdk/pico/pico-sdk/src/rp2_common/pico_float/float_aeabi.S.obj
 .text.__wrap___aeabi_fcmple
                0x00000000       0x10 CMakeFiles/gif_screen_driver.dir/C_/VSARM/sdk/pico/pico-sdk/src/rp2_common/pico_float/float_aeabi.S.obj
 .text.__wrap___aeabi_fcmpge
                0x00000000       0x10 CMakeFiles/gif_screen_driver.dir/C_/VSARM/sdk/pico/pico-sdk/src/rp2_common/pico_float/float_aeabi.S.obj
 .text.__wrap___aeabi_fcmpgt
                0x00000000        0xa CMakeFiles/gif_screen_driver.dir/C_/VSARM/sdk/pico/pico-sdk/src/rp2_common/pico_float/float_aeabi.S.obj
 .text.__wrap___aeabi_fcmpun
                0x00000000       0x18 CMakeFiles/gif_screen_driver.dir/C_/VSARM/sdk/pico/pico-sdk/src/rp2_common/pico_float/float_aeabi.S.obj
 .text.__wrap___aeabi_f2iz
                0x00000000       0x4e CMakeFiles/gif_screen_driver.dir/C_/VSARM/sdk/pico/pico-sdk/src/rp2_common/pico_float/float_aeabi.S.obj
 .text.float2int
                0x00000000       0x14 CMakeFiles/gif_screen_driver.dir/C_/VSARM/sdk/pico/pico-sdk/src/rp2_common/pico_float/float_aeabi.S.obj
 .text.float2fix
                0x00000000       0x14 CMakeFiles/gif_screen_driver.dir/C_/VSARM/sdk/pico/pico-sdk/src/rp2_common/pico_float/float_aeabi.S.obj
 .text.float2ufix
                0x00000000       0x10 CMakeFiles/gif_screen_driver.dir/C_/VSARM/sdk/pico/pico-sdk/src/rp2_common/pico_float/float_aeabi.S.obj
 .text.__wrap___aeabi_f2uiz
                0x00000000       0x10 CMakeFiles/gif_screen_driver.dir/C_/VSARM/sdk/pico/pico-sdk/src/rp2_common/pico_float/float_aeabi.S.obj
 .text.fix2float
                0x00000000       0x10 CMakeFiles/gif_screen_driver.dir/C_/VSARM/sdk/pico/pico-sdk/src/rp2_common/pico_float/float_aeabi.S.obj
 .text.ufix2float
                0x00000000       0x10 CMakeFiles/gif_screen_driver.dir/C_/VSARM/sdk/pico/pico-sdk/src/rp2_common/pico_float/float_aeabi.S.obj
 .text.fix642float
                0x00000000       0x14 CMakeFiles/gif_screen_driver.dir/C_/VSARM/sdk/pico/pico-sdk/src/rp2_common/pico_float/float_aeabi.S.obj
 .text.ufix642float
                0x00000000       0x14 CMakeFiles/gif_screen_driver.dir/C_/VSARM/sdk/pico/pico-sdk/src/rp2_common/pico_float/float_aeabi.S.obj
 .text.__wrap___aeabi_l2f
                0x00000000       0x20 CMakeFiles/gif_screen_driver.dir/C_/VSARM/sdk/pico/pico-sdk/src/rp2_common/pico_float/float_aeabi.S.obj
 .text.__wrap___aeabi_ul2f
                0x00000000       0x20 CMakeFiles/gif_screen_driver.dir/C_/VSARM/sdk/pico/pico-sdk/src/rp2_common/pico_float/float_aeabi.S.obj
 .text.__wrap___aeabi_f2lz
                0x00000000       0x26 CMakeFiles/gif_screen_driver.dir/C_/VSARM/sdk/pico/pico-sdk/src/rp2_common/pico_float/float_aeabi.S.obj
 .text.float2int64
                0x00000000       0x14 CMakeFiles/gif_screen_driver.dir/C_/VSARM/sdk/pico/pico-sdk/src/rp2_common/pico_float/float_aeabi.S.obj
 .text.float2fix64
                0x00000000       0x14 CMakeFiles/gif_screen_driver.dir/C_/VSARM/sdk/pico/pico-sdk/src/rp2_common/pico_float/float_aeabi.S.obj
 .text.__wrap___aeabi_f2ulz
                0x00000000       0x14 CMakeFiles/gif_screen_driver.dir/C_/VSARM/sdk/pico/pico-sdk/src/rp2_common/pico_float/float_aeabi.S.obj
 .text.float2ufix64
                0x00000000       0x14 CMakeFiles/gif_screen_driver.dir/C_/VSARM/sdk/pico/pico-sdk/src/rp2_common/pico_float/float_aeabi.S.obj
 .text.__wrap_sqrtf
                0x00000000       0x24 CMakeFiles/gif_screen_driver.dir/C_/VSARM/sdk/pico/pico-sdk/src/rp2_common/pico_float/float_aeabi.S.obj
 .text.__wrap_cosf
                0x00000000       0x28 CMakeFiles/gif_screen_driver.dir/C_/VSARM/sdk/pico/pico-sdk/src/rp2_common/pico_float/float_aeabi.S.obj
 .text.__wrap_sinf
                0x00000000       0x28 CMakeFiles/gif_screen_driver.dir/C_/VSARM/sdk/pico/pico-sdk/src/rp2_common/pico_float/float_aeabi.S.obj
 .text.__wrap_sincosf
                0x00000000       0x30 CMakeFiles/gif_screen_driver.dir/C_/VSARM/sdk/pico/pico-sdk/src/rp2_common/pico_float/float_aeabi.S.obj
 .text.__wrap_tanf
                0x00000000       0x50 CMakeFiles/gif_screen_driver.dir/C_/VSARM/sdk/pico/pico-sdk/src/rp2_common/pico_float/float_aeabi.S.obj
 .text.__wrap_atan2f
                0x00000000       0x14 CMakeFiles/gif_screen_driver.dir/C_/VSARM/sdk/pico/pico-sdk/src/rp2_common/pico_float/float_aeabi.S.obj
 .text.__wrap_expf
                0x00000000       0x10 CMakeFiles/gif_screen_driver.dir/C_/VSARM/sdk/pico/pico-sdk/src/rp2_common/pico_float/float_aeabi.S.obj
 .text.__wrap_logf
                0x00000000       0x10 CMakeFiles/gif_screen_driver.dir/C_/VSARM/sdk/pico/pico-sdk/src/rp2_common/pico_float/float_aeabi.S.obj
 .text          0x00000000        0x0 CMakeFiles/gif_screen_driver.dir/C_/VSARM/sdk/pico/pico-sdk/src/rp2_common/pico_float/float_init_rom.c.obj
 .data          0x00000000        0x0 CMakeFiles/gif_screen_driver.dir/C_/VSARM/sdk/pico/pico-sdk/src/rp2_common/pico_float/float_init_rom.c.obj
 .bss           0x00000000        0x0 CMakeFiles/gif_screen_driver.dir/C_/VSARM/sdk/pico/pico-sdk/src/rp2_common/pico_float/float_init_rom.c.obj
 .bss.sf_clz_func
                0x00000000        0x4 CMakeFiles/gif_screen_driver.dir/C_/VSARM/sdk/pico/pico-sdk/src/rp2_common/pico_float/float_init_rom.c.obj
 .text          0x00000000        0x0 CMakeFiles/gif_screen_driver.dir/C_/VSARM/sdk/pico/pico-sdk/src/rp2_common/pico_float/float_math.c.obj
 .data          0x00000000        0x0 CMakeFiles/gif_screen_driver.dir/C_/VSARM/sdk/pico/pico-sdk/src/rp2_common/pico_float/float_math.c.obj
 .bss           0x00000000        0x0 CMakeFiles/gif_screen_driver.dir/C_/VSARM/sdk/pico/pico-sdk/src/rp2_common/pico_float/float_math.c.obj
 .text.fpow_int2
                0x00000000       0x26 CMakeFiles/gif_screen_driver.dir/C_/VSARM/sdk/pico/pico-sdk/src/rp2_common/pico_float/float_math.c.obj
 .text.frem_0   0x00000000       0x80 CMakeFiles/gif_screen_driver.dir/C_/VSARM/sdk/pico/pico-sdk/src/rp2_common/pico_float/float_math.c.obj
 .text.fpow_0   0x00000000      0x140 CMakeFiles/gif_screen_driver.dir/C_/VSARM/sdk/pico/pico-sdk/src/rp2_common/pico_float/float_math.c.obj
 .text.fpowint_0
                0x00000000      0x12c CMakeFiles/gif_screen_driver.dir/C_/VSARM/sdk/pico/pico-sdk/src/rp2_common/pico_float/float_math.c.obj
 .text.__wrap_ldexpf
                0x00000000       0x34 CMakeFiles/gif_screen_driver.dir/C_/VSARM/sdk/pico/pico-sdk/src/rp2_common/pico_float/float_math.c.obj
 .text.__wrap_copysignf
                0x00000000        0xc CMakeFiles/gif_screen_driver.dir/C_/VSARM/sdk/pico/pico-sdk/src/rp2_common/pico_float/float_math.c.obj
 .text.__wrap_truncf
                0x00000000       0x22 CMakeFiles/gif_screen_driver.dir/C_/VSARM/sdk/pico/pico-sdk/src/rp2_common/pico_float/float_math.c.obj
 .text.__wrap_roundf
                0x00000000       0x3e CMakeFiles/gif_screen_driver.dir/C_/VSARM/sdk/pico/pico-sdk/src/rp2_common/pico_float/float_math.c.obj
 .text.__wrap_floorf
                0x00000000       0x44 CMakeFiles/gif_screen_driver.dir/C_/VSARM/sdk/pico/pico-sdk/src/rp2_common/pico_float/float_math.c.obj
 .text.__wrap_ceilf
                0x00000000       0x44 CMakeFiles/gif_screen_driver.dir/C_/VSARM/sdk/pico/pico-sdk/src/rp2_common/pico_float/float_math.c.obj
 .text.__wrap_asinf
                0x00000000       0x42 CMakeFiles/gif_screen_driver.dir/C_/VSARM/sdk/pico/pico-sdk/src/rp2_common/pico_float/float_math.c.obj
 .text.__wrap_acosf
                0x00000000       0x40 CMakeFiles/gif_screen_driver.dir/C_/VSARM/sdk/pico/pico-sdk/src/rp2_common/pico_float/float_math.c.obj
 .text.__wrap_atanf
                0x00000000       0x2c CMakeFiles/gif_screen_driver.dir/C_/VSARM/sdk/pico/pico-sdk/src/rp2_common/pico_float/float_math.c.obj
 .text.__wrap_sinhf
                0x00000000       0x54 CMakeFiles/gif_screen_driver.dir/C_/VSARM/sdk/pico/pico-sdk/src/rp2_common/pico_float/float_math.c.obj
 .text.__wrap_coshf
                0x00000000       0x54 CMakeFiles/gif_screen_driver.dir/C_/VSARM/sdk/pico/pico-sdk/src/rp2_common/pico_float/float_math.c.obj
 .text.__wrap_tanhf
                0x00000000       0x6c CMakeFiles/gif_screen_driver.dir/C_/VSARM/sdk/pico/pico-sdk/src/rp2_common/pico_float/float_math.c.obj
 .text.__wrap_asinhf
                0x00000000       0xb8 CMakeFiles/gif_screen_driver.dir/C_/VSARM/sdk/pico/pico-sdk/src/rp2_common/pico_float/float_math.c.obj
 .text.__wrap_acoshf
                0x00000000       0x74 CMakeFiles/gif_screen_driver.dir/C_/VSARM/sdk/pico/pico-sdk/src/rp2_common/pico_float/float_math.c.obj
 .text.__wrap_atanhf
                0x00000000       0x5c CMakeFiles/gif_screen_driver.dir/C_/VSARM/sdk/pico/pico-sdk/src/rp2_common/pico_float/float_math.c.obj
 .text.__wrap_exp2f
                0x00000000       0x20 CMakeFiles/gif_screen_driver.dir/C_/VSARM/sdk/pico/pico-sdk/src/rp2_common/pico_float/float_math.c.obj
 .text.__wrap_log2f
                0x00000000       0x14 CMakeFiles/gif_screen_driver.dir/C_/VSARM/sdk/pico/pico-sdk/src/rp2_common/pico_float/float_math.c.obj
 .text.__wrap_exp10f
                0x00000000       0x20 CMakeFiles/gif_screen_driver.dir/C_/VSARM/sdk/pico/pico-sdk/src/rp2_common/pico_float/float_math.c.obj
 .text.__wrap_log10f
                0x00000000       0x14 CMakeFiles/gif_screen_driver.dir/C_/VSARM/sdk/pico/pico-sdk/src/rp2_common/pico_float/float_math.c.obj
 .text.__wrap_expm1f
                0x00000000       0x1c CMakeFiles/gif_screen_driver.dir/C_/VSARM/sdk/pico/pico-sdk/src/rp2_common/pico_float/float_math.c.obj
 .text.__wrap_log1pf
                0x00000000       0x1c CMakeFiles/gif_screen_driver.dir/C_/VSARM/sdk/pico/pico-sdk/src/rp2_common/pico_float/float_math.c.obj
 .text.__wrap_fmaf
                0x00000000       0x3c CMakeFiles/gif_screen_driver.dir/C_/VSARM/sdk/pico/pico-sdk/src/rp2_common/pico_float/float_math.c.obj
 .text.__wrap_powintf
                0x00000000       0xa0 CMakeFiles/gif_screen_driver.dir/C_/VSARM/sdk/pico/pico-sdk/src/rp2_common/pico_float/float_math.c.obj
 .text.__wrap_powf
                0x00000000      0x20c CMakeFiles/gif_screen_driver.dir/C_/VSARM/sdk/pico/pico-sdk/src/rp2_common/pico_float/float_math.c.obj
 .text.__wrap_hypotf
                0x00000000      0x18a CMakeFiles/gif_screen_driver.dir/C_/VSARM/sdk/pico/pico-sdk/src/rp2_common/pico_float/float_math.c.obj
 .text.__wrap_cbrtf
                0x00000000       0xc4 CMakeFiles/gif_screen_driver.dir/C_/VSARM/sdk/pico/pico-sdk/src/rp2_common/pico_float/float_math.c.obj
 .text.__wrap_fmodf
                0x00000000       0x62 CMakeFiles/gif_screen_driver.dir/C_/VSARM/sdk/pico/pico-sdk/src/rp2_common/pico_float/float_math.c.obj
 .text.__wrap_remquof
                0x00000000       0xda CMakeFiles/gif_screen_driver.dir/C_/VSARM/sdk/pico/pico-sdk/src/rp2_common/pico_float/float_math.c.obj
 .text.__wrap_dremf
                0x00000000        0xa CMakeFiles/gif_screen_driver.dir/C_/VSARM/sdk/pico/pico-sdk/src/rp2_common/pico_float/float_math.c.obj
 .text.__wrap_remainderf
                0x00000000        0xa CMakeFiles/gif_screen_driver.dir/C_/VSARM/sdk/pico/pico-sdk/src/rp2_common/pico_float/float_math.c.obj
 .debug_info    0x00000000     0x5031 CMakeFiles/gif_screen_driver.dir/C_/VSARM/sdk/pico/pico-sdk/src/rp2_common/pico_float/float_math.c.obj
 .debug_abbrev  0x00000000      0x2bb CMakeFiles/gif_screen_driver.dir/C_/VSARM/sdk/pico/pico-sdk/src/rp2_common/pico_float/float_math.c.obj
 .debug_loc     0x00000000     0x6167 CMakeFiles/gif_screen_driver.dir/C_/VSARM/sdk/pico/pico-sdk/src/rp2_common/pico_float/float_math.c.obj
 .debug_aranges
                0x00000000      0x128 CMakeFiles/gif_screen_driver.dir/C_/VSARM/sdk/pico/pico-sdk/src/rp2_common/pico_float/float_math.c.obj
 .debug_ranges  0x00000000      0x568 CMakeFiles/gif_screen_driver.dir/C_/VSARM/sdk/pico/pico-sdk/src/rp2_common/pico_float/float_math.c.obj
 .debug_line    0x00000000     0x27a3 CMakeFiles/gif_screen_driver.dir/C_/VSARM/sdk/pico/pico-sdk/src/rp2_common/pico_float/float_math.c.obj
 .debug_str     0x00000000      0x54e CMakeFiles/gif_screen_driver.dir/C_/VSARM/sdk/pico/pico-sdk/src/rp2_common/pico_float/float_math.c.obj
 .comment       0x00000000       0x4a CMakeFiles/gif_screen_driver.dir/C_/VSARM/sdk/pico/pico-sdk/src/rp2_common/pico_float/float_math.c.obj
 .debug_frame   0x00000000      0x3a4 CMakeFiles/gif_screen_driver.dir/C_/VSARM/sdk/pico/pico-sdk/src/rp2_common/pico_float/float_math.c.obj
 .ARM.attributes
                0x00000000       0x2c CMakeFiles/gif_screen_driver.dir/C_/VSARM/sdk/pico/pico-sdk/src/rp2_common/pico_float/float_math.c.obj
 .text          0x00000000        0x0 CMakeFiles/gif_screen_driver.dir/C_/VSARM/sdk/pico/pico-sdk/src/rp2_common/pico_float/float_v1_rom_shim.S.obj
 .data          0x00000000        0x0 CMakeFiles/gif_screen_driver.dir/C_/VSARM/sdk/pico/pico-sdk/src/rp2_common/pico_float/float_v1_rom_shim.S.obj
 .bss           0x00000000        0x0 CMakeFiles/gif_screen_driver.dir/C_/VSARM/sdk/pico/pico-sdk/src/rp2_common/pico_float/float_v1_rom_shim.S.obj
 .text.642float_shims
                0x00000000       0x44 CMakeFiles/gif_screen_driver.dir/C_/VSARM/sdk/pico/pico-sdk/src/rp2_common/pico_float/float_v1_rom_shim.S.obj
 .text.fatan2_shim
                0x00000000       0x88 CMakeFiles/gif_screen_driver.dir/C_/VSARM/sdk/pico/pico-sdk/src/rp2_common/pico_float/float_v1_rom_shim.S.obj
 .text.float232_shims
                0x00000000       0x18 CMakeFiles/gif_screen_driver.dir/C_/VSARM/sdk/pico/pico-sdk/src/rp2_common/pico_float/float_v1_rom_shim.S.obj
 .text.float264_shims
                0x00000000       0x4c CMakeFiles/gif_screen_driver.dir/C_/VSARM/sdk/pico/pico-sdk/src/rp2_common/pico_float/float_v1_rom_shim.S.obj
 .text.d2fix_a_float
                0x00000000       0x5c CMakeFiles/gif_screen_driver.dir/C_/VSARM/sdk/pico/pico-sdk/src/rp2_common/pico_float/float_v1_rom_shim.S.obj
 .text          0x00000000        0x0 CMakeFiles/gif_screen_driver.dir/C_/VSARM/sdk/pico/pico-sdk/src/rp2_common/pico_malloc/pico_malloc.c.obj
 .data          0x00000000        0x0 CMakeFiles/gif_screen_driver.dir/C_/VSARM/sdk/pico/pico-sdk/src/rp2_common/pico_malloc/pico_malloc.c.obj
 .bss           0x00000000        0x0 CMakeFiles/gif_screen_driver.dir/C_/VSARM/sdk/pico/pico-sdk/src/rp2_common/pico_malloc/pico_malloc.c.obj
 .data          0x00000000        0x0 CMakeFiles/gif_screen_driver.dir/C_/VSARM/sdk/pico/pico-sdk/src/rp2_common/pico_mem_ops/mem_ops_aeabi.S.obj
 .bss           0x00000000        0x0 CMakeFiles/gif_screen_driver.dir/C_/VSARM/sdk/pico/pico-sdk/src/rp2_common/pico_mem_ops/mem_ops_aeabi.S.obj
 .text.aeabi_memset_memcpy
                0x00000000       0x24 CMakeFiles/gif_screen_driver.dir/C_/VSARM/sdk/pico/pico-sdk/src/rp2_common/pico_mem_ops/mem_ops_aeabi.S.obj
 .text          0x00000000        0x0 CMakeFiles/gif_screen_driver.dir/C_/VSARM/sdk/pico/pico-sdk/src/rp2_common/pico_standard_link/crt0.S.obj
 .data          0x00000000        0x0 CMakeFiles/gif_screen_driver.dir/C_/VSARM/sdk/pico/pico-sdk/src/rp2_common/pico_standard_link/crt0.S.obj
 .bss           0x00000000        0x0 CMakeFiles/gif_screen_driver.dir/C_/VSARM/sdk/pico/pico-sdk/src/rp2_common/pico_standard_link/crt0.S.obj
 .text          0x00000000        0x0 CMakeFiles/gif_screen_driver.dir/C_/VSARM/sdk/pico/pico-sdk/src/rp2_common/pico_standard_link/new_delete.cpp.obj
 .data          0x00000000        0x0 CMakeFiles/gif_screen_driver.dir/C_/VSARM/sdk/pico/pico-sdk/src/rp2_common/pico_standard_link/new_delete.cpp.obj
 .bss           0x00000000        0x0 CMakeFiles/gif_screen_driver.dir/C_/VSARM/sdk/pico/pico-sdk/src/rp2_common/pico_standard_link/new_delete.cpp.obj
 .text._Znwj    0x00000000        0x8 CMakeFiles/gif_screen_driver.dir/C_/VSARM/sdk/pico/pico-sdk/src/rp2_common/pico_standard_link/new_delete.cpp.obj
 .text._Znaj    0x00000000        0x8 CMakeFiles/gif_screen_driver.dir/C_/VSARM/sdk/pico/pico-sdk/src/rp2_common/pico_standard_link/new_delete.cpp.obj
 .text._ZdlPv   0x00000000        0x8 CMakeFiles/gif_screen_driver.dir/C_/VSARM/sdk/pico/pico-sdk/src/rp2_common/pico_standard_link/new_delete.cpp.obj
 .text._ZdaPv   0x00000000        0x8 CMakeFiles/gif_screen_driver.dir/C_/VSARM/sdk/pico/pico-sdk/src/rp2_common/pico_standard_link/new_delete.cpp.obj
 .text._ZdlPvj  0x00000000        0x8 CMakeFiles/gif_screen_driver.dir/C_/VSARM/sdk/pico/pico-sdk/src/rp2_common/pico_standard_link/new_delete.cpp.obj
 .text._ZdaPvj  0x00000000        0x8 CMakeFiles/gif_screen_driver.dir/C_/VSARM/sdk/pico/pico-sdk/src/rp2_common/pico_standard_link/new_delete.cpp.obj
 .debug_info    0x00000000      0x7a0 CMakeFiles/gif_screen_driver.dir/C_/VSARM/sdk/pico/pico-sdk/src/rp2_common/pico_standard_link/new_delete.cpp.obj
 .debug_abbrev  0x00000000      0x1eb CMakeFiles/gif_screen_driver.dir/C_/VSARM/sdk/pico/pico-sdk/src/rp2_common/pico_standard_link/new_delete.cpp.obj
 .debug_loc     0x00000000      0x128 CMakeFiles/gif_screen_driver.dir/C_/VSARM/sdk/pico/pico-sdk/src/rp2_common/pico_standard_link/new_delete.cpp.obj
 .debug_aranges
                0x00000000       0x48 CMakeFiles/gif_screen_driver.dir/C_/VSARM/sdk/pico/pico-sdk/src/rp2_common/pico_standard_link/new_delete.cpp.obj
 .debug_ranges  0x00000000       0x38 CMakeFiles/gif_screen_driver.dir/C_/VSARM/sdk/pico/pico-sdk/src/rp2_common/pico_standard_link/new_delete.cpp.obj
 .debug_line    0x00000000      0x26c CMakeFiles/gif_screen_driver.dir/C_/VSARM/sdk/pico/pico-sdk/src/rp2_common/pico_standard_link/new_delete.cpp.obj
 .debug_str     0x00000000      0x3bb CMakeFiles/gif_screen_driver.dir/C_/VSARM/sdk/pico/pico-sdk/src/rp2_common/pico_standard_link/new_delete.cpp.obj
 .comment       0x00000000       0x4a CMakeFiles/gif_screen_driver.dir/C_/VSARM/sdk/pico/pico-sdk/src/rp2_common/pico_standard_link/new_delete.cpp.obj
 .debug_frame   0x00000000       0xa0 CMakeFiles/gif_screen_driver.dir/C_/VSARM/sdk/pico/pico-sdk/src/rp2_common/pico_standard_link/new_delete.cpp.obj
 .ARM.attributes
                0x00000000       0x2c CMakeFiles/gif_screen_driver.dir/C_/VSARM/sdk/pico/pico-sdk/src/rp2_common/pico_standard_link/new_delete.cpp.obj
 .text          0x00000000        0x0 CMakeFiles/gif_screen_driver.dir/C_/VSARM/sdk/pico/pico-sdk/src/rp2_common/pico_standard_link/binary_info.c.obj
 .data          0x00000000        0x0 CMakeFiles/gif_screen_driver.dir/C_/VSARM/sdk/pico/pico-sdk/src/rp2_common/pico_standard_link/binary_info.c.obj
 .bss           0x00000000        0x0 CMakeFiles/gif_screen_driver.dir/C_/VSARM/sdk/pico/pico-sdk/src/rp2_common/pico_standard_link/binary_info.c.obj
 .text          0x00000000        0x0 CMakeFiles/gif_screen_driver.dir/C_/VSARM/sdk/pico/pico-sdk/src/rp2_common/pico_stdio/stdio.c.obj
 .data          0x00000000        0x0 CMakeFiles/gif_screen_driver.dir/C_/VSARM/sdk/pico/pico-sdk/src/rp2_common/pico_stdio/stdio.c.obj
 .bss           0x00000000        0x0 CMakeFiles/gif_screen_driver.dir/C_/VSARM/sdk/pico/pico-sdk/src/rp2_common/pico_stdio/stdio.c.obj
 .text.__wrap_putchar
                0x00000000       0x1c CMakeFiles/gif_screen_driver.dir/C_/VSARM/sdk/pico/pico-sdk/src/rp2_common/pico_stdio/stdio.c.obj
 .text.putchar_raw
                0x00000000       0x1c CMakeFiles/gif_screen_driver.dir/C_/VSARM/sdk/pico/pico-sdk/src/rp2_common/pico_stdio/stdio.c.obj
 .text._open    0x00000000        0xa CMakeFiles/gif_screen_driver.dir/C_/VSARM/sdk/pico/pico-sdk/src/rp2_common/pico_stdio/stdio.c.obj
 .text._fstat   0x00000000        0x6 CMakeFiles/gif_screen_driver.dir/C_/VSARM/sdk/pico/pico-sdk/src/rp2_common/pico_stdio/stdio.c.obj
 .text._isatty  0x00000000        0xc CMakeFiles/gif_screen_driver.dir/C_/VSARM/sdk/pico/pico-sdk/src/rp2_common/pico_stdio/stdio.c.obj
 .text.puts_raw
                0x00000000       0x1e CMakeFiles/gif_screen_driver.dir/C_/VSARM/sdk/pico/pico-sdk/src/rp2_common/pico_stdio/stdio.c.obj
 .rodata.__wrap_getchar.str1.4
                0x00000000       0x49 CMakeFiles/gif_screen_driver.dir/C_/VSARM/sdk/pico/pico-sdk/src/rp2_common/pico_stdio/stdio.c.obj
 .text.__wrap_getchar
                0x00000000       0x40 CMakeFiles/gif_screen_driver.dir/C_/VSARM/sdk/pico/pico-sdk/src/rp2_common/pico_stdio/stdio.c.obj
 .rodata.getchar_timeout_us.str1.4
                0x00000000        0x3 CMakeFiles/gif_screen_driver.dir/C_/VSARM/sdk/pico/pico-sdk/src/rp2_common/pico_stdio/stdio.c.obj
 .text.getchar_timeout_us
                0x00000000       0x80 CMakeFiles/gif_screen_driver.dir/C_/VSARM/sdk/pico/pico-sdk/src/rp2_common/pico_stdio/stdio.c.obj
 .text.stdio_filter_driver
                0x00000000        0xc CMakeFiles/gif_screen_driver.dir/C_/VSARM/sdk/pico/pico-sdk/src/rp2_common/pico_stdio/stdio.c.obj
 .text.stdio_set_translate_crlf
                0x00000000       0x10 CMakeFiles/gif_screen_driver.dir/C_/VSARM/sdk/pico/pico-sdk/src/rp2_common/pico_stdio/stdio.c.obj
 .text.stdio_set_chars_available_callback
                0x00000000       0x28 CMakeFiles/gif_screen_driver.dir/C_/VSARM/sdk/pico/pico-sdk/src/rp2_common/pico_stdio/stdio.c.obj
 .rodata.__func__.0
                0x00000000       0x13 CMakeFiles/gif_screen_driver.dir/C_/VSARM/sdk/pico/pico-sdk/src/rp2_common/pico_stdio/stdio.c.obj
 .rodata.__func__.1
                0x00000000        0xf CMakeFiles/gif_screen_driver.dir/C_/VSARM/sdk/pico/pico-sdk/src/rp2_common/pico_stdio/stdio.c.obj
 .text          0x00000000        0x0 CMakeFiles/gif_screen_driver.dir/C_/VSARM/sdk/pico/pico-sdk/src/rp2_common/pico_stdio_usb/reset_interface.c.obj
 .data          0x00000000        0x0 CMakeFiles/gif_screen_driver.dir/C_/VSARM/sdk/pico/pico-sdk/src/rp2_common/pico_stdio_usb/reset_interface.c.obj
 .bss           0x00000000        0x0 CMakeFiles/gif_screen_driver.dir/C_/VSARM/sdk/pico/pico-sdk/src/rp2_common/pico_stdio_usb/reset_interface.c.obj
 .text          0x00000000        0x0 CMakeFiles/gif_screen_driver.dir/C_/VSARM/sdk/pico/pico-sdk/src/rp2_common/pico_stdio_usb/stdio_usb.c.obj
 .data          0x00000000        0x0 CMakeFiles/gif_screen_driver.dir/C_/VSARM/sdk/pico/pico-sdk/src/rp2_common/pico_stdio_usb/stdio_usb.c.obj
 .bss           0x00000000        0x0 CMakeFiles/gif_screen_driver.dir/C_/VSARM/sdk/pico/pico-sdk/src/rp2_common/pico_stdio_usb/stdio_usb.c.obj
 .text          0x00000000        0x0 CMakeFiles/gif_screen_driver.dir/C_/VSARM/sdk/pico/pico-sdk/src/rp2_common/pico_stdio_usb/stdio_usb_descriptors.c.obj
 .data          0x00000000        0x0 CMakeFiles/gif_screen_driver.dir/C_/VSARM/sdk/pico/pico-sdk/src/rp2_common/pico_stdio_usb/stdio_usb_descriptors.c.obj
 .bss           0x00000000        0x0 CMakeFiles/gif_screen_driver.dir/C_/VSARM/sdk/pico/pico-sdk/src/rp2_common/pico_stdio_usb/stdio_usb_descriptors.c.obj
 .text          0x00000000        0x0 CMakeFiles/gif_screen_driver.dir/C_/VSARM/sdk/pico/pico-sdk/src/rp2_common/pico_unique_id/unique_id.c.obj
 .data          0x00000000        0x0 CMakeFiles/gif_screen_driver.dir/C_/VSARM/sdk/pico/pico-sdk/src/rp2_common/pico_unique_id/unique_id.c.obj
 .bss           0x00000000        0x0 CMakeFiles/gif_screen_driver.dir/C_/VSARM/sdk/pico/pico-sdk/src/rp2_common/pico_unique_id/unique_id.c.obj
 .text.pico_get_unique_board_id
                0x00000000       0x10 CMakeFiles/gif_screen_driver.dir/C_/VSARM/sdk/pico/pico-sdk/src/rp2_common/pico_unique_id/unique_id.c.obj
 .text          0x00000000        0x0 CMakeFiles/gif_screen_driver.dir/C_/VSARM/sdk/pico/pico-sdk/src/rp2_common/hardware_flash/flash.c.obj
 .data          0x00000000        0x0 CMakeFiles/gif_screen_driver.dir/C_/VSARM/sdk/pico/pico-sdk/src/rp2_common/hardware_flash/flash.c.obj
 .bss           0x00000000        0x0 CMakeFiles/gif_screen_driver.dir/C_/VSARM/sdk/pico/pico-sdk/src/rp2_common/hardware_flash/flash.c.obj
 .time_critical.flash_range_erase
                0x00000000       0xb8 CMakeFiles/gif_screen_driver.dir/C_/VSARM/sdk/pico/pico-sdk/src/rp2_common/hardware_flash/flash.c.obj
 .time_critical.flash_range_program
                0x00000000       0xb8 CMakeFiles/gif_screen_driver.dir/C_/VSARM/sdk/pico/pico-sdk/src/rp2_common/hardware_flash/flash.c.obj
 .rodata.__func__.1
                0x00000000       0x14 CMakeFiles/gif_screen_driver.dir/C_/VSARM/sdk/pico/pico-sdk/src/rp2_common/hardware_flash/flash.c.obj
 .rodata.__func__.2
                0x00000000       0x12 CMakeFiles/gif_screen_driver.dir/C_/VSARM/sdk/pico/pico-sdk/src/rp2_common/hardware_flash/flash.c.obj
 .text          0x00000000        0x0 CMakeFiles/gif_screen_driver.dir/C_/VSARM/sdk/pico/pico-sdk/lib/tinyusb/src/portable/raspberrypi/rp2040/dcd_rp2040.c.obj
 .data          0x00000000        0x0 CMakeFiles/gif_screen_driver.dir/C_/VSARM/sdk/pico/pico-sdk/lib/tinyusb/src/portable/raspberrypi/rp2040/dcd_rp2040.c.obj
 .bss           0x00000000        0x0 CMakeFiles/gif_screen_driver.dir/C_/VSARM/sdk/pico/pico-sdk/lib/tinyusb/src/portable/raspberrypi/rp2040/dcd_rp2040.c.obj
 .text._hw_endpoint_close
                0x00000000       0x4c CMakeFiles/gif_screen_driver.dir/C_/VSARM/sdk/pico/pico-sdk/lib/tinyusb/src/portable/raspberrypi/rp2040/dcd_rp2040.c.obj
 .text.hw_endpoint_close
                0x00000000        0xc CMakeFiles/gif_screen_driver.dir/C_/VSARM/sdk/pico/pico-sdk/lib/tinyusb/src/portable/raspberrypi/rp2040/dcd_rp2040.c.obj
 .text.dcd_int_disable
                0x00000000       0x2c CMakeFiles/gif_screen_driver.dir/C_/VSARM/sdk/pico/pico-sdk/lib/tinyusb/src/portable/raspberrypi/rp2040/dcd_rp2040.c.obj
 .text.dcd_remote_wakeup
                0x00000000       0x38 CMakeFiles/gif_screen_driver.dir/C_/VSARM/sdk/pico/pico-sdk/lib/tinyusb/src/portable/raspberrypi/rp2040/dcd_rp2040.c.obj
 .text.dcd_disconnect
                0x00000000       0x10 CMakeFiles/gif_screen_driver.dir/C_/VSARM/sdk/pico/pico-sdk/lib/tinyusb/src/portable/raspberrypi/rp2040/dcd_rp2040.c.obj
 .text.dcd_sof_enable
                0x00000000       0x1c CMakeFiles/gif_screen_driver.dir/C_/VSARM/sdk/pico/pico-sdk/lib/tinyusb/src/portable/raspberrypi/rp2040/dcd_rp2040.c.obj
 .text.dcd_edpt_close
                0x00000000        0xa CMakeFiles/gif_screen_driver.dir/C_/VSARM/sdk/pico/pico-sdk/lib/tinyusb/src/portable/raspberrypi/rp2040/dcd_rp2040.c.obj
 .time_critical.dcd_int_handler
                0x00000000        0x8 CMakeFiles/gif_screen_driver.dir/C_/VSARM/sdk/pico/pico-sdk/lib/tinyusb/src/portable/raspberrypi/rp2040/dcd_rp2040.c.obj
 .rodata.__func__.2
                0x00000000       0x12 CMakeFiles/gif_screen_driver.dir/C_/VSARM/sdk/pico/pico-sdk/lib/tinyusb/src/portable/raspberrypi/rp2040/dcd_rp2040.c.obj
 .rodata.__func__.4
                0x00000000       0x10 CMakeFiles/gif_screen_driver.dir/C_/VSARM/sdk/pico/pico-sdk/lib/tinyusb/src/portable/raspberrypi/rp2040/dcd_rp2040.c.obj
 .text          0x00000000        0x0 CMakeFiles/gif_screen_driver.dir/C_/VSARM/sdk/pico/pico-sdk/lib/tinyusb/src/portable/raspberrypi/rp2040/rp2040_usb.c.obj
 .data          0x00000000        0x0 CMakeFiles/gif_screen_driver.dir/C_/VSARM/sdk/pico/pico-sdk/lib/tinyusb/src/portable/raspberrypi/rp2040/rp2040_usb.c.obj
 .bss           0x00000000        0x0 CMakeFiles/gif_screen_driver.dir/C_/VSARM/sdk/pico/pico-sdk/lib/tinyusb/src/portable/raspberrypi/rp2040/rp2040_usb.c.obj
 .text          0x00000000        0x0 CMakeFiles/gif_screen_driver.dir/C_/VSARM/sdk/pico/pico-sdk/lib/tinyusb/src/device/usbd.c.obj
 .data          0x00000000        0x0 CMakeFiles/gif_screen_driver.dir/C_/VSARM/sdk/pico/pico-sdk/lib/tinyusb/src/device/usbd.c.obj
 .bss           0x00000000        0x0 CMakeFiles/gif_screen_driver.dir/C_/VSARM/sdk/pico/pico-sdk/lib/tinyusb/src/device/usbd.c.obj
 .text.tud_speed_get
                0x00000000        0xc CMakeFiles/gif_screen_driver.dir/C_/VSARM/sdk/pico/pico-sdk/lib/tinyusb/src/device/usbd.c.obj
 .text.tud_connected
                0x00000000       0x10 CMakeFiles/gif_screen_driver.dir/C_/VSARM/sdk/pico/pico-sdk/lib/tinyusb/src/device/usbd.c.obj
 .text.tud_remote_wakeup
                0x00000000       0x34 CMakeFiles/gif_screen_driver.dir/C_/VSARM/sdk/pico/pico-sdk/lib/tinyusb/src/device/usbd.c.obj
 .text.tud_disconnect
                0x00000000       0x20 CMakeFiles/gif_screen_driver.dir/C_/VSARM/sdk/pico/pico-sdk/lib/tinyusb/src/device/usbd.c.obj
 .text.tud_connect
                0x00000000       0x20 CMakeFiles/gif_screen_driver.dir/C_/VSARM/sdk/pico/pico-sdk/lib/tinyusb/src/device/usbd.c.obj
 .text.tud_task_event_ready
                0x00000000       0x20 CMakeFiles/gif_screen_driver.dir/C_/VSARM/sdk/pico/pico-sdk/lib/tinyusb/src/device/usbd.c.obj
 .text.usbd_int_set
                0x00000000       0x20 CMakeFiles/gif_screen_driver.dir/C_/VSARM/sdk/pico/pico-sdk/lib/tinyusb/src/device/usbd.c.obj
 .text.usbd_edpt_xfer_fifo
                0x00000000       0x78 CMakeFiles/gif_screen_driver.dir/C_/VSARM/sdk/pico/pico-sdk/lib/tinyusb/src/device/usbd.c.obj
 .text.usbd_edpt_busy
                0x00000000       0x1c CMakeFiles/gif_screen_driver.dir/C_/VSARM/sdk/pico/pico-sdk/lib/tinyusb/src/device/usbd.c.obj
 .text.usbd_edpt_close
                0x00000000       0x48 CMakeFiles/gif_screen_driver.dir/C_/VSARM/sdk/pico/pico-sdk/lib/tinyusb/src/device/usbd.c.obj
 .text.usbd_sof_enable
                0x00000000       0x10 CMakeFiles/gif_screen_driver.dir/C_/VSARM/sdk/pico/pico-sdk/lib/tinyusb/src/device/usbd.c.obj
 .text          0x00000000        0x0 CMakeFiles/gif_screen_driver.dir/C_/VSARM/sdk/pico/pico-sdk/lib/tinyusb/src/device/usbd_control.c.obj
 .data          0x00000000        0x0 CMakeFiles/gif_screen_driver.dir/C_/VSARM/sdk/pico/pico-sdk/lib/tinyusb/src/device/usbd_control.c.obj
 .bss           0x00000000        0x0 CMakeFiles/gif_screen_driver.dir/C_/VSARM/sdk/pico/pico-sdk/lib/tinyusb/src/device/usbd_control.c.obj
 .text          0x00000000        0x0 CMakeFiles/gif_screen_driver.dir/C_/VSARM/sdk/pico/pico-sdk/lib/tinyusb/src/class/audio/audio_device.c.obj
 .data          0x00000000        0x0 CMakeFiles/gif_screen_driver.dir/C_/VSARM/sdk/pico/pico-sdk/lib/tinyusb/src/class/audio/audio_device.c.obj
 .bss           0x00000000        0x0 CMakeFiles/gif_screen_driver.dir/C_/VSARM/sdk/pico/pico-sdk/lib/tinyusb/src/class/audio/audio_device.c.obj
 .debug_info    0x00000000       0x6b CMakeFiles/gif_screen_driver.dir/C_/VSARM/sdk/pico/pico-sdk/lib/tinyusb/src/class/audio/audio_device.c.obj
 .debug_abbrev  0x00000000       0x26 CMakeFiles/gif_screen_driver.dir/C_/VSARM/sdk/pico/pico-sdk/lib/tinyusb/src/class/audio/audio_device.c.obj
 .debug_aranges
                0x00000000       0x18 CMakeFiles/gif_screen_driver.dir/C_/VSARM/sdk/pico/pico-sdk/lib/tinyusb/src/class/audio/audio_device.c.obj
 .debug_line    0x00000000       0x1d CMakeFiles/gif_screen_driver.dir/C_/VSARM/sdk/pico/pico-sdk/lib/tinyusb/src/class/audio/audio_device.c.obj
 .debug_str     0x00000000      0x1b6 CMakeFiles/gif_screen_driver.dir/C_/VSARM/sdk/pico/pico-sdk/lib/tinyusb/src/class/audio/audio_device.c.obj
 .comment       0x00000000       0x4a CMakeFiles/gif_screen_driver.dir/C_/VSARM/sdk/pico/pico-sdk/lib/tinyusb/src/class/audio/audio_device.c.obj
 .ARM.attributes
                0x00000000       0x2c CMakeFiles/gif_screen_driver.dir/C_/VSARM/sdk/pico/pico-sdk/lib/tinyusb/src/class/audio/audio_device.c.obj
 .text          0x00000000        0x0 CMakeFiles/gif_screen_driver.dir/C_/VSARM/sdk/pico/pico-sdk/lib/tinyusb/src/class/cdc/cdc_device.c.obj
 .data          0x00000000        0x0 CMakeFiles/gif_screen_driver.dir/C_/VSARM/sdk/pico/pico-sdk/lib/tinyusb/src/class/cdc/cdc_device.c.obj
 .bss           0x00000000        0x0 CMakeFiles/gif_screen_driver.dir/C_/VSARM/sdk/pico/pico-sdk/lib/tinyusb/src/class/cdc/cdc_device.c.obj
 .text.tud_cdc_n_get_line_state
                0x00000000       0x14 CMakeFiles/gif_screen_driver.dir/C_/VSARM/sdk/pico/pico-sdk/lib/tinyusb/src/class/cdc/cdc_device.c.obj
 .text.tud_cdc_n_get_line_coding
                0x00000000       0x20 CMakeFiles/gif_screen_driver.dir/C_/VSARM/sdk/pico/pico-sdk/lib/tinyusb/src/class/cdc/cdc_device.c.obj
 .text.tud_cdc_n_set_wanted_char
                0x00000000       0x14 CMakeFiles/gif_screen_driver.dir/C_/VSARM/sdk/pico/pico-sdk/lib/tinyusb/src/class/cdc/cdc_device.c.obj
 .text.tud_cdc_n_peek
                0x00000000       0x18 CMakeFiles/gif_screen_driver.dir/C_/VSARM/sdk/pico/pico-sdk/lib/tinyusb/src/class/cdc/cdc_device.c.obj
 .text.tud_cdc_n_read_flush
                0x00000000       0x20 CMakeFiles/gif_screen_driver.dir/C_/VSARM/sdk/pico/pico-sdk/lib/tinyusb/src/class/cdc/cdc_device.c.obj
 .text.tud_cdc_n_write_clear
                0x00000000       0x1c CMakeFiles/gif_screen_driver.dir/C_/VSARM/sdk/pico/pico-sdk/lib/tinyusb/src/class/cdc/cdc_device.c.obj
 .text          0x00000000        0x0 CMakeFiles/gif_screen_driver.dir/C_/VSARM/sdk/pico/pico-sdk/lib/tinyusb/src/class/dfu/dfu_device.c.obj
 .data          0x00000000        0x0 CMakeFiles/gif_screen_driver.dir/C_/VSARM/sdk/pico/pico-sdk/lib/tinyusb/src/class/dfu/dfu_device.c.obj
 .bss           0x00000000        0x0 CMakeFiles/gif_screen_driver.dir/C_/VSARM/sdk/pico/pico-sdk/lib/tinyusb/src/class/dfu/dfu_device.c.obj
 .debug_info    0x00000000       0x6b CMakeFiles/gif_screen_driver.dir/C_/VSARM/sdk/pico/pico-sdk/lib/tinyusb/src/class/dfu/dfu_device.c.obj
 .debug_abbrev  0x00000000       0x26 CMakeFiles/gif_screen_driver.dir/C_/VSARM/sdk/pico/pico-sdk/lib/tinyusb/src/class/dfu/dfu_device.c.obj
 .debug_aranges
                0x00000000       0x18 CMakeFiles/gif_screen_driver.dir/C_/VSARM/sdk/pico/pico-sdk/lib/tinyusb/src/class/dfu/dfu_device.c.obj
 .debug_line    0x00000000       0x1d CMakeFiles/gif_screen_driver.dir/C_/VSARM/sdk/pico/pico-sdk/lib/tinyusb/src/class/dfu/dfu_device.c.obj
 .debug_str     0x00000000      0x1b2 CMakeFiles/gif_screen_driver.dir/C_/VSARM/sdk/pico/pico-sdk/lib/tinyusb/src/class/dfu/dfu_device.c.obj
 .comment       0x00000000       0x4a CMakeFiles/gif_screen_driver.dir/C_/VSARM/sdk/pico/pico-sdk/lib/tinyusb/src/class/dfu/dfu_device.c.obj
 .ARM.attributes
                0x00000000       0x2c CMakeFiles/gif_screen_driver.dir/C_/VSARM/sdk/pico/pico-sdk/lib/tinyusb/src/class/dfu/dfu_device.c.obj
 .text          0x00000000        0x0 CMakeFiles/gif_screen_driver.dir/C_/VSARM/sdk/pico/pico-sdk/lib/tinyusb/src/class/dfu/dfu_rt_device.c.obj
 .data          0x00000000        0x0 CMakeFiles/gif_screen_driver.dir/C_/VSARM/sdk/pico/pico-sdk/lib/tinyusb/src/class/dfu/dfu_rt_device.c.obj
 .bss           0x00000000        0x0 CMakeFiles/gif_screen_driver.dir/C_/VSARM/sdk/pico/pico-sdk/lib/tinyusb/src/class/dfu/dfu_rt_device.c.obj
 .debug_info    0x00000000       0x6b CMakeFiles/gif_screen_driver.dir/C_/VSARM/sdk/pico/pico-sdk/lib/tinyusb/src/class/dfu/dfu_rt_device.c.obj
 .debug_abbrev  0x00000000       0x26 CMakeFiles/gif_screen_driver.dir/C_/VSARM/sdk/pico/pico-sdk/lib/tinyusb/src/class/dfu/dfu_rt_device.c.obj
 .debug_aranges
                0x00000000       0x18 CMakeFiles/gif_screen_driver.dir/C_/VSARM/sdk/pico/pico-sdk/lib/tinyusb/src/class/dfu/dfu_rt_device.c.obj
 .debug_line    0x00000000       0x1d CMakeFiles/gif_screen_driver.dir/C_/VSARM/sdk/pico/pico-sdk/lib/tinyusb/src/class/dfu/dfu_rt_device.c.obj
 .debug_str     0x00000000      0x1b5 CMakeFiles/gif_screen_driver.dir/C_/VSARM/sdk/pico/pico-sdk/lib/tinyusb/src/class/dfu/dfu_rt_device.c.obj
 .comment       0x00000000       0x4a CMakeFiles/gif_screen_driver.dir/C_/VSARM/sdk/pico/pico-sdk/lib/tinyusb/src/class/dfu/dfu_rt_device.c.obj
 .ARM.attributes
                0x00000000       0x2c CMakeFiles/gif_screen_driver.dir/C_/VSARM/sdk/pico/pico-sdk/lib/tinyusb/src/class/dfu/dfu_rt_device.c.obj
 .text          0x00000000        0x0 CMakeFiles/gif_screen_driver.dir/C_/VSARM/sdk/pico/pico-sdk/lib/tinyusb/src/class/hid/hid_device.c.obj
 .data          0x00000000        0x0 CMakeFiles/gif_screen_driver.dir/C_/VSARM/sdk/pico/pico-sdk/lib/tinyusb/src/class/hid/hid_device.c.obj
 .bss           0x00000000        0x0 CMakeFiles/gif_screen_driver.dir/C_/VSARM/sdk/pico/pico-sdk/lib/tinyusb/src/class/hid/hid_device.c.obj
 .debug_info    0x00000000       0x6b CMakeFiles/gif_screen_driver.dir/C_/VSARM/sdk/pico/pico-sdk/lib/tinyusb/src/class/hid/hid_device.c.obj
 .debug_abbrev  0x00000000       0x26 CMakeFiles/gif_screen_driver.dir/C_/VSARM/sdk/pico/pico-sdk/lib/tinyusb/src/class/hid/hid_device.c.obj
 .debug_aranges
                0x00000000       0x18 CMakeFiles/gif_screen_driver.dir/C_/VSARM/sdk/pico/pico-sdk/lib/tinyusb/src/class/hid/hid_device.c.obj
 .debug_line    0x00000000       0x1d CMakeFiles/gif_screen_driver.dir/C_/VSARM/sdk/pico/pico-sdk/lib/tinyusb/src/class/hid/hid_device.c.obj
 .debug_str     0x00000000      0x1b2 CMakeFiles/gif_screen_driver.dir/C_/VSARM/sdk/pico/pico-sdk/lib/tinyusb/src/class/hid/hid_device.c.obj
 .comment       0x00000000       0x4a CMakeFiles/gif_screen_driver.dir/C_/VSARM/sdk/pico/pico-sdk/lib/tinyusb/src/class/hid/hid_device.c.obj
 .ARM.attributes
                0x00000000       0x2c CMakeFiles/gif_screen_driver.dir/C_/VSARM/sdk/pico/pico-sdk/lib/tinyusb/src/class/hid/hid_device.c.obj
 .text          0x00000000        0x0 CMakeFiles/gif_screen_driver.dir/C_/VSARM/sdk/pico/pico-sdk/lib/tinyusb/src/class/midi/midi_device.c.obj
 .data          0x00000000        0x0 CMakeFiles/gif_screen_driver.dir/C_/VSARM/sdk/pico/pico-sdk/lib/tinyusb/src/class/midi/midi_device.c.obj
 .bss           0x00000000        0x0 CMakeFiles/gif_screen_driver.dir/C_/VSARM/sdk/pico/pico-sdk/lib/tinyusb/src/class/midi/midi_device.c.obj
 .debug_info    0x00000000       0x6b CMakeFiles/gif_screen_driver.dir/C_/VSARM/sdk/pico/pico-sdk/lib/tinyusb/src/class/midi/midi_device.c.obj
 .debug_abbrev  0x00000000       0x26 CMakeFiles/gif_screen_driver.dir/C_/VSARM/sdk/pico/pico-sdk/lib/tinyusb/src/class/midi/midi_device.c.obj
 .debug_aranges
                0x00000000       0x18 CMakeFiles/gif_screen_driver.dir/C_/VSARM/sdk/pico/pico-sdk/lib/tinyusb/src/class/midi/midi_device.c.obj
 .debug_line    0x00000000       0x1d CMakeFiles/gif_screen_driver.dir/C_/VSARM/sdk/pico/pico-sdk/lib/tinyusb/src/class/midi/midi_device.c.obj
 .debug_str     0x00000000      0x1b4 CMakeFiles/gif_screen_driver.dir/C_/VSARM/sdk/pico/pico-sdk/lib/tinyusb/src/class/midi/midi_device.c.obj
 .comment       0x00000000       0x4a CMakeFiles/gif_screen_driver.dir/C_/VSARM/sdk/pico/pico-sdk/lib/tinyusb/src/class/midi/midi_device.c.obj
 .ARM.attributes
                0x00000000       0x2c CMakeFiles/gif_screen_driver.dir/C_/VSARM/sdk/pico/pico-sdk/lib/tinyusb/src/class/midi/midi_device.c.obj
 .text          0x00000000        0x0 CMakeFiles/gif_screen_driver.dir/C_/VSARM/sdk/pico/pico-sdk/lib/tinyusb/src/class/msc/msc_device.c.obj
 .data          0x00000000        0x0 CMakeFiles/gif_screen_driver.dir/C_/VSARM/sdk/pico/pico-sdk/lib/tinyusb/src/class/msc/msc_device.c.obj
 .bss           0x00000000        0x0 CMakeFiles/gif_screen_driver.dir/C_/VSARM/sdk/pico/pico-sdk/lib/tinyusb/src/class/msc/msc_device.c.obj
 .debug_info    0x00000000       0x6b CMakeFiles/gif_screen_driver.dir/C_/VSARM/sdk/pico/pico-sdk/lib/tinyusb/src/class/msc/msc_device.c.obj
 .debug_abbrev  0x00000000       0x26 CMakeFiles/gif_screen_driver.dir/C_/VSARM/sdk/pico/pico-sdk/lib/tinyusb/src/class/msc/msc_device.c.obj
 .debug_aranges
                0x00000000       0x18 CMakeFiles/gif_screen_driver.dir/C_/VSARM/sdk/pico/pico-sdk/lib/tinyusb/src/class/msc/msc_device.c.obj
 .debug_line    0x00000000       0x1d CMakeFiles/gif_screen_driver.dir/C_/VSARM/sdk/pico/pico-sdk/lib/tinyusb/src/class/msc/msc_device.c.obj
 .debug_str     0x00000000      0x1b2 CMakeFiles/gif_screen_driver.dir/C_/VSARM/sdk/pico/pico-sdk/lib/tinyusb/src/class/msc/msc_device.c.obj
 .comment       0x00000000       0x4a CMakeFiles/gif_screen_driver.dir/C_/VSARM/sdk/pico/pico-sdk/lib/tinyusb/src/class/msc/msc_device.c.obj
 .ARM.attributes
                0x00000000       0x2c CMakeFiles/gif_screen_driver.dir/C_/VSARM/sdk/pico/pico-sdk/lib/tinyusb/src/class/msc/msc_device.c.obj
 .text          0x00000000        0x0 CMakeFiles/gif_screen_driver.dir/C_/VSARM/sdk/pico/pico-sdk/lib/tinyusb/src/class/net/ecm_rndis_device.c.obj
 .data          0x00000000        0x0 CMakeFiles/gif_screen_driver.dir/C_/VSARM/sdk/pico/pico-sdk/lib/tinyusb/src/class/net/ecm_rndis_device.c.obj
 .bss           0x00000000        0x0 CMakeFiles/gif_screen_driver.dir/C_/VSARM/sdk/pico/pico-sdk/lib/tinyusb/src/class/net/ecm_rndis_device.c.obj
 .debug_info    0x00000000       0x6b CMakeFiles/gif_screen_driver.dir/C_/VSARM/sdk/pico/pico-sdk/lib/tinyusb/src/class/net/ecm_rndis_device.c.obj
 .debug_abbrev  0x00000000       0x26 CMakeFiles/gif_screen_driver.dir/C_/VSARM/sdk/pico/pico-sdk/lib/tinyusb/src/class/net/ecm_rndis_device.c.obj
 .debug_aranges
                0x00000000       0x18 CMakeFiles/gif_screen_driver.dir/C_/VSARM/sdk/pico/pico-sdk/lib/tinyusb/src/class/net/ecm_rndis_device.c.obj
 .debug_line    0x00000000       0x1d CMakeFiles/gif_screen_driver.dir/C_/VSARM/sdk/pico/pico-sdk/lib/tinyusb/src/class/net/ecm_rndis_device.c.obj
 .debug_str     0x00000000      0x1b8 CMakeFiles/gif_screen_driver.dir/C_/VSARM/sdk/pico/pico-sdk/lib/tinyusb/src/class/net/ecm_rndis_device.c.obj
 .comment       0x00000000       0x4a CMakeFiles/gif_screen_driver.dir/C_/VSARM/sdk/pico/pico-sdk/lib/tinyusb/src/class/net/ecm_rndis_device.c.obj
 .ARM.attributes
                0x00000000       0x2c CMakeFiles/gif_screen_driver.dir/C_/VSARM/sdk/pico/pico-sdk/lib/tinyusb/src/class/net/ecm_rndis_device.c.obj
 .text          0x00000000        0x0 CMakeFiles/gif_screen_driver.dir/C_/VSARM/sdk/pico/pico-sdk/lib/tinyusb/src/class/net/ncm_device.c.obj
 .data          0x00000000        0x0 CMakeFiles/gif_screen_driver.dir/C_/VSARM/sdk/pico/pico-sdk/lib/tinyusb/src/class/net/ncm_device.c.obj
 .bss           0x00000000        0x0 CMakeFiles/gif_screen_driver.dir/C_/VSARM/sdk/pico/pico-sdk/lib/tinyusb/src/class/net/ncm_device.c.obj
 .debug_info    0x00000000       0x6b CMakeFiles/gif_screen_driver.dir/C_/VSARM/sdk/pico/pico-sdk/lib/tinyusb/src/class/net/ncm_device.c.obj
 .debug_abbrev  0x00000000       0x26 CMakeFiles/gif_screen_driver.dir/C_/VSARM/sdk/pico/pico-sdk/lib/tinyusb/src/class/net/ncm_device.c.obj
 .debug_aranges
                0x00000000       0x18 CMakeFiles/gif_screen_driver.dir/C_/VSARM/sdk/pico/pico-sdk/lib/tinyusb/src/class/net/ncm_device.c.obj
 .debug_line    0x00000000       0x1d CMakeFiles/gif_screen_driver.dir/C_/VSARM/sdk/pico/pico-sdk/lib/tinyusb/src/class/net/ncm_device.c.obj
 .debug_str     0x00000000      0x1b2 CMakeFiles/gif_screen_driver.dir/C_/VSARM/sdk/pico/pico-sdk/lib/tinyusb/src/class/net/ncm_device.c.obj
 .comment       0x00000000       0x4a CMakeFiles/gif_screen_driver.dir/C_/VSARM/sdk/pico/pico-sdk/lib/tinyusb/src/class/net/ncm_device.c.obj
 .ARM.attributes
                0x00000000       0x2c CMakeFiles/gif_screen_driver.dir/C_/VSARM/sdk/pico/pico-sdk/lib/tinyusb/src/class/net/ncm_device.c.obj
 .text          0x00000000        0x0 CMakeFiles/gif_screen_driver.dir/C_/VSARM/sdk/pico/pico-sdk/lib/tinyusb/src/class/usbtmc/usbtmc_device.c.obj
 .data          0x00000000        0x0 CMakeFiles/gif_screen_driver.dir/C_/VSARM/sdk/pico/pico-sdk/lib/tinyusb/src/class/usbtmc/usbtmc_device.c.obj
 .bss           0x00000000        0x0 CMakeFiles/gif_screen_driver.dir/C_/VSARM/sdk/pico/pico-sdk/lib/tinyusb/src/class/usbtmc/usbtmc_device.c.obj
 .debug_info    0x00000000       0x6b CMakeFiles/gif_screen_driver.dir/C_/VSARM/sdk/pico/pico-sdk/lib/tinyusb/src/class/usbtmc/usbtmc_device.c.obj
 .debug_abbrev  0x00000000       0x26 CMakeFiles/gif_screen_driver.dir/C_/VSARM/sdk/pico/pico-sdk/lib/tinyusb/src/class/usbtmc/usbtmc_device.c.obj
 .debug_aranges
                0x00000000       0x18 CMakeFiles/gif_screen_driver.dir/C_/VSARM/sdk/pico/pico-sdk/lib/tinyusb/src/class/usbtmc/usbtmc_device.c.obj
 .debug_line    0x00000000       0x1d CMakeFiles/gif_screen_driver.dir/C_/VSARM/sdk/pico/pico-sdk/lib/tinyusb/src/class/usbtmc/usbtmc_device.c.obj
 .debug_str     0x00000000      0x1b8 CMakeFiles/gif_screen_driver.dir/C_/VSARM/sdk/pico/pico-sdk/lib/tinyusb/src/class/usbtmc/usbtmc_device.c.obj
 .comment       0x00000000       0x4a CMakeFiles/gif_screen_driver.dir/C_/VSARM/sdk/pico/pico-sdk/lib/tinyusb/src/class/usbtmc/usbtmc_device.c.obj
 .ARM.attributes
                0x00000000       0x2c CMakeFiles/gif_screen_driver.dir/C_/VSARM/sdk/pico/pico-sdk/lib/tinyusb/src/class/usbtmc/usbtmc_device.c.obj
 .text          0x00000000        0x0 CMakeFiles/gif_screen_driver.dir/C_/VSARM/sdk/pico/pico-sdk/lib/tinyusb/src/class/vendor/vendor_device.c.obj
 .data          0x00000000        0x0 CMakeFiles/gif_screen_driver.dir/C_/VSARM/sdk/pico/pico-sdk/lib/tinyusb/src/class/vendor/vendor_device.c.obj
 .bss           0x00000000        0x0 CMakeFiles/gif_screen_driver.dir/C_/VSARM/sdk/pico/pico-sdk/lib/tinyusb/src/class/vendor/vendor_device.c.obj
 .debug_info    0x00000000       0x6b CMakeFiles/gif_screen_driver.dir/C_/VSARM/sdk/pico/pico-sdk/lib/tinyusb/src/class/vendor/vendor_device.c.obj
 .debug_abbrev  0x00000000       0x26 CMakeFiles/gif_screen_driver.dir/C_/VSARM/sdk/pico/pico-sdk/lib/tinyusb/src/class/vendor/vendor_device.c.obj
 .debug_aranges
                0x00000000       0x18 CMakeFiles/gif_screen_driver.dir/C_/VSARM/sdk/pico/pico-sdk/lib/tinyusb/src/class/vendor/vendor_device.c.obj
 .debug_line    0x00000000       0x1d CMakeFiles/gif_screen_driver.dir/C_/VSARM/sdk/pico/pico-sdk/lib/tinyusb/src/class/vendor/vendor_device.c.obj
 .debug_str     0x00000000      0x1b8 CMakeFiles/gif_screen_driver.dir/C_/VSARM/sdk/pico/pico-sdk/lib/tinyusb/src/class/vendor/vendor_device.c.obj
 .comment       0x00000000       0x4a CMakeFiles/gif_screen_driver.dir/C_/VSARM/sdk/pico/pico-sdk/lib/tinyusb/src/class/vendor/vendor_device.c.obj
 .ARM.attributes
                0x00000000       0x2c CMakeFiles/gif_screen_driver.dir/C_/VSARM/sdk/pico/pico-sdk/lib/tinyusb/src/class/vendor/vendor_device.c.obj
 .text          0x00000000        0x0 CMakeFiles/gif_screen_driver.dir/C_/VSARM/sdk/pico/pico-sdk/lib/tinyusb/src/class/video/video_device.c.obj
 .data          0x00000000        0x0 CMakeFiles/gif_screen_driver.dir/C_/VSARM/sdk/pico/pico-sdk/lib/tinyusb/src/class/video/video_device.c.obj
 .bss           0x00000000        0x0 CMakeFiles/gif_screen_driver.dir/C_/VSARM/sdk/pico/pico-sdk/lib/tinyusb/src/class/video/video_device.c.obj
 .debug_info    0x00000000       0x6b CMakeFiles/gif_screen_driver.dir/C_/VSARM/sdk/pico/pico-sdk/lib/tinyusb/src/class/video/video_device.c.obj
 .debug_abbrev  0x00000000       0x26 CMakeFiles/gif_screen_driver.dir/C_/VSARM/sdk/pico/pico-sdk/lib/tinyusb/src/class/video/video_device.c.obj
 .debug_aranges
                0x00000000       0x18 CMakeFiles/gif_screen_driver.dir/C_/VSARM/sdk/pico/pico-sdk/lib/tinyusb/src/class/video/video_device.c.obj
 .debug_line    0x00000000       0x1d CMakeFiles/gif_screen_driver.dir/C_/VSARM/sdk/pico/pico-sdk/lib/tinyusb/src/class/video/video_device.c.obj
 .debug_str     0x00000000      0x1b6 CMakeFiles/gif_screen_driver.dir/C_/VSARM/sdk/pico/pico-sdk/lib/tinyusb/src/class/video/video_device.c.obj
 .comment       0x00000000       0x4a CMakeFiles/gif_screen_driver.dir/C_/VSARM/sdk/pico/pico-sdk/lib/tinyusb/src/class/video/video_device.c.obj
 .ARM.attributes
                0x00000000       0x2c CMakeFiles/gif_screen_driver.dir/C_/VSARM/sdk/pico/pico-sdk/lib/tinyusb/src/class/video/video_device.c.obj
 .text          0x00000000        0x0 CMakeFiles/gif_screen_driver.dir/C_/VSARM/sdk/pico/pico-sdk/lib/tinyusb/src/tusb.c.obj
 .data          0x00000000        0x0 CMakeFiles/gif_screen_driver.dir/C_/VSARM/sdk/pico/pico-sdk/lib/tinyusb/src/tusb.c.obj
 .bss           0x00000000        0x0 CMakeFiles/gif_screen_driver.dir/C_/VSARM/sdk/pico/pico-sdk/lib/tinyusb/src/tusb.c.obj
 .text.tu_desc_find
                0x00000000       0x18 CMakeFiles/gif_screen_driver.dir/C_/VSARM/sdk/pico/pico-sdk/lib/tinyusb/src/tusb.c.obj
 .text.tu_desc_find2
                0x00000000       0x20 CMakeFiles/gif_screen_driver.dir/C_/VSARM/sdk/pico/pico-sdk/lib/tinyusb/src/tusb.c.obj
 .text.tu_desc_find3
                0x00000000       0x2a CMakeFiles/gif_screen_driver.dir/C_/VSARM/sdk/pico/pico-sdk/lib/tinyusb/src/tusb.c.obj
 .text.tu_desc_get_interface_total_len
                0x00000000       0x3e CMakeFiles/gif_screen_driver.dir/C_/VSARM/sdk/pico/pico-sdk/lib/tinyusb/src/tusb.c.obj
 .text.tu_edpt_stream_init
                0x00000000       0x70 CMakeFiles/gif_screen_driver.dir/C_/VSARM/sdk/pico/pico-sdk/lib/tinyusb/src/tusb.c.obj
 .text.tu_edpt_stream_write_zlp_if_needed
                0x00000000       0x58 CMakeFiles/gif_screen_driver.dir/C_/VSARM/sdk/pico/pico-sdk/lib/tinyusb/src/tusb.c.obj
 .text.tu_edpt_stream_write_xfer
                0x00000000       0x6c CMakeFiles/gif_screen_driver.dir/C_/VSARM/sdk/pico/pico-sdk/lib/tinyusb/src/tusb.c.obj
 .text.tu_edpt_stream_write
                0x00000000       0x34 CMakeFiles/gif_screen_driver.dir/C_/VSARM/sdk/pico/pico-sdk/lib/tinyusb/src/tusb.c.obj
 .text.tu_edpt_stream_read_xfer
                0x00000000       0x86 CMakeFiles/gif_screen_driver.dir/C_/VSARM/sdk/pico/pico-sdk/lib/tinyusb/src/tusb.c.obj
 .text.tu_edpt_stream_read
                0x00000000       0x18 CMakeFiles/gif_screen_driver.dir/C_/VSARM/sdk/pico/pico-sdk/lib/tinyusb/src/tusb.c.obj
 .text          0x00000000        0x0 CMakeFiles/gif_screen_driver.dir/C_/VSARM/sdk/pico/pico-sdk/lib/tinyusb/src/common/tusb_fifo.c.obj
 .data          0x00000000        0x0 CMakeFiles/gif_screen_driver.dir/C_/VSARM/sdk/pico/pico-sdk/lib/tinyusb/src/common/tusb_fifo.c.obj
 .bss           0x00000000        0x0 CMakeFiles/gif_screen_driver.dir/C_/VSARM/sdk/pico/pico-sdk/lib/tinyusb/src/common/tusb_fifo.c.obj
 .text.tu_fifo_overflowed
                0x00000000       0x26 CMakeFiles/gif_screen_driver.dir/C_/VSARM/sdk/pico/pico-sdk/lib/tinyusb/src/common/tusb_fifo.c.obj
 .text.tu_fifo_correct_read_pointer
                0x00000000       0x34 CMakeFiles/gif_screen_driver.dir/C_/VSARM/sdk/pico/pico-sdk/lib/tinyusb/src/common/tusb_fifo.c.obj
 .text.tu_fifo_read_n_const_addr_full_words
                0x00000000        0xa CMakeFiles/gif_screen_driver.dir/C_/VSARM/sdk/pico/pico-sdk/lib/tinyusb/src/common/tusb_fifo.c.obj
 .text.tu_fifo_peek
                0x00000000       0x34 CMakeFiles/gif_screen_driver.dir/C_/VSARM/sdk/pico/pico-sdk/lib/tinyusb/src/common/tusb_fifo.c.obj
 .text.tu_fifo_peek_n
                0x00000000       0x40 CMakeFiles/gif_screen_driver.dir/C_/VSARM/sdk/pico/pico-sdk/lib/tinyusb/src/common/tusb_fifo.c.obj
 .text.tu_fifo_write_n_const_addr_full_words
                0x00000000        0xa CMakeFiles/gif_screen_driver.dir/C_/VSARM/sdk/pico/pico-sdk/lib/tinyusb/src/common/tusb_fifo.c.obj
 .text.tu_fifo_advance_write_pointer
                0x00000000       0x14 CMakeFiles/gif_screen_driver.dir/C_/VSARM/sdk/pico/pico-sdk/lib/tinyusb/src/common/tusb_fifo.c.obj
 .text.tu_fifo_advance_read_pointer
                0x00000000       0x14 CMakeFiles/gif_screen_driver.dir/C_/VSARM/sdk/pico/pico-sdk/lib/tinyusb/src/common/tusb_fifo.c.obj
 .text.tu_fifo_get_read_info
                0x00000000       0xa0 CMakeFiles/gif_screen_driver.dir/C_/VSARM/sdk/pico/pico-sdk/lib/tinyusb/src/common/tusb_fifo.c.obj
 .text.tu_fifo_get_write_info
                0x00000000       0x72 CMakeFiles/gif_screen_driver.dir/C_/VSARM/sdk/pico/pico-sdk/lib/tinyusb/src/common/tusb_fifo.c.obj
 .text          0x00000000        0x0 CMakeFiles/gif_screen_driver.dir/C_/VSARM/sdk/pico/pico-sdk/src/rp2_common/pico_fix/rp2040_usb_device_enumeration/rp2040_usb_device_enumeration.c.obj
 .data          0x00000000        0x0 CMakeFiles/gif_screen_driver.dir/C_/VSARM/sdk/pico/pico-sdk/src/rp2_common/pico_fix/rp2040_usb_device_enumeration/rp2040_usb_device_enumeration.c.obj
 .bss           0x00000000        0x0 CMakeFiles/gif_screen_driver.dir/C_/VSARM/sdk/pico/pico-sdk/src/rp2_common/pico_fix/rp2040_usb_device_enumeration/rp2040_usb_device_enumeration.c.obj
 .text.hw_enumeration_fix_finish
                0x00000000       0x40 CMakeFiles/gif_screen_driver.dir/C_/VSARM/sdk/pico/pico-sdk/src/rp2_common/pico_fix/rp2040_usb_device_enumeration/rp2040_usb_device_enumeration.c.obj
 .text.hw_enumeration_fix_force_ls_j_done
                0x00000000        0xc CMakeFiles/gif_screen_driver.dir/C_/VSARM/sdk/pico/pico-sdk/src/rp2_common/pico_fix/rp2040_usb_device_enumeration/rp2040_usb_device_enumeration.c.obj
 .rodata.hw_enumeration_fix_force_ls_j.str1.4
                0x00000000      0x109 CMakeFiles/gif_screen_driver.dir/C_/VSARM/sdk/pico/pico-sdk/src/rp2_common/pico_fix/rp2040_usb_device_enumeration/rp2040_usb_device_enumeration.c.obj
 .text.hw_enumeration_fix_force_ls_j
                0x00000000      0x130 CMakeFiles/gif_screen_driver.dir/C_/VSARM/sdk/pico/pico-sdk/src/rp2_common/pico_fix/rp2040_usb_device_enumeration/rp2040_usb_device_enumeration.c.obj
 .text.hw_enumeration_fix_wait_se0
                0x00000000       0x88 CMakeFiles/gif_screen_driver.dir/C_/VSARM/sdk/pico/pico-sdk/src/rp2_common/pico_fix/rp2040_usb_device_enumeration/rp2040_usb_device_enumeration.c.obj
 .text.hw_enumeration_fix_wait_se0_callback
                0x00000000       0x24 CMakeFiles/gif_screen_driver.dir/C_/VSARM/sdk/pico/pico-sdk/src/rp2_common/pico_fix/rp2040_usb_device_enumeration/rp2040_usb_device_enumeration.c.obj
 .text.rp2040_usb_device_enumeration_fix
                0x00000000       0x12 CMakeFiles/gif_screen_driver.dir/C_/VSARM/sdk/pico/pico-sdk/src/rp2_common/pico_fix/rp2040_usb_device_enumeration/rp2040_usb_device_enumeration.c.obj
 .bss.gpio_ctrl_prev
                0x00000000        0x4 CMakeFiles/gif_screen_driver.dir/C_/VSARM/sdk/pico/pico-sdk/src/rp2_common/pico_fix/rp2040_usb_device_enumeration/rp2040_usb_device_enumeration.c.obj
 .bss.pad_ctrl_prev
                0x00000000        0x4 CMakeFiles/gif_screen_driver.dir/C_/VSARM/sdk/pico/pico-sdk/src/rp2_common/pico_fix/rp2040_usb_device_enumeration/rp2040_usb_device_enumeration.c.obj
 .rodata.__func__.0
                0x00000000       0x1e CMakeFiles/gif_screen_driver.dir/C_/VSARM/sdk/pico/pico-sdk/src/rp2_common/pico_fix/rp2040_usb_device_enumeration/rp2040_usb_device_enumeration.c.obj
 .rodata.__func__.1
                0x00000000       0x15 CMakeFiles/gif_screen_driver.dir/C_/VSARM/sdk/pico/pico-sdk/src/rp2_common/pico_fix/rp2040_usb_device_enumeration/rp2040_usb_device_enumeration.c.obj
 .debug_info    0x00000000      0xec1 CMakeFiles/gif_screen_driver.dir/C_/VSARM/sdk/pico/pico-sdk/src/rp2_common/pico_fix/rp2040_usb_device_enumeration/rp2040_usb_device_enumeration.c.obj
 .debug_abbrev  0x00000000      0x3c6 CMakeFiles/gif_screen_driver.dir/C_/VSARM/sdk/pico/pico-sdk/src/rp2_common/pico_fix/rp2040_usb_device_enumeration/rp2040_usb_device_enumeration.c.obj
 .debug_loc     0x00000000      0x575 CMakeFiles/gif_screen_driver.dir/C_/VSARM/sdk/pico/pico-sdk/src/rp2_common/pico_fix/rp2040_usb_device_enumeration/rp2040_usb_device_enumeration.c.obj
 .debug_aranges
                0x00000000       0x48 CMakeFiles/gif_screen_driver.dir/C_/VSARM/sdk/pico/pico-sdk/src/rp2_common/pico_fix/rp2040_usb_device_enumeration/rp2040_usb_device_enumeration.c.obj
 .debug_ranges  0x00000000      0x158 CMakeFiles/gif_screen_driver.dir/C_/VSARM/sdk/pico/pico-sdk/src/rp2_common/pico_fix/rp2040_usb_device_enumeration/rp2040_usb_device_enumeration.c.obj
 .debug_line    0x00000000      0x6b1 CMakeFiles/gif_screen_driver.dir/C_/VSARM/sdk/pico/pico-sdk/src/rp2_common/pico_fix/rp2040_usb_device_enumeration/rp2040_usb_device_enumeration.c.obj
 .debug_str     0x00000000      0x7a5 CMakeFiles/gif_screen_driver.dir/C_/VSARM/sdk/pico/pico-sdk/src/rp2_common/pico_fix/rp2040_usb_device_enumeration/rp2040_usb_device_enumeration.c.obj
 .comment       0x00000000       0x4a CMakeFiles/gif_screen_driver.dir/C_/VSARM/sdk/pico/pico-sdk/src/rp2_common/pico_fix/rp2040_usb_device_enumeration/rp2040_usb_device_enumeration.c.obj
 .debug_frame   0x00000000       0xa0 CMakeFiles/gif_screen_driver.dir/C_/VSARM/sdk/pico/pico-sdk/src/rp2_common/pico_fix/rp2040_usb_device_enumeration/rp2040_usb_device_enumeration.c.obj
 .ARM.attributes
                0x00000000       0x2c CMakeFiles/gif_screen_driver.dir/C_/VSARM/sdk/pico/pico-sdk/src/rp2_common/pico_fix/rp2040_usb_device_enumeration/rp2040_usb_device_enumeration.c.obj
 .text          0x00000000        0x0 CMakeFiles/gif_screen_driver.dir/C_/VSARM/sdk/pico/pico-sdk/src/rp2_common/pico_multicore/multicore.c.obj
 .data          0x00000000        0x0 CMakeFiles/gif_screen_driver.dir/C_/VSARM/sdk/pico/pico-sdk/src/rp2_common/pico_multicore/multicore.c.obj
 .bss           0x00000000        0x0 CMakeFiles/gif_screen_driver.dir/C_/VSARM/sdk/pico/pico-sdk/src/rp2_common/pico_multicore/multicore.c.obj
 .time_critical.multicore_lockout_handler
                0x00000000       0x78 CMakeFiles/gif_screen_driver.dir/C_/VSARM/sdk/pico/pico-sdk/src/rp2_common/pico_multicore/multicore.c.obj
 .text.check_lockout_mutex_init
                0x00000000       0x24 CMakeFiles/gif_screen_driver.dir/C_/VSARM/sdk/pico/pico-sdk/src/rp2_common/pico_multicore/multicore.c.obj
 .rodata.multicore_fifo_push_timeout_us.str1.4
                0x00000000       0x61 CMakeFiles/gif_screen_driver.dir/C_/VSARM/sdk/pico/pico-sdk/src/rp2_common/pico_multicore/multicore.c.obj
 .text.multicore_fifo_push_timeout_us
                0x00000000       0x98 CMakeFiles/gif_screen_driver.dir/C_/VSARM/sdk/pico/pico-sdk/src/rp2_common/pico_multicore/multicore.c.obj
 .text.multicore_fifo_pop_timeout_us
                0x00000000       0x9c CMakeFiles/gif_screen_driver.dir/C_/VSARM/sdk/pico/pico-sdk/src/rp2_common/pico_multicore/multicore.c.obj
 .text.multicore_lockout_handshake
                0x00000000       0xc0 CMakeFiles/gif_screen_driver.dir/C_/VSARM/sdk/pico/pico-sdk/src/rp2_common/pico_multicore/multicore.c.obj
 .text.multicore_lockout_start_block_until
                0x00000000       0x60 CMakeFiles/gif_screen_driver.dir/C_/VSARM/sdk/pico/pico-sdk/src/rp2_common/pico_multicore/multicore.c.obj
 .rodata.multicore_lockout_end_block_until.str1.4
                0x00000000       0x3c CMakeFiles/gif_screen_driver.dir/C_/VSARM/sdk/pico/pico-sdk/src/rp2_common/pico_multicore/multicore.c.obj
 .text.multicore_lockout_end_block_until
                0x00000000       0x7c CMakeFiles/gif_screen_driver.dir/C_/VSARM/sdk/pico/pico-sdk/src/rp2_common/pico_multicore/multicore.c.obj
 .text.multicore_lockout_victim_init
                0x00000000       0x30 CMakeFiles/gif_screen_driver.dir/C_/VSARM/sdk/pico/pico-sdk/src/rp2_common/pico_multicore/multicore.c.obj
 .text.multicore_lockout_start_timeout_us
                0x00000000       0x58 CMakeFiles/gif_screen_driver.dir/C_/VSARM/sdk/pico/pico-sdk/src/rp2_common/pico_multicore/multicore.c.obj
 .text.multicore_lockout_start_blocking
                0x00000000       0x14 CMakeFiles/gif_screen_driver.dir/C_/VSARM/sdk/pico/pico-sdk/src/rp2_common/pico_multicore/multicore.c.obj
 .text.multicore_lockout_end_timeout_us
                0x00000000       0x58 CMakeFiles/gif_screen_driver.dir/C_/VSARM/sdk/pico/pico-sdk/src/rp2_common/pico_multicore/multicore.c.obj
 .text.multicore_lockout_end_blocking
                0x00000000       0x14 CMakeFiles/gif_screen_driver.dir/C_/VSARM/sdk/pico/pico-sdk/src/rp2_common/pico_multicore/multicore.c.obj
 .text.multicore_lockout_victim_is_initialized
                0x00000000        0xc CMakeFiles/gif_screen_driver.dir/C_/VSARM/sdk/pico/pico-sdk/src/rp2_common/pico_multicore/multicore.c.obj
 .bss.lockout_in_progress
                0x00000000        0x1 CMakeFiles/gif_screen_driver.dir/C_/VSARM/sdk/pico/pico-sdk/src/rp2_common/pico_multicore/multicore.c.obj
 .bss.lockout_mutex
                0x00000000        0x8 CMakeFiles/gif_screen_driver.dir/C_/VSARM/sdk/pico/pico-sdk/src/rp2_common/pico_multicore/multicore.c.obj
 .bss.lockout_victim_initialized
                0x00000000        0x2 CMakeFiles/gif_screen_driver.dir/C_/VSARM/sdk/pico/pico-sdk/src/rp2_common/pico_multicore/multicore.c.obj
 .rodata.__func__.0
                0x00000000       0x22 CMakeFiles/gif_screen_driver.dir/C_/VSARM/sdk/pico/pico-sdk/src/rp2_common/pico_multicore/multicore.c.obj
 .rodata.__func__.1
                0x00000000       0x24 CMakeFiles/gif_screen_driver.dir/C_/VSARM/sdk/pico/pico-sdk/src/rp2_common/pico_multicore/multicore.c.obj
 .rodata.__func__.3
                0x00000000       0x15 CMakeFiles/gif_screen_driver.dir/C_/VSARM/sdk/pico/pico-sdk/src/rp2_common/pico_multicore/multicore.c.obj
 .text          0x00000000        0x0 CMakeFiles/gif_screen_driver.dir/C_/VSARM/sdk/pico/pico-sdk/src/rp2_common/hardware_i2c/i2c.c.obj
 .data          0x00000000        0x0 CMakeFiles/gif_screen_driver.dir/C_/VSARM/sdk/pico/pico-sdk/src/rp2_common/hardware_i2c/i2c.c.obj
 .bss           0x00000000        0x0 CMakeFiles/gif_screen_driver.dir/C_/VSARM/sdk/pico/pico-sdk/src/rp2_common/hardware_i2c/i2c.c.obj
 .text.i2c_read_blocking_internal
                0x00000000       0xe6 CMakeFiles/gif_screen_driver.dir/C_/VSARM/sdk/pico/pico-sdk/src/rp2_common/hardware_i2c/i2c.c.obj
 .text.i2c_deinit
                0x00000000       0x1c CMakeFiles/gif_screen_driver.dir/C_/VSARM/sdk/pico/pico-sdk/src/rp2_common/hardware_i2c/i2c.c.obj
 .text.i2c_set_slave_mode
                0x00000000       0x48 CMakeFiles/gif_screen_driver.dir/C_/VSARM/sdk/pico/pico-sdk/src/rp2_common/hardware_i2c/i2c.c.obj
 .text.i2c_write_blocking_until
                0x00000000       0x3e CMakeFiles/gif_screen_driver.dir/C_/VSARM/sdk/pico/pico-sdk/src/rp2_common/hardware_i2c/i2c.c.obj
 .text.i2c_write_timeout_per_char_us
                0x00000000       0x3e CMakeFiles/gif_screen_driver.dir/C_/VSARM/sdk/pico/pico-sdk/src/rp2_common/hardware_i2c/i2c.c.obj
 .text.i2c_read_blocking
                0x00000000       0x18 CMakeFiles/gif_screen_driver.dir/C_/VSARM/sdk/pico/pico-sdk/src/rp2_common/hardware_i2c/i2c.c.obj
 .text.i2c_read_blocking_until
                0x00000000       0x3e CMakeFiles/gif_screen_driver.dir/C_/VSARM/sdk/pico/pico-sdk/src/rp2_common/hardware_i2c/i2c.c.obj
 .text.i2c_read_timeout_per_char_us
                0x00000000       0x3e CMakeFiles/gif_screen_driver.dir/C_/VSARM/sdk/pico/pico-sdk/src/rp2_common/hardware_i2c/i2c.c.obj
 .text          0x00000000        0x0 CMakeFiles/gif_screen_driver.dir/M_/house-projects/Christmas/display-screen-ws2812b/FatFs_SPI/ff15/source/ffsystem.c.obj
 .data          0x00000000        0x0 CMakeFiles/gif_screen_driver.dir/M_/house-projects/Christmas/display-screen-ws2812b/FatFs_SPI/ff15/source/ffsystem.c.obj
 .bss           0x00000000        0x0 CMakeFiles/gif_screen_driver.dir/M_/house-projects/Christmas/display-screen-ws2812b/FatFs_SPI/ff15/source/ffsystem.c.obj
 .text          0x00000000        0x0 CMakeFiles/gif_screen_driver.dir/M_/house-projects/Christmas/display-screen-ws2812b/FatFs_SPI/ff15/source/ffunicode.c.obj
 .data          0x00000000        0x0 CMakeFiles/gif_screen_driver.dir/M_/house-projects/Christmas/display-screen-ws2812b/FatFs_SPI/ff15/source/ffunicode.c.obj
 .bss           0x00000000        0x0 CMakeFiles/gif_screen_driver.dir/M_/house-projects/Christmas/display-screen-ws2812b/FatFs_SPI/ff15/source/ffunicode.c.obj
 .text          0x00000000        0x0 CMakeFiles/gif_screen_driver.dir/M_/house-projects/Christmas/display-screen-ws2812b/FatFs_SPI/ff15/source/ff.c.obj
 .data          0x00000000        0x0 CMakeFiles/gif_screen_driver.dir/M_/house-projects/Christmas/display-screen-ws2812b/FatFs_SPI/ff15/source/ff.c.obj
 .bss           0x00000000        0x0 CMakeFiles/gif_screen_driver.dir/M_/house-projects/Christmas/display-screen-ws2812b/FatFs_SPI/ff15/source/ff.c.obj
 .text.xsum32   0x00000000        0x8 CMakeFiles/gif_screen_driver.dir/M_/house-projects/Christmas/display-screen-ws2812b/FatFs_SPI/ff15/source/ff.c.obj
 .text.make_rand
                0x00000000       0x36 CMakeFiles/gif_screen_driver.dir/M_/house-projects/Christmas/display-screen-ws2812b/FatFs_SPI/ff15/source/ff.c.obj
 .text.ilog10   0x00000000       0xb0 CMakeFiles/gif_screen_driver.dir/M_/house-projects/Christmas/display-screen-ws2812b/FatFs_SPI/ff15/source/ff.c.obj
 .text.i10x     0x00000000       0x54 CMakeFiles/gif_screen_driver.dir/M_/house-projects/Christmas/display-screen-ws2812b/FatFs_SPI/ff15/source/ff.c.obj
 .rodata.ftoa.str1.4
                0x00000000        0xc CMakeFiles/gif_screen_driver.dir/M_/house-projects/Christmas/display-screen-ws2812b/FatFs_SPI/ff15/source/ff.c.obj
 .text.ftoa     0x00000000      0x294 CMakeFiles/gif_screen_driver.dir/M_/house-projects/Christmas/display-screen-ws2812b/FatFs_SPI/ff15/source/ff.c.obj
 .text.putc_init
                0x00000000       0x12 CMakeFiles/gif_screen_driver.dir/M_/house-projects/Christmas/display-screen-ws2812b/FatFs_SPI/ff15/source/ff.c.obj
 .text.dir_remove
                0x00000000       0x5e CMakeFiles/gif_screen_driver.dir/M_/house-projects/Christmas/display-screen-ws2812b/FatFs_SPI/ff15/source/ff.c.obj
 .text.sync_fs  0x00000000       0xa8 CMakeFiles/gif_screen_driver.dir/M_/house-projects/Christmas/display-screen-ws2812b/FatFs_SPI/ff15/source/ff.c.obj
 .rodata.create_partition.str1.4
                0x00000000       0x11 CMakeFiles/gif_screen_driver.dir/M_/house-projects/Christmas/display-screen-ws2812b/FatFs_SPI/ff15/source/ff.c.obj
 .text.create_partition
                0x00000000      0x534 CMakeFiles/gif_screen_driver.dir/M_/house-projects/Christmas/display-screen-ws2812b/FatFs_SPI/ff15/source/ff.c.obj
 .text.f_write  0x00000000      0x2a0 CMakeFiles/gif_screen_driver.dir/M_/house-projects/Christmas/display-screen-ws2812b/FatFs_SPI/ff15/source/ff.c.obj
 .text.putc_bfd
                0x00000000      0x18e CMakeFiles/gif_screen_driver.dir/M_/house-projects/Christmas/display-screen-ws2812b/FatFs_SPI/ff15/source/ff.c.obj
 .text.putc_flush
                0x00000000       0x3c CMakeFiles/gif_screen_driver.dir/M_/house-projects/Christmas/display-screen-ws2812b/FatFs_SPI/ff15/source/ff.c.obj
 .text.f_sync   0x00000000      0x17e CMakeFiles/gif_screen_driver.dir/M_/house-projects/Christmas/display-screen-ws2812b/FatFs_SPI/ff15/source/ff.c.obj
 .text.f_close  0x00000000       0x2e CMakeFiles/gif_screen_driver.dir/M_/house-projects/Christmas/display-screen-ws2812b/FatFs_SPI/ff15/source/ff.c.obj
 .text.f_chdrive
                0x00000000       0x24 CMakeFiles/gif_screen_driver.dir/M_/house-projects/Christmas/display-screen-ws2812b/FatFs_SPI/ff15/source/ff.c.obj
 .text.f_chdir  0x00000000       0xbe CMakeFiles/gif_screen_driver.dir/M_/house-projects/Christmas/display-screen-ws2812b/FatFs_SPI/ff15/source/ff.c.obj
 .text.f_getcwd
                0x00000000      0x150 CMakeFiles/gif_screen_driver.dir/M_/house-projects/Christmas/display-screen-ws2812b/FatFs_SPI/ff15/source/ff.c.obj
 .text.f_closedir
                0x00000000       0x2a CMakeFiles/gif_screen_driver.dir/M_/house-projects/Christmas/display-screen-ws2812b/FatFs_SPI/ff15/source/ff.c.obj
 .text.f_findfirst
                0x00000000       0x1e CMakeFiles/gif_screen_driver.dir/M_/house-projects/Christmas/display-screen-ws2812b/FatFs_SPI/ff15/source/ff.c.obj
 .text.f_stat   0x00000000       0x66 CMakeFiles/gif_screen_driver.dir/M_/house-projects/Christmas/display-screen-ws2812b/FatFs_SPI/ff15/source/ff.c.obj
 .text.f_getfree
                0x00000000      0x162 CMakeFiles/gif_screen_driver.dir/M_/house-projects/Christmas/display-screen-ws2812b/FatFs_SPI/ff15/source/ff.c.obj
 .text.f_truncate
                0x00000000       0xd0 CMakeFiles/gif_screen_driver.dir/M_/house-projects/Christmas/display-screen-ws2812b/FatFs_SPI/ff15/source/ff.c.obj
 .text.f_unlink
                0x00000000      0x126 CMakeFiles/gif_screen_driver.dir/M_/house-projects/Christmas/display-screen-ws2812b/FatFs_SPI/ff15/source/ff.c.obj
 .text.f_mkdir  0x00000000      0x1be CMakeFiles/gif_screen_driver.dir/M_/house-projects/Christmas/display-screen-ws2812b/FatFs_SPI/ff15/source/ff.c.obj
 .text.f_rename
                0x00000000      0x206 CMakeFiles/gif_screen_driver.dir/M_/house-projects/Christmas/display-screen-ws2812b/FatFs_SPI/ff15/source/ff.c.obj
 .rodata.f_mkfs.str1.4
                0x00000000       0x34 CMakeFiles/gif_screen_driver.dir/M_/house-projects/Christmas/display-screen-ws2812b/FatFs_SPI/ff15/source/ff.c.obj
 .text.f_mkfs   0x00000000     0x1104 CMakeFiles/gif_screen_driver.dir/M_/house-projects/Christmas/display-screen-ws2812b/FatFs_SPI/ff15/source/ff.c.obj
 .text.f_gets   0x00000000      0x17c CMakeFiles/gif_screen_driver.dir/M_/house-projects/Christmas/display-screen-ws2812b/FatFs_SPI/ff15/source/ff.c.obj
 .text.f_putc   0x00000000       0x1e CMakeFiles/gif_screen_driver.dir/M_/house-projects/Christmas/display-screen-ws2812b/FatFs_SPI/ff15/source/ff.c.obj
 .text.f_puts   0x00000000       0x26 CMakeFiles/gif_screen_driver.dir/M_/house-projects/Christmas/display-screen-ws2812b/FatFs_SPI/ff15/source/ff.c.obj
 .text.f_printf
                0x00000000      0x450 CMakeFiles/gif_screen_driver.dir/M_/house-projects/Christmas/display-screen-ws2812b/FatFs_SPI/ff15/source/ff.c.obj
 .rodata.f_printf
                0x00000000       0xd0 CMakeFiles/gif_screen_driver.dir/M_/house-projects/Christmas/display-screen-ws2812b/FatFs_SPI/ff15/source/ff.c.obj
 .rodata.cst.1  0x00000000        0xe CMakeFiles/gif_screen_driver.dir/M_/house-projects/Christmas/display-screen-ws2812b/FatFs_SPI/ff15/source/ff.c.obj
 .rodata.cst32.2
                0x00000000        0xe CMakeFiles/gif_screen_driver.dir/M_/house-projects/Christmas/display-screen-ws2812b/FatFs_SPI/ff15/source/ff.c.obj
 .rodata.defopt.3
                0x00000000       0x10 CMakeFiles/gif_screen_driver.dir/M_/house-projects/Christmas/display-screen-ws2812b/FatFs_SPI/ff15/source/ff.c.obj
 .text          0x00000000        0x0 CMakeFiles/gif_screen_driver.dir/M_/house-projects/Christmas/display-screen-ws2812b/FatFs_SPI/sd_driver/sd_spi.c.obj
 .data          0x00000000        0x0 CMakeFiles/gif_screen_driver.dir/M_/house-projects/Christmas/display-screen-ws2812b/FatFs_SPI/sd_driver/sd_spi.c.obj
 .bss           0x00000000        0x0 CMakeFiles/gif_screen_driver.dir/M_/house-projects/Christmas/display-screen-ws2812b/FatFs_SPI/sd_driver/sd_spi.c.obj
 .text.sd_spi_init_pl022
                0x00000000        0xc CMakeFiles/gif_screen_driver.dir/M_/house-projects/Christmas/display-screen-ws2812b/FatFs_SPI/sd_driver/sd_spi.c.obj
 .text          0x00000000        0x0 CMakeFiles/gif_screen_driver.dir/M_/house-projects/Christmas/display-screen-ws2812b/FatFs_SPI/sd_driver/demo_logging.c.obj
 .data          0x00000000        0x0 CMakeFiles/gif_screen_driver.dir/M_/house-projects/Christmas/display-screen-ws2812b/FatFs_SPI/sd_driver/demo_logging.c.obj
 .bss           0x00000000        0x0 CMakeFiles/gif_screen_driver.dir/M_/house-projects/Christmas/display-screen-ws2812b/FatFs_SPI/sd_driver/demo_logging.c.obj
 .rodata.vLoggingPrintf.str1.4
                0x00000000        0x3 CMakeFiles/gif_screen_driver.dir/M_/house-projects/Christmas/display-screen-ws2812b/FatFs_SPI/sd_driver/demo_logging.c.obj
 .text.vLoggingPrintf
                0x00000000       0x4c CMakeFiles/gif_screen_driver.dir/M_/house-projects/Christmas/display-screen-ws2812b/FatFs_SPI/sd_driver/demo_logging.c.obj
 .debug_info    0x00000000      0xa28 CMakeFiles/gif_screen_driver.dir/M_/house-projects/Christmas/display-screen-ws2812b/FatFs_SPI/sd_driver/demo_logging.c.obj
 .debug_abbrev  0x00000000      0x25c CMakeFiles/gif_screen_driver.dir/M_/house-projects/Christmas/display-screen-ws2812b/FatFs_SPI/sd_driver/demo_logging.c.obj
 .debug_aranges
                0x00000000       0x20 CMakeFiles/gif_screen_driver.dir/M_/house-projects/Christmas/display-screen-ws2812b/FatFs_SPI/sd_driver/demo_logging.c.obj
 .debug_ranges  0x00000000       0x10 CMakeFiles/gif_screen_driver.dir/M_/house-projects/Christmas/display-screen-ws2812b/FatFs_SPI/sd_driver/demo_logging.c.obj
 .debug_line    0x00000000      0x1a3 CMakeFiles/gif_screen_driver.dir/M_/house-projects/Christmas/display-screen-ws2812b/FatFs_SPI/sd_driver/demo_logging.c.obj
 .debug_str     0x00000000      0x611 CMakeFiles/gif_screen_driver.dir/M_/house-projects/Christmas/display-screen-ws2812b/FatFs_SPI/sd_driver/demo_logging.c.obj
 .comment       0x00000000       0x4a CMakeFiles/gif_screen_driver.dir/M_/house-projects/Christmas/display-screen-ws2812b/FatFs_SPI/sd_driver/demo_logging.c.obj
 .debug_frame   0x00000000       0x30 CMakeFiles/gif_screen_driver.dir/M_/house-projects/Christmas/display-screen-ws2812b/FatFs_SPI/sd_driver/demo_logging.c.obj
 .ARM.attributes
                0x00000000       0x2c CMakeFiles/gif_screen_driver.dir/M_/house-projects/Christmas/display-screen-ws2812b/FatFs_SPI/sd_driver/demo_logging.c.obj
 .text          0x00000000        0x0 CMakeFiles/gif_screen_driver.dir/M_/house-projects/Christmas/display-screen-ws2812b/FatFs_SPI/sd_driver/spi.c.obj
 .data          0x00000000        0x0 CMakeFiles/gif_screen_driver.dir/M_/house-projects/Christmas/display-screen-ws2812b/FatFs_SPI/sd_driver/spi.c.obj
 .bss           0x00000000        0x0 CMakeFiles/gif_screen_driver.dir/M_/house-projects/Christmas/display-screen-ws2812b/FatFs_SPI/sd_driver/spi.c.obj
 .text.set_spi_dma_irq_channel
                0x00000000       0x14 CMakeFiles/gif_screen_driver.dir/M_/house-projects/Christmas/display-screen-ws2812b/FatFs_SPI/sd_driver/spi.c.obj
 .text          0x00000000        0x0 CMakeFiles/gif_screen_driver.dir/M_/house-projects/Christmas/display-screen-ws2812b/FatFs_SPI/sd_driver/sd_card.c.obj
 .data          0x00000000        0x0 CMakeFiles/gif_screen_driver.dir/M_/house-projects/Christmas/display-screen-ws2812b/FatFs_SPI/sd_driver/sd_card.c.obj
 .bss           0x00000000        0x0 CMakeFiles/gif_screen_driver.dir/M_/house-projects/Christmas/display-screen-ws2812b/FatFs_SPI/sd_driver/sd_card.c.obj
 .text.sd_sectors
                0x00000000       0x1e CMakeFiles/gif_screen_driver.dir/M_/house-projects/Christmas/display-screen-ws2812b/FatFs_SPI/sd_driver/sd_card.c.obj
 .text          0x00000000        0x0 CMakeFiles/gif_screen_driver.dir/M_/house-projects/Christmas/display-screen-ws2812b/FatFs_SPI/sd_driver/crc.c.obj
 .data          0x00000000        0x0 CMakeFiles/gif_screen_driver.dir/M_/house-projects/Christmas/display-screen-ws2812b/FatFs_SPI/sd_driver/crc.c.obj
 .bss           0x00000000        0x0 CMakeFiles/gif_screen_driver.dir/M_/house-projects/Christmas/display-screen-ws2812b/FatFs_SPI/sd_driver/crc.c.obj
 .text.update_crc16
                0x00000000       0x28 CMakeFiles/gif_screen_driver.dir/M_/house-projects/Christmas/display-screen-ws2812b/FatFs_SPI/sd_driver/crc.c.obj
 .text          0x00000000        0x0 CMakeFiles/gif_screen_driver.dir/M_/house-projects/Christmas/display-screen-ws2812b/FatFs_SPI/src/glue.c.obj
 .data          0x00000000        0x0 CMakeFiles/gif_screen_driver.dir/M_/house-projects/Christmas/display-screen-ws2812b/FatFs_SPI/src/glue.c.obj
 .bss           0x00000000        0x0 CMakeFiles/gif_screen_driver.dir/M_/house-projects/Christmas/display-screen-ws2812b/FatFs_SPI/src/glue.c.obj
 .text.disk_ioctl
                0x00000000       0x4c CMakeFiles/gif_screen_driver.dir/M_/house-projects/Christmas/display-screen-ws2812b/FatFs_SPI/src/glue.c.obj
 .bss.n.1       0x00000000        0x8 CMakeFiles/gif_screen_driver.dir/M_/house-projects/Christmas/display-screen-ws2812b/FatFs_SPI/src/glue.c.obj
 .text          0x00000000        0x0 CMakeFiles/gif_screen_driver.dir/M_/house-projects/Christmas/display-screen-ws2812b/FatFs_SPI/src/f_util.c.obj
 .data          0x00000000        0x0 CMakeFiles/gif_screen_driver.dir/M_/house-projects/Christmas/display-screen-ws2812b/FatFs_SPI/src/f_util.c.obj
 .bss           0x00000000        0x0 CMakeFiles/gif_screen_driver.dir/M_/house-projects/Christmas/display-screen-ws2812b/FatFs_SPI/src/f_util.c.obj
 .text.delete_node
                0x00000000       0xae CMakeFiles/gif_screen_driver.dir/M_/house-projects/Christmas/display-screen-ws2812b/FatFs_SPI/src/f_util.c.obj
 .text          0x00000000        0x0 CMakeFiles/gif_screen_driver.dir/M_/house-projects/Christmas/display-screen-ws2812b/FatFs_SPI/src/ff_stdio.c.obj
 .data          0x00000000        0x0 CMakeFiles/gif_screen_driver.dir/M_/house-projects/Christmas/display-screen-ws2812b/FatFs_SPI/src/ff_stdio.c.obj
 .bss           0x00000000        0x0 CMakeFiles/gif_screen_driver.dir/M_/house-projects/Christmas/display-screen-ws2812b/FatFs_SPI/src/ff_stdio.c.obj
 .rodata.posix2mode.str1.4
                0x00000000       0x20 CMakeFiles/gif_screen_driver.dir/M_/house-projects/Christmas/display-screen-ws2812b/FatFs_SPI/src/ff_stdio.c.obj
 .text.posix2mode
                0x00000000       0xa8 CMakeFiles/gif_screen_driver.dir/M_/house-projects/Christmas/display-screen-ws2812b/FatFs_SPI/src/ff_stdio.c.obj
 .text.fresult2errno
                0x00000000       0x54 CMakeFiles/gif_screen_driver.dir/M_/house-projects/Christmas/display-screen-ws2812b/FatFs_SPI/src/ff_stdio.c.obj
 .rodata.fresult2errno
                0x00000000       0x50 CMakeFiles/gif_screen_driver.dir/M_/house-projects/Christmas/display-screen-ws2812b/FatFs_SPI/src/ff_stdio.c.obj
 .text.ff_fopen
                0x00000000       0x4e CMakeFiles/gif_screen_driver.dir/M_/house-projects/Christmas/display-screen-ws2812b/FatFs_SPI/src/ff_stdio.c.obj
 .text.ff_fclose
                0x00000000       0x2c CMakeFiles/gif_screen_driver.dir/M_/house-projects/Christmas/display-screen-ws2812b/FatFs_SPI/src/ff_stdio.c.obj
 .rodata.ff_stat.str1.4
                0x00000000       0x5c CMakeFiles/gif_screen_driver.dir/M_/house-projects/Christmas/display-screen-ws2812b/FatFs_SPI/src/ff_stdio.c.obj
 .text.ff_stat  0x00000000       0x50 CMakeFiles/gif_screen_driver.dir/M_/house-projects/Christmas/display-screen-ws2812b/FatFs_SPI/src/ff_stdio.c.obj
 .text.ff_fwrite
                0x00000000       0x34 CMakeFiles/gif_screen_driver.dir/M_/house-projects/Christmas/display-screen-ws2812b/FatFs_SPI/src/ff_stdio.c.obj
 .text.ff_fread
                0x00000000       0x34 CMakeFiles/gif_screen_driver.dir/M_/house-projects/Christmas/display-screen-ws2812b/FatFs_SPI/src/ff_stdio.c.obj
 .text.ff_chdir
                0x00000000       0x24 CMakeFiles/gif_screen_driver.dir/M_/house-projects/Christmas/display-screen-ws2812b/FatFs_SPI/src/ff_stdio.c.obj
 .text.ff_getcwd
                0x00000000       0x66 CMakeFiles/gif_screen_driver.dir/M_/house-projects/Christmas/display-screen-ws2812b/FatFs_SPI/src/ff_stdio.c.obj
 .text.ff_mkdir
                0x00000000       0x2c CMakeFiles/gif_screen_driver.dir/M_/house-projects/Christmas/display-screen-ws2812b/FatFs_SPI/src/ff_stdio.c.obj
 .text.ff_fputc
                0x00000000       0x3c CMakeFiles/gif_screen_driver.dir/M_/house-projects/Christmas/display-screen-ws2812b/FatFs_SPI/src/ff_stdio.c.obj
 .rodata.ff_fgetc.str1.4
                0x00000000        0x1 CMakeFiles/gif_screen_driver.dir/M_/house-projects/Christmas/display-screen-ws2812b/FatFs_SPI/src/ff_stdio.c.obj
 .text.ff_fgetc
                0x00000000       0x3c CMakeFiles/gif_screen_driver.dir/M_/house-projects/Christmas/display-screen-ws2812b/FatFs_SPI/src/ff_stdio.c.obj
 .text.ff_rmdir
                0x00000000       0x24 CMakeFiles/gif_screen_driver.dir/M_/house-projects/Christmas/display-screen-ws2812b/FatFs_SPI/src/ff_stdio.c.obj
 .text.ff_remove
                0x00000000       0x24 CMakeFiles/gif_screen_driver.dir/M_/house-projects/Christmas/display-screen-ws2812b/FatFs_SPI/src/ff_stdio.c.obj
 .rodata.ff_ftell.str1.4
                0x00000000        0xf CMakeFiles/gif_screen_driver.dir/M_/house-projects/Christmas/display-screen-ws2812b/FatFs_SPI/src/ff_stdio.c.obj
 .text.ff_ftell
                0x00000000       0x38 CMakeFiles/gif_screen_driver.dir/M_/house-projects/Christmas/display-screen-ws2812b/FatFs_SPI/src/ff_stdio.c.obj
 .rodata.ff_fseek.str1.4
                0x00000000        0xf CMakeFiles/gif_screen_driver.dir/M_/house-projects/Christmas/display-screen-ws2812b/FatFs_SPI/src/ff_stdio.c.obj
 .text.ff_fseek
                0x00000000       0x98 CMakeFiles/gif_screen_driver.dir/M_/house-projects/Christmas/display-screen-ws2812b/FatFs_SPI/src/ff_stdio.c.obj
 .rodata.ff_findfirst.str1.4
                0x00000000        0x2 CMakeFiles/gif_screen_driver.dir/M_/house-projects/Christmas/display-screen-ws2812b/FatFs_SPI/src/ff_stdio.c.obj
 .text.ff_findfirst
                0x00000000       0xe8 CMakeFiles/gif_screen_driver.dir/M_/house-projects/Christmas/display-screen-ws2812b/FatFs_SPI/src/ff_stdio.c.obj
 .text.ff_findnext
                0x00000000       0x4a CMakeFiles/gif_screen_driver.dir/M_/house-projects/Christmas/display-screen-ws2812b/FatFs_SPI/src/ff_stdio.c.obj
 .rodata.ff_truncate.str1.4
                0x00000000       0x57 CMakeFiles/gif_screen_driver.dir/M_/house-projects/Christmas/display-screen-ws2812b/FatFs_SPI/src/ff_stdio.c.obj
 .text.ff_truncate
                0x00000000      0x120 CMakeFiles/gif_screen_driver.dir/M_/house-projects/Christmas/display-screen-ws2812b/FatFs_SPI/src/ff_stdio.c.obj
 .text.ff_seteof
                0x00000000       0x24 CMakeFiles/gif_screen_driver.dir/M_/house-projects/Christmas/display-screen-ws2812b/FatFs_SPI/src/ff_stdio.c.obj
 .text.ff_rename
                0x00000000       0x38 CMakeFiles/gif_screen_driver.dir/M_/house-projects/Christmas/display-screen-ws2812b/FatFs_SPI/src/ff_stdio.c.obj
 .text.ff_fgets
                0x00000000       0x1c CMakeFiles/gif_screen_driver.dir/M_/house-projects/Christmas/display-screen-ws2812b/FatFs_SPI/src/ff_stdio.c.obj
 .rodata.__func__.0
                0x00000000        0xc CMakeFiles/gif_screen_driver.dir/M_/house-projects/Christmas/display-screen-ws2812b/FatFs_SPI/src/ff_stdio.c.obj
 .rodata.__func__.1
                0x00000000        0x9 CMakeFiles/gif_screen_driver.dir/M_/house-projects/Christmas/display-screen-ws2812b/FatFs_SPI/src/ff_stdio.c.obj
 .rodata.__func__.2
                0x00000000        0x9 CMakeFiles/gif_screen_driver.dir/M_/house-projects/Christmas/display-screen-ws2812b/FatFs_SPI/src/ff_stdio.c.obj
 .rodata.__func__.3
                0x00000000        0x8 CMakeFiles/gif_screen_driver.dir/M_/house-projects/Christmas/display-screen-ws2812b/FatFs_SPI/src/ff_stdio.c.obj
 .debug_info    0x00000000     0x196b CMakeFiles/gif_screen_driver.dir/M_/house-projects/Christmas/display-screen-ws2812b/FatFs_SPI/src/ff_stdio.c.obj
 .debug_abbrev  0x00000000      0x2b7 CMakeFiles/gif_screen_driver.dir/M_/house-projects/Christmas/display-screen-ws2812b/FatFs_SPI/src/ff_stdio.c.obj
 .debug_loc     0x00000000     0x1004 CMakeFiles/gif_screen_driver.dir/M_/house-projects/Christmas/display-screen-ws2812b/FatFs_SPI/src/ff_stdio.c.obj
 .debug_aranges
                0x00000000       0xc8 CMakeFiles/gif_screen_driver.dir/M_/house-projects/Christmas/display-screen-ws2812b/FatFs_SPI/src/ff_stdio.c.obj
 .debug_ranges  0x00000000       0xd0 CMakeFiles/gif_screen_driver.dir/M_/house-projects/Christmas/display-screen-ws2812b/FatFs_SPI/src/ff_stdio.c.obj
 .debug_line    0x00000000      0xbbb CMakeFiles/gif_screen_driver.dir/M_/house-projects/Christmas/display-screen-ws2812b/FatFs_SPI/src/ff_stdio.c.obj
 .debug_str     0x00000000      0x7de CMakeFiles/gif_screen_driver.dir/M_/house-projects/Christmas/display-screen-ws2812b/FatFs_SPI/src/ff_stdio.c.obj
 .comment       0x00000000       0x4a CMakeFiles/gif_screen_driver.dir/M_/house-projects/Christmas/display-screen-ws2812b/FatFs_SPI/src/ff_stdio.c.obj
 .debug_frame   0x00000000      0x294 CMakeFiles/gif_screen_driver.dir/M_/house-projects/Christmas/display-screen-ws2812b/FatFs_SPI/src/ff_stdio.c.obj
 .ARM.attributes
                0x00000000       0x2c CMakeFiles/gif_screen_driver.dir/M_/house-projects/Christmas/display-screen-ws2812b/FatFs_SPI/src/ff_stdio.c.obj
 .text          0x00000000        0x0 CMakeFiles/gif_screen_driver.dir/M_/house-projects/Christmas/display-screen-ws2812b/FatFs_SPI/src/my_debug.c.obj
 .data          0x00000000        0x0 CMakeFiles/gif_screen_driver.dir/M_/house-projects/Christmas/display-screen-ws2812b/FatFs_SPI/src/my_debug.c.obj
 .bss           0x00000000        0x0 CMakeFiles/gif_screen_driver.dir/M_/house-projects/Christmas/display-screen-ws2812b/FatFs_SPI/src/my_debug.c.obj
 .text          0x00000000        0x0 CMakeFiles/gif_screen_driver.dir/M_/house-projects/Christmas/display-screen-ws2812b/FatFs_SPI/src/rtc.c.obj
 .data          0x00000000        0x0 CMakeFiles/gif_screen_driver.dir/M_/house-projects/Christmas/display-screen-ws2812b/FatFs_SPI/src/rtc.c.obj
 .bss           0x00000000        0x0 CMakeFiles/gif_screen_driver.dir/M_/house-projects/Christmas/display-screen-ws2812b/FatFs_SPI/src/rtc.c.obj
 .text.update_epochtime
                0x00000000       0x84 CMakeFiles/gif_screen_driver.dir/M_/house-projects/Christmas/display-screen-ws2812b/FatFs_SPI/src/rtc.c.obj
 .text.time     0x00000000       0x24 CMakeFiles/gif_screen_driver.dir/M_/house-projects/Christmas/display-screen-ws2812b/FatFs_SPI/src/rtc.c.obj
 .text.time_init
                0x00000000       0x68 CMakeFiles/gif_screen_driver.dir/M_/house-projects/Christmas/display-screen-ws2812b/FatFs_SPI/src/rtc.c.obj
 .bss.epochtime
                0x00000000        0x8 CMakeFiles/gif_screen_driver.dir/M_/house-projects/Christmas/display-screen-ws2812b/FatFs_SPI/src/rtc.c.obj
 .uninitialized_data
                0x00000000       0x10 CMakeFiles/gif_screen_driver.dir/M_/house-projects/Christmas/display-screen-ws2812b/FatFs_SPI/src/rtc.c.obj
 .text          0x00000000        0x0 CMakeFiles/gif_screen_driver.dir/C_/VSARM/sdk/pico/pico-sdk/src/rp2_common/hardware_spi/spi.c.obj
 .data          0x00000000        0x0 CMakeFiles/gif_screen_driver.dir/C_/VSARM/sdk/pico/pico-sdk/src/rp2_common/hardware_spi/spi.c.obj
 .bss           0x00000000        0x0 CMakeFiles/gif_screen_driver.dir/C_/VSARM/sdk/pico/pico-sdk/src/rp2_common/hardware_spi/spi.c.obj
 .text.spi_deinit
                0x00000000       0x34 CMakeFiles/gif_screen_driver.dir/C_/VSARM/sdk/pico/pico-sdk/src/rp2_common/hardware_spi/spi.c.obj
 .text.spi_get_baudrate
                0x00000000       0x1e CMakeFiles/gif_screen_driver.dir/C_/VSARM/sdk/pico/pico-sdk/src/rp2_common/hardware_spi/spi.c.obj
 .time_critical.spi_write_read_blocking
                0x00000000       0x42 CMakeFiles/gif_screen_driver.dir/C_/VSARM/sdk/pico/pico-sdk/src/rp2_common/hardware_spi/spi.c.obj
 .time_critical.spi_read_blocking
                0x00000000       0x3e CMakeFiles/gif_screen_driver.dir/C_/VSARM/sdk/pico/pico-sdk/src/rp2_common/hardware_spi/spi.c.obj
 .time_critical.spi_write16_read16_blocking
                0x00000000       0x42 CMakeFiles/gif_screen_driver.dir/C_/VSARM/sdk/pico/pico-sdk/src/rp2_common/hardware_spi/spi.c.obj
 .time_critical.spi_write16_blocking
                0x00000000       0x3c CMakeFiles/gif_screen_driver.dir/C_/VSARM/sdk/pico/pico-sdk/src/rp2_common/hardware_spi/spi.c.obj
 .time_critical.spi_read16_blocking
                0x00000000       0x3e CMakeFiles/gif_screen_driver.dir/C_/VSARM/sdk/pico/pico-sdk/src/rp2_common/hardware_spi/spi.c.obj
 .text          0x00000000        0x0 CMakeFiles/gif_screen_driver.dir/C_/VSARM/sdk/pico/pico-sdk/src/rp2_common/hardware_dma/dma.c.obj
 .data          0x00000000        0x0 CMakeFiles/gif_screen_driver.dir/C_/VSARM/sdk/pico/pico-sdk/src/rp2_common/hardware_dma/dma.c.obj
 .bss           0x00000000        0x0 CMakeFiles/gif_screen_driver.dir/C_/VSARM/sdk/pico/pico-sdk/src/rp2_common/hardware_dma/dma.c.obj
 .rodata.dma_channel_claim.str1.4
                0x00000000       0x22 CMakeFiles/gif_screen_driver.dir/C_/VSARM/sdk/pico/pico-sdk/src/rp2_common/hardware_dma/dma.c.obj
 .text.dma_channel_claim
                0x00000000       0x18 CMakeFiles/gif_screen_driver.dir/C_/VSARM/sdk/pico/pico-sdk/src/rp2_common/hardware_dma/dma.c.obj
 .text.dma_claim_mask
                0x00000000       0x1e CMakeFiles/gif_screen_driver.dir/C_/VSARM/sdk/pico/pico-sdk/src/rp2_common/hardware_dma/dma.c.obj
 .text.dma_channel_unclaim
                0x00000000       0x10 CMakeFiles/gif_screen_driver.dir/C_/VSARM/sdk/pico/pico-sdk/src/rp2_common/hardware_dma/dma.c.obj
 .text.dma_unclaim_mask
                0x00000000       0x1e CMakeFiles/gif_screen_driver.dir/C_/VSARM/sdk/pico/pico-sdk/src/rp2_common/hardware_dma/dma.c.obj
 .text.dma_channel_is_claimed
                0x00000000       0x10 CMakeFiles/gif_screen_driver.dir/C_/VSARM/sdk/pico/pico-sdk/src/rp2_common/hardware_dma/dma.c.obj
 .rodata.dma_timer_claim.str1.4
                0x00000000       0x20 CMakeFiles/gif_screen_driver.dir/C_/VSARM/sdk/pico/pico-sdk/src/rp2_common/hardware_dma/dma.c.obj
 .text.dma_timer_claim
                0x00000000       0x18 CMakeFiles/gif_screen_driver.dir/C_/VSARM/sdk/pico/pico-sdk/src/rp2_common/hardware_dma/dma.c.obj
 .text.dma_timer_unclaim
                0x00000000       0x10 CMakeFiles/gif_screen_driver.dir/C_/VSARM/sdk/pico/pico-sdk/src/rp2_common/hardware_dma/dma.c.obj
 .rodata.dma_claim_unused_timer.str1.4
                0x00000000       0x1c CMakeFiles/gif_screen_driver.dir/C_/VSARM/sdk/pico/pico-sdk/src/rp2_common/hardware_dma/dma.c.obj
 .text.dma_claim_unused_timer
                0x00000000       0x20 CMakeFiles/gif_screen_driver.dir/C_/VSARM/sdk/pico/pico-sdk/src/rp2_common/hardware_dma/dma.c.obj
 .text.dma_timer_is_claimed
                0x00000000       0x10 CMakeFiles/gif_screen_driver.dir/C_/VSARM/sdk/pico/pico-sdk/src/rp2_common/hardware_dma/dma.c.obj
 .text.dma_channel_cleanup
                0x00000000       0x5c CMakeFiles/gif_screen_driver.dir/C_/VSARM/sdk/pico/pico-sdk/src/rp2_common/hardware_dma/dma.c.obj
 .rodata.print_dma_ctrl.str1.4
                0x00000000       0x63 CMakeFiles/gif_screen_driver.dir/C_/VSARM/sdk/pico/pico-sdk/src/rp2_common/hardware_dma/dma.c.obj
 .text.print_dma_ctrl
                0x00000000       0xac CMakeFiles/gif_screen_driver.dir/C_/VSARM/sdk/pico/pico-sdk/src/rp2_common/hardware_dma/dma.c.obj
 .bss._timer_claimed
                0x00000000        0x1 CMakeFiles/gif_screen_driver.dir/C_/VSARM/sdk/pico/pico-sdk/src/rp2_common/hardware_dma/dma.c.obj
 .text          0x00000000        0x0 CMakeFiles/gif_screen_driver.dir/C_/VSARM/sdk/pico/pico-sdk/src/rp2_common/hardware_rtc/rtc.c.obj
 .data          0x00000000        0x0 CMakeFiles/gif_screen_driver.dir/C_/VSARM/sdk/pico/pico-sdk/src/rp2_common/hardware_rtc/rtc.c.obj
 .bss           0x00000000        0x0 CMakeFiles/gif_screen_driver.dir/C_/VSARM/sdk/pico/pico-sdk/src/rp2_common/hardware_rtc/rtc.c.obj
 .text.valid_datetime
                0x00000000       0x5a CMakeFiles/gif_screen_driver.dir/C_/VSARM/sdk/pico/pico-sdk/src/rp2_common/hardware_rtc/rtc.c.obj
 .text.rtc_alarm_repeats
                0x00000000       0x58 CMakeFiles/gif_screen_driver.dir/C_/VSARM/sdk/pico/pico-sdk/src/rp2_common/hardware_rtc/rtc.c.obj
 .rodata.rtc_init.str1.4
                0x00000000       0x6f CMakeFiles/gif_screen_driver.dir/C_/VSARM/sdk/pico/pico-sdk/src/rp2_common/hardware_rtc/rtc.c.obj
 .text.rtc_init
                0x00000000       0x6c CMakeFiles/gif_screen_driver.dir/C_/VSARM/sdk/pico/pico-sdk/src/rp2_common/hardware_rtc/rtc.c.obj
 .text.rtc_set_datetime
                0x00000000       0x68 CMakeFiles/gif_screen_driver.dir/C_/VSARM/sdk/pico/pico-sdk/src/rp2_common/hardware_rtc/rtc.c.obj
 .text.rtc_enable_alarm
                0x00000000       0x1c CMakeFiles/gif_screen_driver.dir/C_/VSARM/sdk/pico/pico-sdk/src/rp2_common/hardware_rtc/rtc.c.obj
 .text.rtc_disable_alarm
                0x00000000       0x1c CMakeFiles/gif_screen_driver.dir/C_/VSARM/sdk/pico/pico-sdk/src/rp2_common/hardware_rtc/rtc.c.obj
 .text.rtc_set_alarm
                0x00000000      0x140 CMakeFiles/gif_screen_driver.dir/C_/VSARM/sdk/pico/pico-sdk/src/rp2_common/hardware_rtc/rtc.c.obj
 .text.rtc_irq_handler
                0x00000000       0x28 CMakeFiles/gif_screen_driver.dir/C_/VSARM/sdk/pico/pico-sdk/src/rp2_common/hardware_rtc/rtc.c.obj
 .bss._alarm_repeats
                0x00000000        0x1 CMakeFiles/gif_screen_driver.dir/C_/VSARM/sdk/pico/pico-sdk/src/rp2_common/hardware_rtc/rtc.c.obj
 .bss._callback
                0x00000000        0x4 CMakeFiles/gif_screen_driver.dir/C_/VSARM/sdk/pico/pico-sdk/src/rp2_common/hardware_rtc/rtc.c.obj
 .rodata.__func__.0
                0x00000000        0x9 CMakeFiles/gif_screen_driver.dir/C_/VSARM/sdk/pico/pico-sdk/src/rp2_common/hardware_rtc/rtc.c.obj
 .text          0x00000000        0x0 C:\Users\Branden\AppData\Local\Temp\ccKio3yU.o
 .data          0x00000000        0x0 C:\Users\Branden\AppData\Local\Temp\ccKio3yU.o
 .bss           0x00000000        0x0 C:\Users\Branden\AppData\Local\Temp\ccKio3yU.o
 .data          0x00000000        0x0 c:/vsarm/armcc/102021~1.10/bin/../lib/gcc/arm-none-eabi/10.3.1/thumb/v6-m/nofp\libgcc.a(_dvmd_tls.o)
 .bss           0x00000000        0x0 c:/vsarm/armcc/102021~1.10/bin/../lib/gcc/arm-none-eabi/10.3.1/thumb/v6-m/nofp\libgcc.a(_dvmd_tls.o)
 .text          0x00000000        0x0 c:/vsarm/armcc/102021~1.10/bin/../lib/gcc/arm-none-eabi/10.3.1/../../../../arm-none-eabi/lib/thumb/v6-m/nofp\libg.a(lib_a-calloc.o)
 .data          0x00000000        0x0 c:/vsarm/armcc/102021~1.10/bin/../lib/gcc/arm-none-eabi/10.3.1/../../../../arm-none-eabi/lib/thumb/v6-m/nofp\libg.a(lib_a-calloc.o)
 .bss           0x00000000        0x0 c:/vsarm/armcc/102021~1.10/bin/../lib/gcc/arm-none-eabi/10.3.1/../../../../arm-none-eabi/lib/thumb/v6-m/nofp\libg.a(lib_a-calloc.o)
 .text          0x00000000        0x0 c:/vsarm/armcc/102021~1.10/bin/../lib/gcc/arm-none-eabi/10.3.1/../../../../arm-none-eabi/lib/thumb/v6-m/nofp\libg.a(lib_a-callocr.o)
 .data          0x00000000        0x0 c:/vsarm/armcc/102021~1.10/bin/../lib/gcc/arm-none-eabi/10.3.1/../../../../arm-none-eabi/lib/thumb/v6-m/nofp\libg.a(lib_a-callocr.o)
 .bss           0x00000000        0x0 c:/vsarm/armcc/102021~1.10/bin/../lib/gcc/arm-none-eabi/10.3.1/../../../../arm-none-eabi/lib/thumb/v6-m/nofp\libg.a(lib_a-callocr.o)
 .text          0x00000000        0x0 c:/vsarm/armcc/102021~1.10/bin/../lib/gcc/arm-none-eabi/10.3.1/../../../../arm-none-eabi/lib/thumb/v6-m/nofp\libg.a(lib_a-errno.o)
 .data          0x00000000        0x0 c:/vsarm/armcc/102021~1.10/bin/../lib/gcc/arm-none-eabi/10.3.1/../../../../arm-none-eabi/lib/thumb/v6-m/nofp\libg.a(lib_a-errno.o)
 .bss           0x00000000        0x0 c:/vsarm/armcc/102021~1.10/bin/../lib/gcc/arm-none-eabi/10.3.1/../../../../arm-none-eabi/lib/thumb/v6-m/nofp\libg.a(lib_a-errno.o)
 .text          0x00000000        0x0 c:/vsarm/armcc/102021~1.10/bin/../lib/gcc/arm-none-eabi/10.3.1/../../../../arm-none-eabi/lib/thumb/v6-m/nofp\libg.a(lib_a-fflush.o)
 .data          0x00000000        0x0 c:/vsarm/armcc/102021~1.10/bin/../lib/gcc/arm-none-eabi/10.3.1/../../../../arm-none-eabi/lib/thumb/v6-m/nofp\libg.a(lib_a-fflush.o)
 .bss           0x00000000        0x0 c:/vsarm/armcc/102021~1.10/bin/../lib/gcc/arm-none-eabi/10.3.1/../../../../arm-none-eabi/lib/thumb/v6-m/nofp\libg.a(lib_a-fflush.o)
 .text          0x00000000        0x0 c:/vsarm/armcc/102021~1.10/bin/../lib/gcc/arm-none-eabi/10.3.1/../../../../arm-none-eabi/lib/thumb/v6-m/nofp\libg.a(lib_a-findfp.o)
 .data          0x00000000        0x0 c:/vsarm/armcc/102021~1.10/bin/../lib/gcc/arm-none-eabi/10.3.1/../../../../arm-none-eabi/lib/thumb/v6-m/nofp\libg.a(lib_a-findfp.o)
 .bss           0x00000000        0x0 c:/vsarm/armcc/102021~1.10/bin/../lib/gcc/arm-none-eabi/10.3.1/../../../../arm-none-eabi/lib/thumb/v6-m/nofp\libg.a(lib_a-findfp.o)
 .text.__fp_lock
                0x00000000       0x1c c:/vsarm/armcc/102021~1.10/bin/../lib/gcc/arm-none-eabi/10.3.1/../../../../arm-none-eabi/lib/thumb/v6-m/nofp\libg.a(lib_a-findfp.o)
 .text.__fp_unlock
                0x00000000       0x1c c:/vsarm/armcc/102021~1.10/bin/../lib/gcc/arm-none-eabi/10.3.1/../../../../arm-none-eabi/lib/thumb/v6-m/nofp\libg.a(lib_a-findfp.o)
 .text.__sfmoreglue
                0x00000000       0x30 c:/vsarm/armcc/102021~1.10/bin/../lib/gcc/arm-none-eabi/10.3.1/../../../../arm-none-eabi/lib/thumb/v6-m/nofp\libg.a(lib_a-findfp.o)
 .text._cleanup
                0x00000000       0x18 c:/vsarm/armcc/102021~1.10/bin/../lib/gcc/arm-none-eabi/10.3.1/../../../../arm-none-eabi/lib/thumb/v6-m/nofp\libg.a(lib_a-findfp.o)
 .text.__sfp    0x00000000       0xd8 c:/vsarm/armcc/102021~1.10/bin/../lib/gcc/arm-none-eabi/10.3.1/../../../../arm-none-eabi/lib/thumb/v6-m/nofp\libg.a(lib_a-findfp.o)
 .text.__sinit_lock_acquire
                0x00000000       0x10 c:/vsarm/armcc/102021~1.10/bin/../lib/gcc/arm-none-eabi/10.3.1/../../../../arm-none-eabi/lib/thumb/v6-m/nofp\libg.a(lib_a-findfp.o)
 .text.__sinit_lock_release
                0x00000000       0x10 c:/vsarm/armcc/102021~1.10/bin/../lib/gcc/arm-none-eabi/10.3.1/../../../../arm-none-eabi/lib/thumb/v6-m/nofp\libg.a(lib_a-findfp.o)
 .text.__fp_lock_all
                0x00000000       0x20 c:/vsarm/armcc/102021~1.10/bin/../lib/gcc/arm-none-eabi/10.3.1/../../../../arm-none-eabi/lib/thumb/v6-m/nofp\libg.a(lib_a-findfp.o)
 .text.__fp_unlock_all
                0x00000000       0x20 c:/vsarm/armcc/102021~1.10/bin/../lib/gcc/arm-none-eabi/10.3.1/../../../../arm-none-eabi/lib/thumb/v6-m/nofp\libg.a(lib_a-findfp.o)
 .text          0x00000000        0x0 c:/vsarm/armcc/102021~1.10/bin/../lib/gcc/arm-none-eabi/10.3.1/../../../../arm-none-eabi/lib/thumb/v6-m/nofp\libg.a(lib_a-freer.o)
 .data          0x00000000        0x0 c:/vsarm/armcc/102021~1.10/bin/../lib/gcc/arm-none-eabi/10.3.1/../../../../arm-none-eabi/lib/thumb/v6-m/nofp\libg.a(lib_a-freer.o)
 .bss           0x00000000        0x0 c:/vsarm/armcc/102021~1.10/bin/../lib/gcc/arm-none-eabi/10.3.1/../../../../arm-none-eabi/lib/thumb/v6-m/nofp\libg.a(lib_a-freer.o)
 .text          0x00000000        0x0 c:/vsarm/armcc/102021~1.10/bin/../lib/gcc/arm-none-eabi/10.3.1/../../../../arm-none-eabi/lib/thumb/v6-m/nofp\libg.a(lib_a-fwalk.o)
 .data          0x00000000        0x0 c:/vsarm/armcc/102021~1.10/bin/../lib/gcc/arm-none-eabi/10.3.1/../../../../arm-none-eabi/lib/thumb/v6-m/nofp\libg.a(lib_a-fwalk.o)
 .bss           0x00000000        0x0 c:/vsarm/armcc/102021~1.10/bin/../lib/gcc/arm-none-eabi/10.3.1/../../../../arm-none-eabi/lib/thumb/v6-m/nofp\libg.a(lib_a-fwalk.o)
 .text._fwalk   0x00000000       0x40 c:/vsarm/armcc/102021~1.10/bin/../lib/gcc/arm-none-eabi/10.3.1/../../../../arm-none-eabi/lib/thumb/v6-m/nofp\libg.a(lib_a-fwalk.o)
 .text          0x00000000        0x0 c:/vsarm/armcc/102021~1.10/bin/../lib/gcc/arm-none-eabi/10.3.1/../../../../arm-none-eabi/lib/thumb/v6-m/nofp\libg.a(lib_a-impure.o)
 .data          0x00000000        0x0 c:/vsarm/armcc/102021~1.10/bin/../lib/gcc/arm-none-eabi/10.3.1/../../../../arm-none-eabi/lib/thumb/v6-m/nofp\libg.a(lib_a-impure.o)
 .bss           0x00000000        0x0 c:/vsarm/armcc/102021~1.10/bin/../lib/gcc/arm-none-eabi/10.3.1/../../../../arm-none-eabi/lib/thumb/v6-m/nofp\libg.a(lib_a-impure.o)
 .text          0x00000000        0x0 c:/vsarm/armcc/102021~1.10/bin/../lib/gcc/arm-none-eabi/10.3.1/../../../../arm-none-eabi/lib/thumb/v6-m/nofp\libg.a(lib_a-init.o)
 .data          0x00000000        0x0 c:/vsarm/armcc/102021~1.10/bin/../lib/gcc/arm-none-eabi/10.3.1/../../../../arm-none-eabi/lib/thumb/v6-m/nofp\libg.a(lib_a-init.o)
 .bss           0x00000000        0x0 c:/vsarm/armcc/102021~1.10/bin/../lib/gcc/arm-none-eabi/10.3.1/../../../../arm-none-eabi/lib/thumb/v6-m/nofp\libg.a(lib_a-init.o)
 .text.__libc_init_array
                0x00000000       0x44 c:/vsarm/armcc/102021~1.10/bin/../lib/gcc/arm-none-eabi/10.3.1/../../../../arm-none-eabi/lib/thumb/v6-m/nofp\libg.a(lib_a-init.o)
 .debug_frame   0x00000000       0x2c c:/vsarm/armcc/102021~1.10/bin/../lib/gcc/arm-none-eabi/10.3.1/../../../../arm-none-eabi/lib/thumb/v6-m/nofp\libg.a(lib_a-init.o)
 .ARM.attributes
                0x00000000       0x2c c:/vsarm/armcc/102021~1.10/bin/../lib/gcc/arm-none-eabi/10.3.1/../../../../arm-none-eabi/lib/thumb/v6-m/nofp\libg.a(lib_a-init.o)
 .text          0x00000000        0x0 c:/vsarm/armcc/102021~1.10/bin/../lib/gcc/arm-none-eabi/10.3.1/../../../../arm-none-eabi/lib/thumb/v6-m/nofp\libg.a(lib_a-lock.o)
 .data          0x00000000        0x0 c:/vsarm/armcc/102021~1.10/bin/../lib/gcc/arm-none-eabi/10.3.1/../../../../arm-none-eabi/lib/thumb/v6-m/nofp\libg.a(lib_a-lock.o)
 .bss           0x00000000        0x0 c:/vsarm/armcc/102021~1.10/bin/../lib/gcc/arm-none-eabi/10.3.1/../../../../arm-none-eabi/lib/thumb/v6-m/nofp\libg.a(lib_a-lock.o)
 .text.__retarget_lock_init
                0x00000000        0x4 c:/vsarm/armcc/102021~1.10/bin/../lib/gcc/arm-none-eabi/10.3.1/../../../../arm-none-eabi/lib/thumb/v6-m/nofp\libg.a(lib_a-lock.o)
 .text.__retarget_lock_close
                0x00000000        0x4 c:/vsarm/armcc/102021~1.10/bin/../lib/gcc/arm-none-eabi/10.3.1/../../../../arm-none-eabi/lib/thumb/v6-m/nofp\libg.a(lib_a-lock.o)
 .text.__retarget_lock_acquire
                0x00000000        0x4 c:/vsarm/armcc/102021~1.10/bin/../lib/gcc/arm-none-eabi/10.3.1/../../../../arm-none-eabi/lib/thumb/v6-m/nofp\libg.a(lib_a-lock.o)
 .text.__retarget_lock_try_acquire
                0x00000000        0x4 c:/vsarm/armcc/102021~1.10/bin/../lib/gcc/arm-none-eabi/10.3.1/../../../../arm-none-eabi/lib/thumb/v6-m/nofp\libg.a(lib_a-lock.o)
 .text.__retarget_lock_try_acquire_recursive
                0x00000000        0x4 c:/vsarm/armcc/102021~1.10/bin/../lib/gcc/arm-none-eabi/10.3.1/../../../../arm-none-eabi/lib/thumb/v6-m/nofp\libg.a(lib_a-lock.o)
 .text.__retarget_lock_release
                0x00000000        0x4 c:/vsarm/armcc/102021~1.10/bin/../lib/gcc/arm-none-eabi/10.3.1/../../../../arm-none-eabi/lib/thumb/v6-m/nofp\libg.a(lib_a-lock.o)
 .bss.__lock___arc4random_mutex
                0x00000000        0x1 c:/vsarm/armcc/102021~1.10/bin/../lib/gcc/arm-none-eabi/10.3.1/../../../../arm-none-eabi/lib/thumb/v6-m/nofp\libg.a(lib_a-lock.o)
 .bss.__lock___at_quick_exit_mutex
                0x00000000        0x1 c:/vsarm/armcc/102021~1.10/bin/../lib/gcc/arm-none-eabi/10.3.1/../../../../arm-none-eabi/lib/thumb/v6-m/nofp\libg.a(lib_a-lock.o)
 .bss.__lock___atexit_recursive_mutex
                0x00000000        0x1 c:/vsarm/armcc/102021~1.10/bin/../lib/gcc/arm-none-eabi/10.3.1/../../../../arm-none-eabi/lib/thumb/v6-m/nofp\libg.a(lib_a-lock.o)
 .bss.__lock___dd_hash_mutex
                0x00000000        0x1 c:/vsarm/armcc/102021~1.10/bin/../lib/gcc/arm-none-eabi/10.3.1/../../../../arm-none-eabi/lib/thumb/v6-m/nofp\libg.a(lib_a-lock.o)
 .bss.__lock___env_recursive_mutex
                0x00000000        0x1 c:/vsarm/armcc/102021~1.10/bin/../lib/gcc/arm-none-eabi/10.3.1/../../../../arm-none-eabi/lib/thumb/v6-m/nofp\libg.a(lib_a-lock.o)
 .bss.__lock___tz_mutex
                0x00000000        0x1 c:/vsarm/armcc/102021~1.10/bin/../lib/gcc/arm-none-eabi/10.3.1/../../../../arm-none-eabi/lib/thumb/v6-m/nofp\libg.a(lib_a-lock.o)
 .text          0x00000000        0x0 c:/vsarm/armcc/102021~1.10/bin/../lib/gcc/arm-none-eabi/10.3.1/../../../../arm-none-eabi/lib/thumb/v6-m/nofp\libg.a(lib_a-malloc.o)
 .data          0x00000000        0x0 c:/vsarm/armcc/102021~1.10/bin/../lib/gcc/arm-none-eabi/10.3.1/../../../../arm-none-eabi/lib/thumb/v6-m/nofp\libg.a(lib_a-malloc.o)
 .bss           0x00000000        0x0 c:/vsarm/armcc/102021~1.10/bin/../lib/gcc/arm-none-eabi/10.3.1/../../../../arm-none-eabi/lib/thumb/v6-m/nofp\libg.a(lib_a-malloc.o)
 .text          0x00000000        0x0 c:/vsarm/armcc/102021~1.10/bin/../lib/gcc/arm-none-eabi/10.3.1/../../../../arm-none-eabi/lib/thumb/v6-m/nofp\libg.a(lib_a-mallocr.o)
 .data          0x00000000        0x0 c:/vsarm/armcc/102021~1.10/bin/../lib/gcc/arm-none-eabi/10.3.1/../../../../arm-none-eabi/lib/thumb/v6-m/nofp\libg.a(lib_a-mallocr.o)
 .bss           0x00000000        0x0 c:/vsarm/armcc/102021~1.10/bin/../lib/gcc/arm-none-eabi/10.3.1/../../../../arm-none-eabi/lib/thumb/v6-m/nofp\libg.a(lib_a-mallocr.o)
 .text          0x00000000        0x0 c:/vsarm/armcc/102021~1.10/bin/../lib/gcc/arm-none-eabi/10.3.1/../../../../arm-none-eabi/lib/thumb/v6-m/nofp\libg.a(lib_a-memcmp.o)
 .data          0x00000000        0x0 c:/vsarm/armcc/102021~1.10/bin/../lib/gcc/arm-none-eabi/10.3.1/../../../../arm-none-eabi/lib/thumb/v6-m/nofp\libg.a(lib_a-memcmp.o)
 .bss           0x00000000        0x0 c:/vsarm/armcc/102021~1.10/bin/../lib/gcc/arm-none-eabi/10.3.1/../../../../arm-none-eabi/lib/thumb/v6-m/nofp\libg.a(lib_a-memcmp.o)
 .text          0x00000000        0x0 c:/vsarm/armcc/102021~1.10/bin/../lib/gcc/arm-none-eabi/10.3.1/../../../../arm-none-eabi/lib/thumb/v6-m/nofp\libg.a(lib_a-mktime.o)
 .data          0x00000000        0x0 c:/vsarm/armcc/102021~1.10/bin/../lib/gcc/arm-none-eabi/10.3.1/../../../../arm-none-eabi/lib/thumb/v6-m/nofp\libg.a(lib_a-mktime.o)
 .bss           0x00000000        0x0 c:/vsarm/armcc/102021~1.10/bin/../lib/gcc/arm-none-eabi/10.3.1/../../../../arm-none-eabi/lib/thumb/v6-m/nofp\libg.a(lib_a-mktime.o)
 .text.validate_structure
                0x00000000      0x1e0 c:/vsarm/armcc/102021~1.10/bin/../lib/gcc/arm-none-eabi/10.3.1/../../../../arm-none-eabi/lib/thumb/v6-m/nofp\libg.a(lib_a-mktime.o)
 .text.mktime   0x00000000      0x3f8 c:/vsarm/armcc/102021~1.10/bin/../lib/gcc/arm-none-eabi/10.3.1/../../../../arm-none-eabi/lib/thumb/v6-m/nofp\libg.a(lib_a-mktime.o)
 .rodata.DAYS_IN_MONTH
                0x00000000       0x30 c:/vsarm/armcc/102021~1.10/bin/../lib/gcc/arm-none-eabi/10.3.1/../../../../arm-none-eabi/lib/thumb/v6-m/nofp\libg.a(lib_a-mktime.o)
 .rodata._DAYS_BEFORE_MONTH
                0x00000000       0x30 c:/vsarm/armcc/102021~1.10/bin/../lib/gcc/arm-none-eabi/10.3.1/../../../../arm-none-eabi/lib/thumb/v6-m/nofp\libg.a(lib_a-mktime.o)
 .debug_frame   0x00000000       0x64 c:/vsarm/armcc/102021~1.10/bin/../lib/gcc/arm-none-eabi/10.3.1/../../../../arm-none-eabi/lib/thumb/v6-m/nofp\libg.a(lib_a-mktime.o)
 .ARM.attributes
                0x00000000       0x2c c:/vsarm/armcc/102021~1.10/bin/../lib/gcc/arm-none-eabi/10.3.1/../../../../arm-none-eabi/lib/thumb/v6-m/nofp\libg.a(lib_a-mktime.o)
 .text          0x00000000        0x0 c:/vsarm/armcc/102021~1.10/bin/../lib/gcc/arm-none-eabi/10.3.1/../../../../arm-none-eabi/lib/thumb/v6-m/nofp\libg.a(lib_a-mlock.o)
 .data          0x00000000        0x0 c:/vsarm/armcc/102021~1.10/bin/../lib/gcc/arm-none-eabi/10.3.1/../../../../arm-none-eabi/lib/thumb/v6-m/nofp\libg.a(lib_a-mlock.o)
 .bss           0x00000000        0x0 c:/vsarm/armcc/102021~1.10/bin/../lib/gcc/arm-none-eabi/10.3.1/../../../../arm-none-eabi/lib/thumb/v6-m/nofp\libg.a(lib_a-mlock.o)
 .text          0x00000000        0x0 c:/vsarm/armcc/102021~1.10/bin/../lib/gcc/arm-none-eabi/10.3.1/../../../../arm-none-eabi/lib/thumb/v6-m/nofp\libg.a(lib_a-realloc.o)
 .data          0x00000000        0x0 c:/vsarm/armcc/102021~1.10/bin/../lib/gcc/arm-none-eabi/10.3.1/../../../../arm-none-eabi/lib/thumb/v6-m/nofp\libg.a(lib_a-realloc.o)
 .bss           0x00000000        0x0 c:/vsarm/armcc/102021~1.10/bin/../lib/gcc/arm-none-eabi/10.3.1/../../../../arm-none-eabi/lib/thumb/v6-m/nofp\libg.a(lib_a-realloc.o)
 .text          0x00000000        0x0 c:/vsarm/armcc/102021~1.10/bin/../lib/gcc/arm-none-eabi/10.3.1/../../../../arm-none-eabi/lib/thumb/v6-m/nofp\libg.a(lib_a-reallocr.o)
 .data          0x00000000        0x0 c:/vsarm/armcc/102021~1.10/bin/../lib/gcc/arm-none-eabi/10.3.1/../../../../arm-none-eabi/lib/thumb/v6-m/nofp\libg.a(lib_a-reallocr.o)
 .bss           0x00000000        0x0 c:/vsarm/armcc/102021~1.10/bin/../lib/gcc/arm-none-eabi/10.3.1/../../../../arm-none-eabi/lib/thumb/v6-m/nofp\libg.a(lib_a-reallocr.o)
 .text          0x00000000        0x0 c:/vsarm/armcc/102021~1.10/bin/../lib/gcc/arm-none-eabi/10.3.1/../../../../arm-none-eabi/lib/thumb/v6-m/nofp\libg.a(lib_a-sbrkr.o)
 .data          0x00000000        0x0 c:/vsarm/armcc/102021~1.10/bin/../lib/gcc/arm-none-eabi/10.3.1/../../../../arm-none-eabi/lib/thumb/v6-m/nofp\libg.a(lib_a-sbrkr.o)
 .bss           0x00000000        0x0 c:/vsarm/armcc/102021~1.10/bin/../lib/gcc/arm-none-eabi/10.3.1/../../../../arm-none-eabi/lib/thumb/v6-m/nofp\libg.a(lib_a-sbrkr.o)
 .text          0x00000000        0x0 c:/vsarm/armcc/102021~1.10/bin/../lib/gcc/arm-none-eabi/10.3.1/../../../../arm-none-eabi/lib/thumb/v6-m/nofp\libg.a(lib_a-stdio.o)
 .data          0x00000000        0x0 c:/vsarm/armcc/102021~1.10/bin/../lib/gcc/arm-none-eabi/10.3.1/../../../../arm-none-eabi/lib/thumb/v6-m/nofp\libg.a(lib_a-stdio.o)
 .bss           0x00000000        0x0 c:/vsarm/armcc/102021~1.10/bin/../lib/gcc/arm-none-eabi/10.3.1/../../../../arm-none-eabi/lib/thumb/v6-m/nofp\libg.a(lib_a-stdio.o)
 .text.__seofread
                0x00000000        0x4 c:/vsarm/armcc/102021~1.10/bin/../lib/gcc/arm-none-eabi/10.3.1/../../../../arm-none-eabi/lib/thumb/v6-m/nofp\libg.a(lib_a-stdio.o)
 .text          0x00000000        0x0 c:/vsarm/armcc/102021~1.10/bin/../lib/gcc/arm-none-eabi/10.3.1/../../../../arm-none-eabi/lib/thumb/v6-m/nofp\libg.a(lib_a-strchr.o)
 .data          0x00000000        0x0 c:/vsarm/armcc/102021~1.10/bin/../lib/gcc/arm-none-eabi/10.3.1/../../../../arm-none-eabi/lib/thumb/v6-m/nofp\libg.a(lib_a-strchr.o)
 .bss           0x00000000        0x0 c:/vsarm/armcc/102021~1.10/bin/../lib/gcc/arm-none-eabi/10.3.1/../../../../arm-none-eabi/lib/thumb/v6-m/nofp\libg.a(lib_a-strchr.o)
 .text          0x00000000       0x88 c:/vsarm/armcc/102021~1.10/bin/../lib/gcc/arm-none-eabi/10.3.1/../../../../arm-none-eabi/lib/thumb/v6-m/nofp\libg.a(lib_a-strcmp.o)
 .data          0x00000000        0x0 c:/vsarm/armcc/102021~1.10/bin/../lib/gcc/arm-none-eabi/10.3.1/../../../../arm-none-eabi/lib/thumb/v6-m/nofp\libg.a(lib_a-strcmp.o)
 .bss           0x00000000        0x0 c:/vsarm/armcc/102021~1.10/bin/../lib/gcc/arm-none-eabi/10.3.1/../../../../arm-none-eabi/lib/thumb/v6-m/nofp\libg.a(lib_a-strcmp.o)
 .debug_frame   0x00000000       0x20 c:/vsarm/armcc/102021~1.10/bin/../lib/gcc/arm-none-eabi/10.3.1/../../../../arm-none-eabi/lib/thumb/v6-m/nofp\libg.a(lib_a-strcmp.o)
 .ARM.attributes
                0x00000000       0x1b c:/vsarm/armcc/102021~1.10/bin/../lib/gcc/arm-none-eabi/10.3.1/../../../../arm-none-eabi/lib/thumb/v6-m/nofp\libg.a(lib_a-strcmp.o)
 .text          0x00000000        0x0 c:/vsarm/armcc/102021~1.10/bin/../lib/gcc/arm-none-eabi/10.3.1/../../../../arm-none-eabi/lib/thumb/v6-m/nofp\libg.a(lib_a-strlen-stub.o)
 .data          0x00000000        0x0 c:/vsarm/armcc/102021~1.10/bin/../lib/gcc/arm-none-eabi/10.3.1/../../../../arm-none-eabi/lib/thumb/v6-m/nofp\libg.a(lib_a-strlen-stub.o)
 .bss           0x00000000        0x0 c:/vsarm/armcc/102021~1.10/bin/../lib/gcc/arm-none-eabi/10.3.1/../../../../arm-none-eabi/lib/thumb/v6-m/nofp\libg.a(lib_a-strlen-stub.o)
 .text          0x00000000        0x0 c:/vsarm/armcc/102021~1.10/bin/../lib/gcc/arm-none-eabi/10.3.1/../../../../arm-none-eabi/lib/thumb/v6-m/nofp\libg.a(lib_a-strncmp.o)
 .data          0x00000000        0x0 c:/vsarm/armcc/102021~1.10/bin/../lib/gcc/arm-none-eabi/10.3.1/../../../../arm-none-eabi/lib/thumb/v6-m/nofp\libg.a(lib_a-strncmp.o)
 .bss           0x00000000        0x0 c:/vsarm/armcc/102021~1.10/bin/../lib/gcc/arm-none-eabi/10.3.1/../../../../arm-none-eabi/lib/thumb/v6-m/nofp\libg.a(lib_a-strncmp.o)
 .text          0x00000000        0x0 c:/vsarm/armcc/102021~1.10/bin/../lib/gcc/arm-none-eabi/10.3.1/../../../../arm-none-eabi/lib/thumb/v6-m/nofp\libg.a(lib_a-strncpy.o)
 .data          0x00000000        0x0 c:/vsarm/armcc/102021~1.10/bin/../lib/gcc/arm-none-eabi/10.3.1/../../../../arm-none-eabi/lib/thumb/v6-m/nofp\libg.a(lib_a-strncpy.o)
 .bss           0x00000000        0x0 c:/vsarm/armcc/102021~1.10/bin/../lib/gcc/arm-none-eabi/10.3.1/../../../../arm-none-eabi/lib/thumb/v6-m/nofp\libg.a(lib_a-strncpy.o)
 .text.strncpy  0x00000000       0x6c c:/vsarm/armcc/102021~1.10/bin/../lib/gcc/arm-none-eabi/10.3.1/../../../../arm-none-eabi/lib/thumb/v6-m/nofp\libg.a(lib_a-strncpy.o)
 .debug_frame   0x00000000       0x30 c:/vsarm/armcc/102021~1.10/bin/../lib/gcc/arm-none-eabi/10.3.1/../../../../arm-none-eabi/lib/thumb/v6-m/nofp\libg.a(lib_a-strncpy.o)
 .ARM.attributes
                0x00000000       0x2c c:/vsarm/armcc/102021~1.10/bin/../lib/gcc/arm-none-eabi/10.3.1/../../../../arm-none-eabi/lib/thumb/v6-m/nofp\libg.a(lib_a-strncpy.o)
 .text          0x00000000        0x0 c:/vsarm/armcc/102021~1.10/bin/../lib/gcc/arm-none-eabi/10.3.1/../../../../arm-none-eabi/lib/thumb/v6-m/nofp\libg.a(lib_a-tzcalc_limits.o)
 .data          0x00000000        0x0 c:/vsarm/armcc/102021~1.10/bin/../lib/gcc/arm-none-eabi/10.3.1/../../../../arm-none-eabi/lib/thumb/v6-m/nofp\libg.a(lib_a-tzcalc_limits.o)
 .bss           0x00000000        0x0 c:/vsarm/armcc/102021~1.10/bin/../lib/gcc/arm-none-eabi/10.3.1/../../../../arm-none-eabi/lib/thumb/v6-m/nofp\libg.a(lib_a-tzcalc_limits.o)
 .text.__tzcalc_limits
                0x00000000      0x1a8 c:/vsarm/armcc/102021~1.10/bin/../lib/gcc/arm-none-eabi/10.3.1/../../../../arm-none-eabi/lib/thumb/v6-m/nofp\libg.a(lib_a-tzcalc_limits.o)
 .debug_frame   0x00000000       0x3c c:/vsarm/armcc/102021~1.10/bin/../lib/gcc/arm-none-eabi/10.3.1/../../../../arm-none-eabi/lib/thumb/v6-m/nofp\libg.a(lib_a-tzcalc_limits.o)
 .ARM.attributes
                0x00000000       0x2c c:/vsarm/armcc/102021~1.10/bin/../lib/gcc/arm-none-eabi/10.3.1/../../../../arm-none-eabi/lib/thumb/v6-m/nofp\libg.a(lib_a-tzcalc_limits.o)
 .text          0x00000000        0x0 c:/vsarm/armcc/102021~1.10/bin/../lib/gcc/arm-none-eabi/10.3.1/../../../../arm-none-eabi/lib/thumb/v6-m/nofp\libg.a(lib_a-tzlock.o)
 .data          0x00000000        0x0 c:/vsarm/armcc/102021~1.10/bin/../lib/gcc/arm-none-eabi/10.3.1/../../../../arm-none-eabi/lib/thumb/v6-m/nofp\libg.a(lib_a-tzlock.o)
 .bss           0x00000000        0x0 c:/vsarm/armcc/102021~1.10/bin/../lib/gcc/arm-none-eabi/10.3.1/../../../../arm-none-eabi/lib/thumb/v6-m/nofp\libg.a(lib_a-tzlock.o)
 .text.__tz_lock
                0x00000000       0x10 c:/vsarm/armcc/102021~1.10/bin/../lib/gcc/arm-none-eabi/10.3.1/../../../../arm-none-eabi/lib/thumb/v6-m/nofp\libg.a(lib_a-tzlock.o)
 .text.__tz_unlock
                0x00000000       0x10 c:/vsarm/armcc/102021~1.10/bin/../lib/gcc/arm-none-eabi/10.3.1/../../../../arm-none-eabi/lib/thumb/v6-m/nofp\libg.a(lib_a-tzlock.o)
 .debug_frame   0x00000000       0x40 c:/vsarm/armcc/102021~1.10/bin/../lib/gcc/arm-none-eabi/10.3.1/../../../../arm-none-eabi/lib/thumb/v6-m/nofp\libg.a(lib_a-tzlock.o)
 .ARM.attributes
                0x00000000       0x2c c:/vsarm/armcc/102021~1.10/bin/../lib/gcc/arm-none-eabi/10.3.1/../../../../arm-none-eabi/lib/thumb/v6-m/nofp\libg.a(lib_a-tzlock.o)
 .text          0x00000000        0x0 c:/vsarm/armcc/102021~1.10/bin/../lib/gcc/arm-none-eabi/10.3.1/../../../../arm-none-eabi/lib/thumb/v6-m/nofp\libg.a(lib_a-tzset.o)
 .data          0x00000000        0x0 c:/vsarm/armcc/102021~1.10/bin/../lib/gcc/arm-none-eabi/10.3.1/../../../../arm-none-eabi/lib/thumb/v6-m/nofp\libg.a(lib_a-tzset.o)
 .bss           0x00000000        0x0 c:/vsarm/armcc/102021~1.10/bin/../lib/gcc/arm-none-eabi/10.3.1/../../../../arm-none-eabi/lib/thumb/v6-m/nofp\libg.a(lib_a-tzset.o)
 .text._tzset_unlocked
                0x00000000       0x10 c:/vsarm/armcc/102021~1.10/bin/../lib/gcc/arm-none-eabi/10.3.1/../../../../arm-none-eabi/lib/thumb/v6-m/nofp\libg.a(lib_a-tzset.o)
 .text.tzset    0x00000000       0x18 c:/vsarm/armcc/102021~1.10/bin/../lib/gcc/arm-none-eabi/10.3.1/../../../../arm-none-eabi/lib/thumb/v6-m/nofp\libg.a(lib_a-tzset.o)
 .debug_frame   0x00000000       0x40 c:/vsarm/armcc/102021~1.10/bin/../lib/gcc/arm-none-eabi/10.3.1/../../../../arm-none-eabi/lib/thumb/v6-m/nofp\libg.a(lib_a-tzset.o)
 .ARM.attributes
                0x00000000       0x2c c:/vsarm/armcc/102021~1.10/bin/../lib/gcc/arm-none-eabi/10.3.1/../../../../arm-none-eabi/lib/thumb/v6-m/nofp\libg.a(lib_a-tzset.o)
 .text          0x00000000        0x0 c:/vsarm/armcc/102021~1.10/bin/../lib/gcc/arm-none-eabi/10.3.1/../../../../arm-none-eabi/lib/thumb/v6-m/nofp\libg.a(lib_a-tzset_r.o)
 .data          0x00000000        0x0 c:/vsarm/armcc/102021~1.10/bin/../lib/gcc/arm-none-eabi/10.3.1/../../../../arm-none-eabi/lib/thumb/v6-m/nofp\libg.a(lib_a-tzset_r.o)
 .bss           0x00000000        0x0 c:/vsarm/armcc/102021~1.10/bin/../lib/gcc/arm-none-eabi/10.3.1/../../../../arm-none-eabi/lib/thumb/v6-m/nofp\libg.a(lib_a-tzset_r.o)
 .rodata._tzset_unlocked_r.str1.4
                0x00000000       0x53 c:/vsarm/armcc/102021~1.10/bin/../lib/gcc/arm-none-eabi/10.3.1/../../../../arm-none-eabi/lib/thumb/v6-m/nofp\libg.a(lib_a-tzset_r.o)
 .text._tzset_unlocked_r
                0x00000000      0x350 c:/vsarm/armcc/102021~1.10/bin/../lib/gcc/arm-none-eabi/10.3.1/../../../../arm-none-eabi/lib/thumb/v6-m/nofp\libg.a(lib_a-tzset_r.o)
 .text._tzset_r
                0x00000000       0x14 c:/vsarm/armcc/102021~1.10/bin/../lib/gcc/arm-none-eabi/10.3.1/../../../../arm-none-eabi/lib/thumb/v6-m/nofp\libg.a(lib_a-tzset_r.o)
 .bss.__tzname_dst
                0x00000000        0xb c:/vsarm/armcc/102021~1.10/bin/../lib/gcc/arm-none-eabi/10.3.1/../../../../arm-none-eabi/lib/thumb/v6-m/nofp\libg.a(lib_a-tzset_r.o)
 .bss.__tzname_std
                0x00000000        0xb c:/vsarm/armcc/102021~1.10/bin/../lib/gcc/arm-none-eabi/10.3.1/../../../../arm-none-eabi/lib/thumb/v6-m/nofp\libg.a(lib_a-tzset_r.o)
 .bss.prev_tzenv
                0x00000000        0x4 c:/vsarm/armcc/102021~1.10/bin/../lib/gcc/arm-none-eabi/10.3.1/../../../../arm-none-eabi/lib/thumb/v6-m/nofp\libg.a(lib_a-tzset_r.o)
 .debug_frame   0x00000000       0x54 c:/vsarm/armcc/102021~1.10/bin/../lib/gcc/arm-none-eabi/10.3.1/../../../../arm-none-eabi/lib/thumb/v6-m/nofp\libg.a(lib_a-tzset_r.o)
 .ARM.attributes
                0x00000000       0x2c c:/vsarm/armcc/102021~1.10/bin/../lib/gcc/arm-none-eabi/10.3.1/../../../../arm-none-eabi/lib/thumb/v6-m/nofp\libg.a(lib_a-tzset_r.o)
 .text          0x00000000        0x0 c:/vsarm/armcc/102021~1.10/bin/../lib/gcc/arm-none-eabi/10.3.1/../../../../arm-none-eabi/lib/thumb/v6-m/nofp\libg.a(lib_a-tzvars.o)
 .data          0x00000000        0x0 c:/vsarm/armcc/102021~1.10/bin/../lib/gcc/arm-none-eabi/10.3.1/../../../../arm-none-eabi/lib/thumb/v6-m/nofp\libg.a(lib_a-tzvars.o)
 .bss           0x00000000        0x0 c:/vsarm/armcc/102021~1.10/bin/../lib/gcc/arm-none-eabi/10.3.1/../../../../arm-none-eabi/lib/thumb/v6-m/nofp\libg.a(lib_a-tzvars.o)
 .rodata.str1.4
                0x00000000        0x4 c:/vsarm/armcc/102021~1.10/bin/../lib/gcc/arm-none-eabi/10.3.1/../../../../arm-none-eabi/lib/thumb/v6-m/nofp\libg.a(lib_a-tzvars.o)
 .bss._daylight
                0x00000000        0x4 c:/vsarm/armcc/102021~1.10/bin/../lib/gcc/arm-none-eabi/10.3.1/../../../../arm-none-eabi/lib/thumb/v6-m/nofp\libg.a(lib_a-tzvars.o)
 .bss._timezone
                0x00000000        0x4 c:/vsarm/armcc/102021~1.10/bin/../lib/gcc/arm-none-eabi/10.3.1/../../../../arm-none-eabi/lib/thumb/v6-m/nofp\libg.a(lib_a-tzvars.o)
 .data._tzname  0x00000000        0x8 c:/vsarm/armcc/102021~1.10/bin/../lib/gcc/arm-none-eabi/10.3.1/../../../../arm-none-eabi/lib/thumb/v6-m/nofp\libg.a(lib_a-tzvars.o)
 .ARM.attributes
                0x00000000       0x2c c:/vsarm/armcc/102021~1.10/bin/../lib/gcc/arm-none-eabi/10.3.1/../../../../arm-none-eabi/lib/thumb/v6-m/nofp\libg.a(lib_a-tzvars.o)
 .text          0x00000000        0x0 c:/vsarm/armcc/102021~1.10/bin/../lib/gcc/arm-none-eabi/10.3.1/../../../../arm-none-eabi/lib/thumb/v6-m/nofp\libg.a(lib_a-writer.o)
 .data          0x00000000        0x0 c:/vsarm/armcc/102021~1.10/bin/../lib/gcc/arm-none-eabi/10.3.1/../../../../arm-none-eabi/lib/thumb/v6-m/nofp\libg.a(lib_a-writer.o)
 .bss           0x00000000        0x0 c:/vsarm/armcc/102021~1.10/bin/../lib/gcc/arm-none-eabi/10.3.1/../../../../arm-none-eabi/lib/thumb/v6-m/nofp\libg.a(lib_a-writer.o)
 .text          0x00000000        0x0 c:/vsarm/armcc/102021~1.10/bin/../lib/gcc/arm-none-eabi/10.3.1/../../../../arm-none-eabi/lib/thumb/v6-m/nofp\libg.a(lib_a-closer.o)
 .data          0x00000000        0x0 c:/vsarm/armcc/102021~1.10/bin/../lib/gcc/arm-none-eabi/10.3.1/../../../../arm-none-eabi/lib/thumb/v6-m/nofp\libg.a(lib_a-closer.o)
 .bss           0x00000000        0x0 c:/vsarm/armcc/102021~1.10/bin/../lib/gcc/arm-none-eabi/10.3.1/../../../../arm-none-eabi/lib/thumb/v6-m/nofp\libg.a(lib_a-closer.o)
 .text          0x00000000        0x0 c:/vsarm/armcc/102021~1.10/bin/../lib/gcc/arm-none-eabi/10.3.1/../../../../arm-none-eabi/lib/thumb/v6-m/nofp\libg.a(lib_a-div.o)
 .data          0x00000000        0x0 c:/vsarm/armcc/102021~1.10/bin/../lib/gcc/arm-none-eabi/10.3.1/../../../../arm-none-eabi/lib/thumb/v6-m/nofp\libg.a(lib_a-div.o)
 .bss           0x00000000        0x0 c:/vsarm/armcc/102021~1.10/bin/../lib/gcc/arm-none-eabi/10.3.1/../../../../arm-none-eabi/lib/thumb/v6-m/nofp\libg.a(lib_a-div.o)
 .text.div      0x00000000       0x30 c:/vsarm/armcc/102021~1.10/bin/../lib/gcc/arm-none-eabi/10.3.1/../../../../arm-none-eabi/lib/thumb/v6-m/nofp\libg.a(lib_a-div.o)
 .debug_frame   0x00000000       0x2c c:/vsarm/armcc/102021~1.10/bin/../lib/gcc/arm-none-eabi/10.3.1/../../../../arm-none-eabi/lib/thumb/v6-m/nofp\libg.a(lib_a-div.o)
 .ARM.attributes
                0x00000000       0x2c c:/vsarm/armcc/102021~1.10/bin/../lib/gcc/arm-none-eabi/10.3.1/../../../../arm-none-eabi/lib/thumb/v6-m/nofp\libg.a(lib_a-div.o)
 .text          0x00000000        0x0 c:/vsarm/armcc/102021~1.10/bin/../lib/gcc/arm-none-eabi/10.3.1/../../../../arm-none-eabi/lib/thumb/v6-m/nofp\libg.a(lib_a-fclose.o)
 .data          0x00000000        0x0 c:/vsarm/armcc/102021~1.10/bin/../lib/gcc/arm-none-eabi/10.3.1/../../../../arm-none-eabi/lib/thumb/v6-m/nofp\libg.a(lib_a-fclose.o)
 .bss           0x00000000        0x0 c:/vsarm/armcc/102021~1.10/bin/../lib/gcc/arm-none-eabi/10.3.1/../../../../arm-none-eabi/lib/thumb/v6-m/nofp\libg.a(lib_a-fclose.o)
 .text.fclose   0x00000000       0x14 c:/vsarm/armcc/102021~1.10/bin/../lib/gcc/arm-none-eabi/10.3.1/../../../../arm-none-eabi/lib/thumb/v6-m/nofp\libg.a(lib_a-fclose.o)
 .text          0x00000000        0x0 c:/vsarm/armcc/102021~1.10/bin/../lib/gcc/arm-none-eabi/10.3.1/../../../../arm-none-eabi/lib/thumb/v6-m/nofp\libg.a(lib_a-getenv_r.o)
 .data          0x00000000        0x0 c:/vsarm/armcc/102021~1.10/bin/../lib/gcc/arm-none-eabi/10.3.1/../../../../arm-none-eabi/lib/thumb/v6-m/nofp\libg.a(lib_a-getenv_r.o)
 .bss           0x00000000        0x0 c:/vsarm/armcc/102021~1.10/bin/../lib/gcc/arm-none-eabi/10.3.1/../../../../arm-none-eabi/lib/thumb/v6-m/nofp\libg.a(lib_a-getenv_r.o)
 .text._findenv_r
                0x00000000       0x90 c:/vsarm/armcc/102021~1.10/bin/../lib/gcc/arm-none-eabi/10.3.1/../../../../arm-none-eabi/lib/thumb/v6-m/nofp\libg.a(lib_a-getenv_r.o)
 .text._getenv_r
                0x00000000       0x10 c:/vsarm/armcc/102021~1.10/bin/../lib/gcc/arm-none-eabi/10.3.1/../../../../arm-none-eabi/lib/thumb/v6-m/nofp\libg.a(lib_a-getenv_r.o)
 .debug_frame   0x00000000       0x50 c:/vsarm/armcc/102021~1.10/bin/../lib/gcc/arm-none-eabi/10.3.1/../../../../arm-none-eabi/lib/thumb/v6-m/nofp\libg.a(lib_a-getenv_r.o)
 .ARM.attributes
                0x00000000       0x2c c:/vsarm/armcc/102021~1.10/bin/../lib/gcc/arm-none-eabi/10.3.1/../../../../arm-none-eabi/lib/thumb/v6-m/nofp\libg.a(lib_a-getenv_r.o)
 .text          0x00000000        0x0 c:/vsarm/armcc/102021~1.10/bin/../lib/gcc/arm-none-eabi/10.3.1/../../../../arm-none-eabi/lib/thumb/v6-m/nofp\libg.a(lib_a-gettzinfo.o)
 .data          0x00000000        0x0 c:/vsarm/armcc/102021~1.10/bin/../lib/gcc/arm-none-eabi/10.3.1/../../../../arm-none-eabi/lib/thumb/v6-m/nofp\libg.a(lib_a-gettzinfo.o)
 .bss           0x00000000        0x0 c:/vsarm/armcc/102021~1.10/bin/../lib/gcc/arm-none-eabi/10.3.1/../../../../arm-none-eabi/lib/thumb/v6-m/nofp\libg.a(lib_a-gettzinfo.o)
 .text.__gettzinfo
                0x00000000        0x8 c:/vsarm/armcc/102021~1.10/bin/../lib/gcc/arm-none-eabi/10.3.1/../../../../arm-none-eabi/lib/thumb/v6-m/nofp\libg.a(lib_a-gettzinfo.o)
 .data.tzinfo   0x00000000       0x58 c:/vsarm/armcc/102021~1.10/bin/../lib/gcc/arm-none-eabi/10.3.1/../../../../arm-none-eabi/lib/thumb/v6-m/nofp\libg.a(lib_a-gettzinfo.o)
 .debug_frame   0x00000000       0x20 c:/vsarm/armcc/102021~1.10/bin/../lib/gcc/arm-none-eabi/10.3.1/../../../../arm-none-eabi/lib/thumb/v6-m/nofp\libg.a(lib_a-gettzinfo.o)
 .ARM.attributes
                0x00000000       0x2c c:/vsarm/armcc/102021~1.10/bin/../lib/gcc/arm-none-eabi/10.3.1/../../../../arm-none-eabi/lib/thumb/v6-m/nofp\libg.a(lib_a-gettzinfo.o)
 .text          0x00000000        0x0 c:/vsarm/armcc/102021~1.10/bin/../lib/gcc/arm-none-eabi/10.3.1/../../../../arm-none-eabi/lib/thumb/v6-m/nofp\libg.a(lib_a-lseekr.o)
 .data          0x00000000        0x0 c:/vsarm/armcc/102021~1.10/bin/../lib/gcc/arm-none-eabi/10.3.1/../../../../arm-none-eabi/lib/thumb/v6-m/nofp\libg.a(lib_a-lseekr.o)
 .bss           0x00000000        0x0 c:/vsarm/armcc/102021~1.10/bin/../lib/gcc/arm-none-eabi/10.3.1/../../../../arm-none-eabi/lib/thumb/v6-m/nofp\libg.a(lib_a-lseekr.o)
 .text          0x00000000        0x0 c:/vsarm/armcc/102021~1.10/bin/../lib/gcc/arm-none-eabi/10.3.1/../../../../arm-none-eabi/lib/thumb/v6-m/nofp\libg.a(lib_a-memmove.o)
 .data          0x00000000        0x0 c:/vsarm/armcc/102021~1.10/bin/../lib/gcc/arm-none-eabi/10.3.1/../../../../arm-none-eabi/lib/thumb/v6-m/nofp\libg.a(lib_a-memmove.o)
 .bss           0x00000000        0x0 c:/vsarm/armcc/102021~1.10/bin/../lib/gcc/arm-none-eabi/10.3.1/../../../../arm-none-eabi/lib/thumb/v6-m/nofp\libg.a(lib_a-memmove.o)
 .text          0x00000000        0x0 c:/vsarm/armcc/102021~1.10/bin/../lib/gcc/arm-none-eabi/10.3.1/../../../../arm-none-eabi/lib/thumb/v6-m/nofp\libg.a(lib_a-month_lengths.o)
 .data          0x00000000        0x0 c:/vsarm/armcc/102021~1.10/bin/../lib/gcc/arm-none-eabi/10.3.1/../../../../arm-none-eabi/lib/thumb/v6-m/nofp\libg.a(lib_a-month_lengths.o)
 .bss           0x00000000        0x0 c:/vsarm/armcc/102021~1.10/bin/../lib/gcc/arm-none-eabi/10.3.1/../../../../arm-none-eabi/lib/thumb/v6-m/nofp\libg.a(lib_a-month_lengths.o)
 .rodata.__month_lengths
                0x00000000       0x60 c:/vsarm/armcc/102021~1.10/bin/../lib/gcc/arm-none-eabi/10.3.1/../../../../arm-none-eabi/lib/thumb/v6-m/nofp\libg.a(lib_a-month_lengths.o)
 .ARM.attributes
                0x00000000       0x2c c:/vsarm/armcc/102021~1.10/bin/../lib/gcc/arm-none-eabi/10.3.1/../../../../arm-none-eabi/lib/thumb/v6-m/nofp\libg.a(lib_a-month_lengths.o)
 .text          0x00000000        0x0 c:/vsarm/armcc/102021~1.10/bin/../lib/gcc/arm-none-eabi/10.3.1/../../../../arm-none-eabi/lib/thumb/v6-m/nofp\libg.a(lib_a-readr.o)
 .data          0x00000000        0x0 c:/vsarm/armcc/102021~1.10/bin/../lib/gcc/arm-none-eabi/10.3.1/../../../../arm-none-eabi/lib/thumb/v6-m/nofp\libg.a(lib_a-readr.o)
 .bss           0x00000000        0x0 c:/vsarm/armcc/102021~1.10/bin/../lib/gcc/arm-none-eabi/10.3.1/../../../../arm-none-eabi/lib/thumb/v6-m/nofp\libg.a(lib_a-readr.o)
 .text          0x00000000        0x0 c:/vsarm/armcc/102021~1.10/bin/../lib/gcc/arm-none-eabi/10.3.1/../../../../arm-none-eabi/lib/thumb/v6-m/nofp\libg.a(lib_a-reent.o)
 .data          0x00000000        0x0 c:/vsarm/armcc/102021~1.10/bin/../lib/gcc/arm-none-eabi/10.3.1/../../../../arm-none-eabi/lib/thumb/v6-m/nofp\libg.a(lib_a-reent.o)
 .bss           0x00000000        0x0 c:/vsarm/armcc/102021~1.10/bin/../lib/gcc/arm-none-eabi/10.3.1/../../../../arm-none-eabi/lib/thumb/v6-m/nofp\libg.a(lib_a-reent.o)
 .text.cleanup_glue
                0x00000000       0x50 c:/vsarm/armcc/102021~1.10/bin/../lib/gcc/arm-none-eabi/10.3.1/../../../../arm-none-eabi/lib/thumb/v6-m/nofp\libg.a(lib_a-reent.o)
 .text._reclaim_reent
                0x00000000       0xa0 c:/vsarm/armcc/102021~1.10/bin/../lib/gcc/arm-none-eabi/10.3.1/../../../../arm-none-eabi/lib/thumb/v6-m/nofp\libg.a(lib_a-reent.o)
 .text          0x00000000        0x0 c:/vsarm/armcc/102021~1.10/bin/../lib/gcc/arm-none-eabi/10.3.1/../../../../arm-none-eabi/lib/thumb/v6-m/nofp\libg.a(lib_a-siscanf.o)
 .data          0x00000000        0x0 c:/vsarm/armcc/102021~1.10/bin/../lib/gcc/arm-none-eabi/10.3.1/../../../../arm-none-eabi/lib/thumb/v6-m/nofp\libg.a(lib_a-siscanf.o)
 .bss           0x00000000        0x0 c:/vsarm/armcc/102021~1.10/bin/../lib/gcc/arm-none-eabi/10.3.1/../../../../arm-none-eabi/lib/thumb/v6-m/nofp\libg.a(lib_a-siscanf.o)
 .text.siscanf  0x00000000       0x50 c:/vsarm/armcc/102021~1.10/bin/../lib/gcc/arm-none-eabi/10.3.1/../../../../arm-none-eabi/lib/thumb/v6-m/nofp\libg.a(lib_a-siscanf.o)
 .text._siscanf_r
                0x00000000       0x50 c:/vsarm/armcc/102021~1.10/bin/../lib/gcc/arm-none-eabi/10.3.1/../../../../arm-none-eabi/lib/thumb/v6-m/nofp\libg.a(lib_a-siscanf.o)
 .debug_frame   0x00000000       0x54 c:/vsarm/armcc/102021~1.10/bin/../lib/gcc/arm-none-eabi/10.3.1/../../../../arm-none-eabi/lib/thumb/v6-m/nofp\libg.a(lib_a-siscanf.o)
 .ARM.attributes
                0x00000000       0x2c c:/vsarm/armcc/102021~1.10/bin/../lib/gcc/arm-none-eabi/10.3.1/../../../../arm-none-eabi/lib/thumb/v6-m/nofp\libg.a(lib_a-siscanf.o)
 .text          0x00000000        0x0 c:/vsarm/armcc/102021~1.10/bin/../lib/gcc/arm-none-eabi/10.3.1/../../../../arm-none-eabi/lib/thumb/v6-m/nofp\libg.a(lib_a-strcpy.o)
 .data          0x00000000        0x0 c:/vsarm/armcc/102021~1.10/bin/../lib/gcc/arm-none-eabi/10.3.1/../../../../arm-none-eabi/lib/thumb/v6-m/nofp\libg.a(lib_a-strcpy.o)
 .bss           0x00000000        0x0 c:/vsarm/armcc/102021~1.10/bin/../lib/gcc/arm-none-eabi/10.3.1/../../../../arm-none-eabi/lib/thumb/v6-m/nofp\libg.a(lib_a-strcpy.o)
 .text.strcpy   0x00000000       0x10 c:/vsarm/armcc/102021~1.10/bin/../lib/gcc/arm-none-eabi/10.3.1/../../../../arm-none-eabi/lib/thumb/v6-m/nofp\libg.a(lib_a-strcpy.o)
 .debug_frame   0x00000000       0x20 c:/vsarm/armcc/102021~1.10/bin/../lib/gcc/arm-none-eabi/10.3.1/../../../../arm-none-eabi/lib/thumb/v6-m/nofp\libg.a(lib_a-strcpy.o)
 .ARM.attributes
                0x00000000       0x2c c:/vsarm/armcc/102021~1.10/bin/../lib/gcc/arm-none-eabi/10.3.1/../../../../arm-none-eabi/lib/thumb/v6-m/nofp\libg.a(lib_a-strcpy.o)
 .text          0x00000000        0x0 c:/vsarm/armcc/102021~1.10/bin/../lib/gcc/arm-none-eabi/10.3.1/../../../../arm-none-eabi/lib/thumb/v6-m/nofp\libg.a(lib_a-strtoul.o)
 .data          0x00000000        0x0 c:/vsarm/armcc/102021~1.10/bin/../lib/gcc/arm-none-eabi/10.3.1/../../../../arm-none-eabi/lib/thumb/v6-m/nofp\libg.a(lib_a-strtoul.o)
 .bss           0x00000000        0x0 c:/vsarm/armcc/102021~1.10/bin/../lib/gcc/arm-none-eabi/10.3.1/../../../../arm-none-eabi/lib/thumb/v6-m/nofp\libg.a(lib_a-strtoul.o)
 .text._strtoul_l.constprop.0
                0x00000000      0x148 c:/vsarm/armcc/102021~1.10/bin/../lib/gcc/arm-none-eabi/10.3.1/../../../../arm-none-eabi/lib/thumb/v6-m/nofp\libg.a(lib_a-strtoul.o)
 .text._strtoul_r
                0x00000000        0x8 c:/vsarm/armcc/102021~1.10/bin/../lib/gcc/arm-none-eabi/10.3.1/../../../../arm-none-eabi/lib/thumb/v6-m/nofp\libg.a(lib_a-strtoul.o)
 .text.strtoul_l
                0x00000000       0x18 c:/vsarm/armcc/102021~1.10/bin/../lib/gcc/arm-none-eabi/10.3.1/../../../../arm-none-eabi/lib/thumb/v6-m/nofp\libg.a(lib_a-strtoul.o)
 .text.strtoul  0x00000000       0x18 c:/vsarm/armcc/102021~1.10/bin/../lib/gcc/arm-none-eabi/10.3.1/../../../../arm-none-eabi/lib/thumb/v6-m/nofp\libg.a(lib_a-strtoul.o)
 .debug_frame   0x00000000       0x84 c:/vsarm/armcc/102021~1.10/bin/../lib/gcc/arm-none-eabi/10.3.1/../../../../arm-none-eabi/lib/thumb/v6-m/nofp\libg.a(lib_a-strtoul.o)
 .ARM.attributes
                0x00000000       0x2c c:/vsarm/armcc/102021~1.10/bin/../lib/gcc/arm-none-eabi/10.3.1/../../../../arm-none-eabi/lib/thumb/v6-m/nofp\libg.a(lib_a-strtoul.o)
 .text          0x00000000        0x0 c:/vsarm/armcc/102021~1.10/bin/../lib/gcc/arm-none-eabi/10.3.1/../../../../arm-none-eabi/lib/thumb/v6-m/nofp\libg.a(lib_a-svfiscanf.o)
 .data          0x00000000        0x0 c:/vsarm/armcc/102021~1.10/bin/../lib/gcc/arm-none-eabi/10.3.1/../../../../arm-none-eabi/lib/thumb/v6-m/nofp\libg.a(lib_a-svfiscanf.o)
 .bss           0x00000000        0x0 c:/vsarm/armcc/102021~1.10/bin/../lib/gcc/arm-none-eabi/10.3.1/../../../../arm-none-eabi/lib/thumb/v6-m/nofp\libg.a(lib_a-svfiscanf.o)
 .text._sungetc_r
                0x00000000       0x84 c:/vsarm/armcc/102021~1.10/bin/../lib/gcc/arm-none-eabi/10.3.1/../../../../arm-none-eabi/lib/thumb/v6-m/nofp\libg.a(lib_a-svfiscanf.o)
 .text.__ssrefill_r
                0x00000000       0x40 c:/vsarm/armcc/102021~1.10/bin/../lib/gcc/arm-none-eabi/10.3.1/../../../../arm-none-eabi/lib/thumb/v6-m/nofp\libg.a(lib_a-svfiscanf.o)
 .text._sfread_r
                0x00000000       0xc4 c:/vsarm/armcc/102021~1.10/bin/../lib/gcc/arm-none-eabi/10.3.1/../../../../arm-none-eabi/lib/thumb/v6-m/nofp\libg.a(lib_a-svfiscanf.o)
 .text.__ssvfiscanf_r
                0x00000000     0x14d0 c:/vsarm/armcc/102021~1.10/bin/../lib/gcc/arm-none-eabi/10.3.1/../../../../arm-none-eabi/lib/thumb/v6-m/nofp\libg.a(lib_a-svfiscanf.o)
 .rodata.__ssvfiscanf_r
                0x00000000      0x290 c:/vsarm/armcc/102021~1.10/bin/../lib/gcc/arm-none-eabi/10.3.1/../../../../arm-none-eabi/lib/thumb/v6-m/nofp\libg.a(lib_a-svfiscanf.o)
 .rodata.basefix.0
                0x00000000       0x22 c:/vsarm/armcc/102021~1.10/bin/../lib/gcc/arm-none-eabi/10.3.1/../../../../arm-none-eabi/lib/thumb/v6-m/nofp\libg.a(lib_a-svfiscanf.o)
 .debug_frame   0x00000000       0xa4 c:/vsarm/armcc/102021~1.10/bin/../lib/gcc/arm-none-eabi/10.3.1/../../../../arm-none-eabi/lib/thumb/v6-m/nofp\libg.a(lib_a-svfiscanf.o)
 .ARM.attributes
                0x00000000       0x2c c:/vsarm/armcc/102021~1.10/bin/../lib/gcc/arm-none-eabi/10.3.1/../../../../arm-none-eabi/lib/thumb/v6-m/nofp\libg.a(lib_a-svfiscanf.o)
 .text          0x00000000        0x0 c:/vsarm/armcc/102021~1.10/bin/../lib/gcc/arm-none-eabi/10.3.1/../../../../arm-none-eabi/lib/thumb/v6-m/nofp\libg.a(lib_a-ungetc.o)
 .data          0x00000000        0x0 c:/vsarm/armcc/102021~1.10/bin/../lib/gcc/arm-none-eabi/10.3.1/../../../../arm-none-eabi/lib/thumb/v6-m/nofp\libg.a(lib_a-ungetc.o)
 .bss           0x00000000        0x0 c:/vsarm/armcc/102021~1.10/bin/../lib/gcc/arm-none-eabi/10.3.1/../../../../arm-none-eabi/lib/thumb/v6-m/nofp\libg.a(lib_a-ungetc.o)
 .text.__submore
                0x00000000       0x84 c:/vsarm/armcc/102021~1.10/bin/../lib/gcc/arm-none-eabi/10.3.1/../../../../arm-none-eabi/lib/thumb/v6-m/nofp\libg.a(lib_a-ungetc.o)
 .text._ungetc_r
                0x00000000      0x138 c:/vsarm/armcc/102021~1.10/bin/../lib/gcc/arm-none-eabi/10.3.1/../../../../arm-none-eabi/lib/thumb/v6-m/nofp\libg.a(lib_a-ungetc.o)
 .text.ungetc   0x00000000       0x18 c:/vsarm/armcc/102021~1.10/bin/../lib/gcc/arm-none-eabi/10.3.1/../../../../arm-none-eabi/lib/thumb/v6-m/nofp\libg.a(lib_a-ungetc.o)
 .debug_frame   0x00000000       0x6c c:/vsarm/armcc/102021~1.10/bin/../lib/gcc/arm-none-eabi/10.3.1/../../../../arm-none-eabi/lib/thumb/v6-m/nofp\libg.a(lib_a-ungetc.o)
 .ARM.attributes
                0x00000000       0x2c c:/vsarm/armcc/102021~1.10/bin/../lib/gcc/arm-none-eabi/10.3.1/../../../../arm-none-eabi/lib/thumb/v6-m/nofp\libg.a(lib_a-ungetc.o)
 .text          0x00000000        0x0 c:/vsarm/armcc/102021~1.10/bin/../lib/gcc/arm-none-eabi/10.3.1/../../../../arm-none-eabi/lib/thumb/v6-m/nofp\libg.a(lib_a-ctype_.o)
 .data          0x00000000        0x0 c:/vsarm/armcc/102021~1.10/bin/../lib/gcc/arm-none-eabi/10.3.1/../../../../arm-none-eabi/lib/thumb/v6-m/nofp\libg.a(lib_a-ctype_.o)
 .bss           0x00000000        0x0 c:/vsarm/armcc/102021~1.10/bin/../lib/gcc/arm-none-eabi/10.3.1/../../../../arm-none-eabi/lib/thumb/v6-m/nofp\libg.a(lib_a-ctype_.o)
 .rodata._ctype_
                0x00000000      0x101 c:/vsarm/armcc/102021~1.10/bin/../lib/gcc/arm-none-eabi/10.3.1/../../../../arm-none-eabi/lib/thumb/v6-m/nofp\libg.a(lib_a-ctype_.o)
 .ARM.attributes
                0x00000000       0x2c c:/vsarm/armcc/102021~1.10/bin/../lib/gcc/arm-none-eabi/10.3.1/../../../../arm-none-eabi/lib/thumb/v6-m/nofp\libg.a(lib_a-ctype_.o)
 .text          0x00000000        0x0 c:/vsarm/armcc/102021~1.10/bin/../lib/gcc/arm-none-eabi/10.3.1/../../../../arm-none-eabi/lib/thumb/v6-m/nofp\libg.a(lib_a-environ.o)
 .data          0x00000000        0x0 c:/vsarm/armcc/102021~1.10/bin/../lib/gcc/arm-none-eabi/10.3.1/../../../../arm-none-eabi/lib/thumb/v6-m/nofp\libg.a(lib_a-environ.o)
 .bss           0x00000000        0x0 c:/vsarm/armcc/102021~1.10/bin/../lib/gcc/arm-none-eabi/10.3.1/../../../../arm-none-eabi/lib/thumb/v6-m/nofp\libg.a(lib_a-environ.o)
 .bss.initial_env
                0x00000000        0x4 c:/vsarm/armcc/102021~1.10/bin/../lib/gcc/arm-none-eabi/10.3.1/../../../../arm-none-eabi/lib/thumb/v6-m/nofp\libg.a(lib_a-environ.o)
 .data.environ  0x00000000        0x4 c:/vsarm/armcc/102021~1.10/bin/../lib/gcc/arm-none-eabi/10.3.1/../../../../arm-none-eabi/lib/thumb/v6-m/nofp\libg.a(lib_a-environ.o)
 .ARM.attributes
                0x00000000       0x2c c:/vsarm/armcc/102021~1.10/bin/../lib/gcc/arm-none-eabi/10.3.1/../../../../arm-none-eabi/lib/thumb/v6-m/nofp\libg.a(lib_a-environ.o)
 .text          0x00000000        0x0 c:/vsarm/armcc/102021~1.10/bin/../lib/gcc/arm-none-eabi/10.3.1/../../../../arm-none-eabi/lib/thumb/v6-m/nofp\libg.a(lib_a-envlock.o)
 .data          0x00000000        0x0 c:/vsarm/armcc/102021~1.10/bin/../lib/gcc/arm-none-eabi/10.3.1/../../../../arm-none-eabi/lib/thumb/v6-m/nofp\libg.a(lib_a-envlock.o)
 .bss           0x00000000        0x0 c:/vsarm/armcc/102021~1.10/bin/../lib/gcc/arm-none-eabi/10.3.1/../../../../arm-none-eabi/lib/thumb/v6-m/nofp\libg.a(lib_a-envlock.o)
 .text.__env_lock
                0x00000000       0x10 c:/vsarm/armcc/102021~1.10/bin/../lib/gcc/arm-none-eabi/10.3.1/../../../../arm-none-eabi/lib/thumb/v6-m/nofp\libg.a(lib_a-envlock.o)
 .text.__env_unlock
                0x00000000       0x10 c:/vsarm/armcc/102021~1.10/bin/../lib/gcc/arm-none-eabi/10.3.1/../../../../arm-none-eabi/lib/thumb/v6-m/nofp\libg.a(lib_a-envlock.o)
 .debug_frame   0x00000000       0x40 c:/vsarm/armcc/102021~1.10/bin/../lib/gcc/arm-none-eabi/10.3.1/../../../../arm-none-eabi/lib/thumb/v6-m/nofp\libg.a(lib_a-envlock.o)
 .ARM.attributes
                0x00000000       0x2c c:/vsarm/armcc/102021~1.10/bin/../lib/gcc/arm-none-eabi/10.3.1/../../../../arm-none-eabi/lib/thumb/v6-m/nofp\libg.a(lib_a-envlock.o)
 .text          0x00000000        0x0 c:/vsarm/armcc/102021~1.10/bin/../lib/gcc/arm-none-eabi/10.3.1/../../../../arm-none-eabi/lib/thumb/v6-m/nofp\libg.a(lib_a-iswspace.o)
 .data          0x00000000        0x0 c:/vsarm/armcc/102021~1.10/bin/../lib/gcc/arm-none-eabi/10.3.1/../../../../arm-none-eabi/lib/thumb/v6-m/nofp\libg.a(lib_a-iswspace.o)
 .bss           0x00000000        0x0 c:/vsarm/armcc/102021~1.10/bin/../lib/gcc/arm-none-eabi/10.3.1/../../../../arm-none-eabi/lib/thumb/v6-m/nofp\libg.a(lib_a-iswspace.o)
 .text.iswspace
                0x00000000        0xc c:/vsarm/armcc/102021~1.10/bin/../lib/gcc/arm-none-eabi/10.3.1/../../../../arm-none-eabi/lib/thumb/v6-m/nofp\libg.a(lib_a-iswspace.o)
 .debug_frame   0x00000000       0x28 c:/vsarm/armcc/102021~1.10/bin/../lib/gcc/arm-none-eabi/10.3.1/../../../../arm-none-eabi/lib/thumb/v6-m/nofp\libg.a(lib_a-iswspace.o)
 .ARM.attributes
                0x00000000       0x2c c:/vsarm/armcc/102021~1.10/bin/../lib/gcc/arm-none-eabi/10.3.1/../../../../arm-none-eabi/lib/thumb/v6-m/nofp\libg.a(lib_a-iswspace.o)
 .text          0x00000000        0x0 c:/vsarm/armcc/102021~1.10/bin/../lib/gcc/arm-none-eabi/10.3.1/../../../../arm-none-eabi/lib/thumb/v6-m/nofp\libg.a(lib_a-iswspace_l.o)
 .data          0x00000000        0x0 c:/vsarm/armcc/102021~1.10/bin/../lib/gcc/arm-none-eabi/10.3.1/../../../../arm-none-eabi/lib/thumb/v6-m/nofp\libg.a(lib_a-iswspace_l.o)
 .bss           0x00000000        0x0 c:/vsarm/armcc/102021~1.10/bin/../lib/gcc/arm-none-eabi/10.3.1/../../../../arm-none-eabi/lib/thumb/v6-m/nofp\libg.a(lib_a-iswspace_l.o)
 .text.iswspace_l
                0x00000000       0x18 c:/vsarm/armcc/102021~1.10/bin/../lib/gcc/arm-none-eabi/10.3.1/../../../../arm-none-eabi/lib/thumb/v6-m/nofp\libg.a(lib_a-iswspace_l.o)
 .debug_frame   0x00000000       0x20 c:/vsarm/armcc/102021~1.10/bin/../lib/gcc/arm-none-eabi/10.3.1/../../../../arm-none-eabi/lib/thumb/v6-m/nofp\libg.a(lib_a-iswspace_l.o)
 .ARM.attributes
                0x00000000       0x2c c:/vsarm/armcc/102021~1.10/bin/../lib/gcc/arm-none-eabi/10.3.1/../../../../arm-none-eabi/lib/thumb/v6-m/nofp\libg.a(lib_a-iswspace_l.o)
 .text          0x00000000        0x0 c:/vsarm/armcc/102021~1.10/bin/../lib/gcc/arm-none-eabi/10.3.1/../../../../arm-none-eabi/lib/thumb/v6-m/nofp\libg.a(lib_a-locale.o)
 .data          0x00000000        0x0 c:/vsarm/armcc/102021~1.10/bin/../lib/gcc/arm-none-eabi/10.3.1/../../../../arm-none-eabi/lib/thumb/v6-m/nofp\libg.a(lib_a-locale.o)
 .bss           0x00000000        0x0 c:/vsarm/armcc/102021~1.10/bin/../lib/gcc/arm-none-eabi/10.3.1/../../../../arm-none-eabi/lib/thumb/v6-m/nofp\libg.a(lib_a-locale.o)
 .rodata._setlocale_r.str1.4
                0x00000000        0xd c:/vsarm/armcc/102021~1.10/bin/../lib/gcc/arm-none-eabi/10.3.1/../../../../arm-none-eabi/lib/thumb/v6-m/nofp\libg.a(lib_a-locale.o)
 .text._setlocale_r
                0x00000000       0x44 c:/vsarm/armcc/102021~1.10/bin/../lib/gcc/arm-none-eabi/10.3.1/../../../../arm-none-eabi/lib/thumb/v6-m/nofp\libg.a(lib_a-locale.o)
 .text.__locale_mb_cur_max
                0x00000000       0x10 c:/vsarm/armcc/102021~1.10/bin/../lib/gcc/arm-none-eabi/10.3.1/../../../../arm-none-eabi/lib/thumb/v6-m/nofp\libg.a(lib_a-locale.o)
 .text.setlocale
                0x00000000       0x44 c:/vsarm/armcc/102021~1.10/bin/../lib/gcc/arm-none-eabi/10.3.1/../../../../arm-none-eabi/lib/thumb/v6-m/nofp\libg.a(lib_a-locale.o)
 .rodata.str1.4
                0x00000000        0x2 c:/vsarm/armcc/102021~1.10/bin/../lib/gcc/arm-none-eabi/10.3.1/../../../../arm-none-eabi/lib/thumb/v6-m/nofp\libg.a(lib_a-locale.o)
 .bss._PathLocale
                0x00000000        0x4 c:/vsarm/armcc/102021~1.10/bin/../lib/gcc/arm-none-eabi/10.3.1/../../../../arm-none-eabi/lib/thumb/v6-m/nofp\libg.a(lib_a-locale.o)
 .data.__global_locale
                0x00000000      0x16c c:/vsarm/armcc/102021~1.10/bin/../lib/gcc/arm-none-eabi/10.3.1/../../../../arm-none-eabi/lib/thumb/v6-m/nofp\libg.a(lib_a-locale.o)
 .debug_frame   0x00000000       0x58 c:/vsarm/armcc/102021~1.10/bin/../lib/gcc/arm-none-eabi/10.3.1/../../../../arm-none-eabi/lib/thumb/v6-m/nofp\libg.a(lib_a-locale.o)
 .ARM.attributes
                0x00000000       0x2c c:/vsarm/armcc/102021~1.10/bin/../lib/gcc/arm-none-eabi/10.3.1/../../../../arm-none-eabi/lib/thumb/v6-m/nofp\libg.a(lib_a-locale.o)
 .text          0x00000000        0x0 c:/vsarm/armcc/102021~1.10/bin/../lib/gcc/arm-none-eabi/10.3.1/../../../../arm-none-eabi/lib/thumb/v6-m/nofp\libg.a(lib_a-mbrtowc.o)
 .data          0x00000000        0x0 c:/vsarm/armcc/102021~1.10/bin/../lib/gcc/arm-none-eabi/10.3.1/../../../../arm-none-eabi/lib/thumb/v6-m/nofp\libg.a(lib_a-mbrtowc.o)
 .bss           0x00000000        0x0 c:/vsarm/armcc/102021~1.10/bin/../lib/gcc/arm-none-eabi/10.3.1/../../../../arm-none-eabi/lib/thumb/v6-m/nofp\libg.a(lib_a-mbrtowc.o)
 .rodata._mbrtowc_r.str1.4
                0x00000000        0x1 c:/vsarm/armcc/102021~1.10/bin/../lib/gcc/arm-none-eabi/10.3.1/../../../../arm-none-eabi/lib/thumb/v6-m/nofp\libg.a(lib_a-mbrtowc.o)
 .text._mbrtowc_r
                0x00000000       0x4c c:/vsarm/armcc/102021~1.10/bin/../lib/gcc/arm-none-eabi/10.3.1/../../../../arm-none-eabi/lib/thumb/v6-m/nofp\libg.a(lib_a-mbrtowc.o)
 .text.mbrtowc  0x00000000       0x50 c:/vsarm/armcc/102021~1.10/bin/../lib/gcc/arm-none-eabi/10.3.1/../../../../arm-none-eabi/lib/thumb/v6-m/nofp\libg.a(lib_a-mbrtowc.o)
 .debug_frame   0x00000000       0x4c c:/vsarm/armcc/102021~1.10/bin/../lib/gcc/arm-none-eabi/10.3.1/../../../../arm-none-eabi/lib/thumb/v6-m/nofp\libg.a(lib_a-mbrtowc.o)
 .ARM.attributes
                0x00000000       0x2c c:/vsarm/armcc/102021~1.10/bin/../lib/gcc/arm-none-eabi/10.3.1/../../../../arm-none-eabi/lib/thumb/v6-m/nofp\libg.a(lib_a-mbrtowc.o)
 .text          0x00000000        0x0 c:/vsarm/armcc/102021~1.10/bin/../lib/gcc/arm-none-eabi/10.3.1/../../../../arm-none-eabi/lib/thumb/v6-m/nofp\libg.a(lib_a-mbtowc_r.o)
 .data          0x00000000        0x0 c:/vsarm/armcc/102021~1.10/bin/../lib/gcc/arm-none-eabi/10.3.1/../../../../arm-none-eabi/lib/thumb/v6-m/nofp\libg.a(lib_a-mbtowc_r.o)
 .bss           0x00000000        0x0 c:/vsarm/armcc/102021~1.10/bin/../lib/gcc/arm-none-eabi/10.3.1/../../../../arm-none-eabi/lib/thumb/v6-m/nofp\libg.a(lib_a-mbtowc_r.o)
 .text._mbtowc_r
                0x00000000       0x18 c:/vsarm/armcc/102021~1.10/bin/../lib/gcc/arm-none-eabi/10.3.1/../../../../arm-none-eabi/lib/thumb/v6-m/nofp\libg.a(lib_a-mbtowc_r.o)
 .text.__ascii_mbtowc
                0x00000000       0x2c c:/vsarm/armcc/102021~1.10/bin/../lib/gcc/arm-none-eabi/10.3.1/../../../../arm-none-eabi/lib/thumb/v6-m/nofp\libg.a(lib_a-mbtowc_r.o)
 .debug_frame   0x00000000       0x40 c:/vsarm/armcc/102021~1.10/bin/../lib/gcc/arm-none-eabi/10.3.1/../../../../arm-none-eabi/lib/thumb/v6-m/nofp\libg.a(lib_a-mbtowc_r.o)
 .ARM.attributes
                0x00000000       0x2c c:/vsarm/armcc/102021~1.10/bin/../lib/gcc/arm-none-eabi/10.3.1/../../../../arm-none-eabi/lib/thumb/v6-m/nofp\libg.a(lib_a-mbtowc_r.o)
 .text          0x00000000        0x0 c:/vsarm/armcc/102021~1.10/bin/../lib/gcc/arm-none-eabi/10.3.1/../../../../arm-none-eabi/lib/thumb/v6-m/nofp\libg.a(lib_a-sccl.o)
 .data          0x00000000        0x0 c:/vsarm/armcc/102021~1.10/bin/../lib/gcc/arm-none-eabi/10.3.1/../../../../arm-none-eabi/lib/thumb/v6-m/nofp\libg.a(lib_a-sccl.o)
 .bss           0x00000000        0x0 c:/vsarm/armcc/102021~1.10/bin/../lib/gcc/arm-none-eabi/10.3.1/../../../../arm-none-eabi/lib/thumb/v6-m/nofp\libg.a(lib_a-sccl.o)
 .text.__sccl   0x00000000       0x80 c:/vsarm/armcc/102021~1.10/bin/../lib/gcc/arm-none-eabi/10.3.1/../../../../arm-none-eabi/lib/thumb/v6-m/nofp\libg.a(lib_a-sccl.o)
 .debug_frame   0x00000000       0x2c c:/vsarm/armcc/102021~1.10/bin/../lib/gcc/arm-none-eabi/10.3.1/../../../../arm-none-eabi/lib/thumb/v6-m/nofp\libg.a(lib_a-sccl.o)
 .ARM.attributes
                0x00000000       0x2c c:/vsarm/armcc/102021~1.10/bin/../lib/gcc/arm-none-eabi/10.3.1/../../../../arm-none-eabi/lib/thumb/v6-m/nofp\libg.a(lib_a-sccl.o)
 .text          0x00000000        0x0 c:/vsarm/armcc/102021~1.10/bin/../lib/gcc/arm-none-eabi/10.3.1/../../../../arm-none-eabi/lib/thumb/v6-m/nofp\libg.a(lib_a-strtol.o)
 .data          0x00000000        0x0 c:/vsarm/armcc/102021~1.10/bin/../lib/gcc/arm-none-eabi/10.3.1/../../../../arm-none-eabi/lib/thumb/v6-m/nofp\libg.a(lib_a-strtol.o)
 .bss           0x00000000        0x0 c:/vsarm/armcc/102021~1.10/bin/../lib/gcc/arm-none-eabi/10.3.1/../../../../arm-none-eabi/lib/thumb/v6-m/nofp\libg.a(lib_a-strtol.o)
 .text._strtol_l.part.0
                0x00000000      0x144 c:/vsarm/armcc/102021~1.10/bin/../lib/gcc/arm-none-eabi/10.3.1/../../../../arm-none-eabi/lib/thumb/v6-m/nofp\libg.a(lib_a-strtol.o)
 .text._strtol_r
                0x00000000       0x1c c:/vsarm/armcc/102021~1.10/bin/../lib/gcc/arm-none-eabi/10.3.1/../../../../arm-none-eabi/lib/thumb/v6-m/nofp\libg.a(lib_a-strtol.o)
 .text.strtol_l
                0x00000000       0x2c c:/vsarm/armcc/102021~1.10/bin/../lib/gcc/arm-none-eabi/10.3.1/../../../../arm-none-eabi/lib/thumb/v6-m/nofp\libg.a(lib_a-strtol.o)
 .text.strtol   0x00000000       0x2c c:/vsarm/armcc/102021~1.10/bin/../lib/gcc/arm-none-eabi/10.3.1/../../../../arm-none-eabi/lib/thumb/v6-m/nofp\libg.a(lib_a-strtol.o)
 .debug_frame   0x00000000       0x84 c:/vsarm/armcc/102021~1.10/bin/../lib/gcc/arm-none-eabi/10.3.1/../../../../arm-none-eabi/lib/thumb/v6-m/nofp\libg.a(lib_a-strtol.o)
 .ARM.attributes
                0x00000000       0x2c c:/vsarm/armcc/102021~1.10/bin/../lib/gcc/arm-none-eabi/10.3.1/../../../../arm-none-eabi/lib/thumb/v6-m/nofp\libg.a(lib_a-strtol.o)
 .text          0x00000000        0x0 c:/vsarm/armcc/102021~1.10/bin/../lib/gcc/arm-none-eabi/10.3.1/../../../../arm-none-eabi/lib/thumb/v6-m/nofp\libg.a(lib_a-strtoll.o)
 .data          0x00000000        0x0 c:/vsarm/armcc/102021~1.10/bin/../lib/gcc/arm-none-eabi/10.3.1/../../../../arm-none-eabi/lib/thumb/v6-m/nofp\libg.a(lib_a-strtoll.o)
 .bss           0x00000000        0x0 c:/vsarm/armcc/102021~1.10/bin/../lib/gcc/arm-none-eabi/10.3.1/../../../../arm-none-eabi/lib/thumb/v6-m/nofp\libg.a(lib_a-strtoll.o)
 .text._strtoll_l.constprop.0
                0x00000000      0x198 c:/vsarm/armcc/102021~1.10/bin/../lib/gcc/arm-none-eabi/10.3.1/../../../../arm-none-eabi/lib/thumb/v6-m/nofp\libg.a(lib_a-strtoll.o)
 .text._strtoll_r
                0x00000000        0x8 c:/vsarm/armcc/102021~1.10/bin/../lib/gcc/arm-none-eabi/10.3.1/../../../../arm-none-eabi/lib/thumb/v6-m/nofp\libg.a(lib_a-strtoll.o)
 .text.strtoll_l
                0x00000000       0x18 c:/vsarm/armcc/102021~1.10/bin/../lib/gcc/arm-none-eabi/10.3.1/../../../../arm-none-eabi/lib/thumb/v6-m/nofp\libg.a(lib_a-strtoll.o)
 .text.strtoll  0x00000000       0x18 c:/vsarm/armcc/102021~1.10/bin/../lib/gcc/arm-none-eabi/10.3.1/../../../../arm-none-eabi/lib/thumb/v6-m/nofp\libg.a(lib_a-strtoll.o)
 .debug_frame   0x00000000       0x84 c:/vsarm/armcc/102021~1.10/bin/../lib/gcc/arm-none-eabi/10.3.1/../../../../arm-none-eabi/lib/thumb/v6-m/nofp\libg.a(lib_a-strtoll.o)
 .ARM.attributes
                0x00000000       0x2c c:/vsarm/armcc/102021~1.10/bin/../lib/gcc/arm-none-eabi/10.3.1/../../../../arm-none-eabi/lib/thumb/v6-m/nofp\libg.a(lib_a-strtoll.o)
 .text          0x00000000        0x0 c:/vsarm/armcc/102021~1.10/bin/../lib/gcc/arm-none-eabi/10.3.1/../../../../arm-none-eabi/lib/thumb/v6-m/nofp\libg.a(lib_a-strtoull.o)
 .data          0x00000000        0x0 c:/vsarm/armcc/102021~1.10/bin/../lib/gcc/arm-none-eabi/10.3.1/../../../../arm-none-eabi/lib/thumb/v6-m/nofp\libg.a(lib_a-strtoull.o)
 .bss           0x00000000        0x0 c:/vsarm/armcc/102021~1.10/bin/../lib/gcc/arm-none-eabi/10.3.1/../../../../arm-none-eabi/lib/thumb/v6-m/nofp\libg.a(lib_a-strtoull.o)
 .text._strtoull_l.constprop.0
                0x00000000      0x1bc c:/vsarm/armcc/102021~1.10/bin/../lib/gcc/arm-none-eabi/10.3.1/../../../../arm-none-eabi/lib/thumb/v6-m/nofp\libg.a(lib_a-strtoull.o)
 .text._strtoull_r
                0x00000000        0x8 c:/vsarm/armcc/102021~1.10/bin/../lib/gcc/arm-none-eabi/10.3.1/../../../../arm-none-eabi/lib/thumb/v6-m/nofp\libg.a(lib_a-strtoull.o)
 .text.strtoull_l
                0x00000000       0x18 c:/vsarm/armcc/102021~1.10/bin/../lib/gcc/arm-none-eabi/10.3.1/../../../../arm-none-eabi/lib/thumb/v6-m/nofp\libg.a(lib_a-strtoull.o)
 .text.strtoull
                0x00000000       0x18 c:/vsarm/armcc/102021~1.10/bin/../lib/gcc/arm-none-eabi/10.3.1/../../../../arm-none-eabi/lib/thumb/v6-m/nofp\libg.a(lib_a-strtoull.o)
 .debug_frame   0x00000000       0x84 c:/vsarm/armcc/102021~1.10/bin/../lib/gcc/arm-none-eabi/10.3.1/../../../../arm-none-eabi/lib/thumb/v6-m/nofp\libg.a(lib_a-strtoull.o)
 .ARM.attributes
                0x00000000       0x2c c:/vsarm/armcc/102021~1.10/bin/../lib/gcc/arm-none-eabi/10.3.1/../../../../arm-none-eabi/lib/thumb/v6-m/nofp\libg.a(lib_a-strtoull.o)
 .text          0x00000000        0x0 c:/vsarm/armcc/102021~1.10/bin/../lib/gcc/arm-none-eabi/10.3.1/../../../../arm-none-eabi/lib/thumb/v6-m/nofp\libg.a(lib_a-wctomb_r.o)
 .data          0x00000000        0x0 c:/vsarm/armcc/102021~1.10/bin/../lib/gcc/arm-none-eabi/10.3.1/../../../../arm-none-eabi/lib/thumb/v6-m/nofp\libg.a(lib_a-wctomb_r.o)
 .bss           0x00000000        0x0 c:/vsarm/armcc/102021~1.10/bin/../lib/gcc/arm-none-eabi/10.3.1/../../../../arm-none-eabi/lib/thumb/v6-m/nofp\libg.a(lib_a-wctomb_r.o)
 .text._wctomb_r
                0x00000000       0x10 c:/vsarm/armcc/102021~1.10/bin/../lib/gcc/arm-none-eabi/10.3.1/../../../../arm-none-eabi/lib/thumb/v6-m/nofp\libg.a(lib_a-wctomb_r.o)
 .text.__ascii_wctomb
                0x00000000       0x1c c:/vsarm/armcc/102021~1.10/bin/../lib/gcc/arm-none-eabi/10.3.1/../../../../arm-none-eabi/lib/thumb/v6-m/nofp\libg.a(lib_a-wctomb_r.o)
 .debug_frame   0x00000000       0x3c c:/vsarm/armcc/102021~1.10/bin/../lib/gcc/arm-none-eabi/10.3.1/../../../../arm-none-eabi/lib/thumb/v6-m/nofp\libg.a(lib_a-wctomb_r.o)
 .ARM.attributes
                0x00000000       0x2c c:/vsarm/armcc/102021~1.10/bin/../lib/gcc/arm-none-eabi/10.3.1/../../../../arm-none-eabi/lib/thumb/v6-m/nofp\libg.a(lib_a-wctomb_r.o)
 .text          0x00000000        0x0 c:/vsarm/armcc/102021~1.10/bin/../lib/gcc/arm-none-eabi/10.3.1/thumb/v6-m/nofp/crtend.o
 .data          0x00000000        0x0 c:/vsarm/armcc/102021~1.10/bin/../lib/gcc/arm-none-eabi/10.3.1/thumb/v6-m/nofp/crtend.o
 .bss           0x00000000        0x0 c:/vsarm/armcc/102021~1.10/bin/../lib/gcc/arm-none-eabi/10.3.1/thumb/v6-m/nofp/crtend.o
 .rodata        0x00000000       0x24 c:/vsarm/armcc/102021~1.10/bin/../lib/gcc/arm-none-eabi/10.3.1/thumb/v6-m/nofp/crtend.o
 .eh_frame      0x00000000        0x4 c:/vsarm/armcc/102021~1.10/bin/../lib/gcc/arm-none-eabi/10.3.1/thumb/v6-m/nofp/crtend.o
 .ARM.attributes
                0x00000000       0x2c c:/vsarm/armcc/102021~1.10/bin/../lib/gcc/arm-none-eabi/10.3.1/thumb/v6-m/nofp/crtend.o
 .text          0x00000000        0x0 c:/vsarm/armcc/102021~1.10/bin/../lib/gcc/arm-none-eabi/10.3.1/thumb/v6-m/nofp/crtn.o
 .data          0x00000000        0x0 c:/vsarm/armcc/102021~1.10/bin/../lib/gcc/arm-none-eabi/10.3.1/thumb/v6-m/nofp/crtn.o
 .bss           0x00000000        0x0 c:/vsarm/armcc/102021~1.10/bin/../lib/gcc/arm-none-eabi/10.3.1/thumb/v6-m/nofp/crtn.o
 .init          0x00000000        0x8 c:/vsarm/armcc/102021~1.10/bin/../lib/gcc/arm-none-eabi/10.3.1/thumb/v6-m/nofp/crtn.o
 .fini          0x00000000        0x8 c:/vsarm/armcc/102021~1.10/bin/../lib/gcc/arm-none-eabi/10.3.1/thumb/v6-m/nofp/crtn.o
 .ARM.attributes
                0x00000000       0x1e c:/vsarm/armcc/102021~1.10/bin/../lib/gcc/arm-none-eabi/10.3.1/thumb/v6-m/nofp/crtn.o

Memory Configuration

Name             Origin             Length             Attributes
FLASH            0x10000000         0x00801000         xr
RAM              0x20000000         0x00040000         xrw
SCRATCH_X        0x20040000         0x00001000         xrw
SCRATCH_Y        0x20041000         0x00001000         xrw
*default*        0x00000000         0xffffffff

Linker script and memory map

LOAD c:/vsarm/armcc/102021~1.10/bin/../lib/gcc/arm-none-eabi/10.3.1/thumb/v6-m/nofp/crti.o
LOAD c:/vsarm/armcc/102021~1.10/bin/../lib/gcc/arm-none-eabi/10.3.1/thumb/v6-m/nofp/crtbegin.o
LOAD c:/vsarm/armcc/102021~1.10/bin/../lib/gcc/arm-none-eabi/10.3.1/../../../../arm-none-eabi/lib/thumb/v6-m/nofp/crt0.o

.flash_begin    0x10000000        0x0
                0x10000000                __flash_binary_start = .

.boot2          0x10000000      0x100
                0x10000000                __boot2_start__ = .
 *(.boot2)
 .boot2         0x10000000      0x100 C:\Users\Branden\AppData\Local\Temp\ccKio3yU.o
                0x10000100                __boot2_end__ = .
                0x00000001                ASSERT (((__boot2_end__ - __boot2_start__) == 0x100), ERROR: Pico second stage bootloader must be 256 bytes in size)

.text           0x10000100    0x101f0
                0x10000100                __logical_binary_start = .
 *(.vectors)
 .vectors       0x10000100       0xd4 CMakeFiles/gif_screen_driver.dir/C_/VSARM/sdk/pico/pico-sdk/src/rp2_common/pico_standard_link/crt0.S.obj
                0x10000100                __VECTOR_TABLE
                0x10000100                __vectors
                0x100001c0                isr_invalid
                0x100001c0                __default_isrs_start
                0x100001c2                isr_nmi
                0x100001c4                isr_hardfault
                0x100001c6                isr_svcall
                0x100001c8                isr_pendsv
                0x100001ca                isr_systick
                0x100001cc                isr_irq23
                0x100001cc                isr_irq18
                0x100001cc                isr_irq11
                0x100001cc                isr_irq28
                0x100001cc                isr_irq19
                0x100001cc                isr_irq0
                0x100001cc                isr_irq6
                0x100001cc                isr_irq5
                0x100001cc                isr_irq12
                0x100001cc                isr_irq22
                0x100001cc                isr_irq31
                0x100001cc                isr_irq17
                0x100001cc                isr_irq27
                0x100001cc                isr_irq30
                0x100001cc                isr_irq2
                0x100001cc                isr_irq10
                0x100001cc                isr_irq8
                0x100001cc                isr_irq24
                0x100001cc                isr_irq1
                0x100001cc                isr_irq7
                0x100001cc                isr_irq21
                0x100001cc                isr_irq20
                0x100001cc                isr_irq15
                0x100001cc                isr_irq25
                0x100001cc                isr_irq13
                0x100001cc                __unhandled_user_irq
                0x100001cc                isr_irq4
                0x100001cc                isr_irq16
                0x100001cc                isr_irq29
                0x100001cc                isr_irq26
                0x100001cc                __default_isrs_end
                0x100001cc                isr_irq3
                0x100001cc                isr_irq14
                0x100001cc                isr_irq9
                0x100001d2                unhandled_user_irq_num_in_r0
 *(.binary_info_header)
 .binary_info_header
                0x100001d4       0x14 CMakeFiles/gif_screen_driver.dir/C_/VSARM/sdk/pico/pico-sdk/src/rp2_common/pico_standard_link/crt0.S.obj
                0x100001e8                __binary_info_header_end = .
 *(.reset)
 .reset         0x100001e8       0xa0 CMakeFiles/gif_screen_driver.dir/C_/VSARM/sdk/pico/pico-sdk/src/rp2_common/pico_standard_link/crt0.S.obj
                0x100001e8                _entry_point
 .reset         0x10000288       0x30 CMakeFiles/gif_screen_driver.dir/C_/VSARM/sdk/pico/pico-sdk/src/rp2_common/pico_standard_link/binary_info.c.obj
 *(.init)
 .init          0x100002b8        0x4 c:/vsarm/armcc/102021~1.10/bin/../lib/gcc/arm-none-eabi/10.3.1/thumb/v6-m/nofp/crti.o
                0x100002b8                _init
 *(EXCLUDE_FILE(*libm.a: *libc.a:*lib_a-mem*.o *libgcc.a:) .text*)
 .text          0x100002bc       0x48 c:/vsarm/armcc/102021~1.10/bin/../lib/gcc/arm-none-eabi/10.3.1/thumb/v6-m/nofp/crtbegin.o
 .text.alarm_init
                0x10000304       0x38 CMakeFiles/gif_screen_driver.dir/gif_screen_driver.c.obj
                0x10000304                alarm_init
 .text.io_init  0x1000033c       0x24 CMakeFiles/gif_screen_driver.dir/gif_screen_driver.c.obj
                0x1000033c                io_init
 .text.spi1_init
                0x10000360       0x60 CMakeFiles/gif_screen_driver.dir/gif_screen_driver.c.obj
                0x10000360                spi1_init
 .text.spi1_dma_init
                0x100003c0       0xc0 CMakeFiles/gif_screen_driver.dir/gif_screen_driver.c.obj
                0x100003c0                spi1_dma_init
 .text.display_i2c_init
                0x10000480       0x38 CMakeFiles/gif_screen_driver.dir/gif_screen_driver.c.obj
                0x10000480                display_i2c_init
 .text.display_init
                0x100004b8       0x2c CMakeFiles/gif_screen_driver.dir/gif_screen_driver.c.obj
                0x100004b8                display_init
 .text.output_column
                0x100004e4      0x10c CMakeFiles/gif_screen_driver.dir/gif_screen_driver.c.obj
                0x100004e4                output_column
 .text.shift_next_bits
                0x100005f0      0x114 CMakeFiles/gif_screen_driver.dir/gif_screen_driver.c.obj
                0x100005f0                shift_next_bits
 .text.draw_screen
                0x10000704       0x78 CMakeFiles/gif_screen_driver.dir/gif_screen_driver.c.obj
                0x10000704                draw_screen
 .text.clear_screen
                0x1000077c       0x2c CMakeFiles/gif_screen_driver.dir/gif_screen_driver.c.obj
                0x1000077c                clear_screen
 .text.gif_load
                0x100007a8       0xc0 CMakeFiles/gif_screen_driver.dir/gif_screen_driver.c.obj
                0x100007a8                gif_load
 .text.get_next_frame
                0x10000868       0x58 CMakeFiles/gif_screen_driver.dir/gif_screen_driver.c.obj
                0x10000868                get_next_frame
 .text.gif_animation_init
                0x100008c0       0x24 CMakeFiles/gif_screen_driver.dir/gif_screen_driver.c.obj
                0x100008c0                gif_animation_init
 .text.frame_alarm_handler
                0x100008e4       0x44 CMakeFiles/gif_screen_driver.dir/gif_screen_driver.c.obj
                0x100008e4                frame_alarm_handler
 .text.main     0x10000928      0x104 CMakeFiles/gif_screen_driver.dir/gif_screen_driver.c.obj
                0x10000928                main
 .text.sd_get_num
                0x10000a2c        0x4 CMakeFiles/gif_screen_driver.dir/hw_config.c.obj
                0x10000a2c                sd_get_num
 .text.sd_get_by_num
                0x10000a30       0x20 CMakeFiles/gif_screen_driver.dir/hw_config.c.obj
                0x10000a30                sd_get_by_num
 .text.spi_get_num
                0x10000a50        0x4 CMakeFiles/gif_screen_driver.dir/hw_config.c.obj
                0x10000a50                spi_get_num
 .text.spi_get_by_num
                0x10000a54       0x20 CMakeFiles/gif_screen_driver.dir/hw_config.c.obj
                0x10000a54                spi_get_by_num
 .text.color_correct_palette
                0x10000a74       0x20 CMakeFiles/gif_screen_driver.dir/gifdec.c.obj
 .text.interlaced_line_index
                0x10000a94       0x54 CMakeFiles/gif_screen_driver.dir/gifdec.c.obj
 .text.read_num
                0x10000ae8       0x1e CMakeFiles/gif_screen_driver.dir/gifdec.c.obj
 .text.get_key  0x10000b06       0xc4 CMakeFiles/gif_screen_driver.dir/gifdec.c.obj
 *fill*         0x10000bca        0x2 
 .text.render_frame_rect
                0x10000bcc       0x90 CMakeFiles/gif_screen_driver.dir/gifdec.c.obj
 .text.dispose  0x10000c5c       0x90 CMakeFiles/gif_screen_driver.dir/gifdec.c.obj
 .text.new_table
                0x10000cec       0x5c CMakeFiles/gif_screen_driver.dir/gifdec.c.obj
 .text.generate_cc_lookup
                0x10000d48       0x70 CMakeFiles/gif_screen_driver.dir/gifdec.c.obj
 .text.discard_sub_blocks
                0x10000db8       0x34 CMakeFiles/gif_screen_driver.dir/gifdec.c.obj
 .text.read_plain_text_ext
                0x10000dec       0xf6 CMakeFiles/gif_screen_driver.dir/gifdec.c.obj
 .text.read_graphic_control_ext
                0x10000ee2       0x64 CMakeFiles/gif_screen_driver.dir/gifdec.c.obj
 *fill*         0x10000f46        0x2 
 .text.read_comment_ext
                0x10000f48       0x28 CMakeFiles/gif_screen_driver.dir/gifdec.c.obj
 .text.read_application_ext
                0x10000f70       0xa4 CMakeFiles/gif_screen_driver.dir/gifdec.c.obj
 .text.read_ext
                0x10001014       0x58 CMakeFiles/gif_screen_driver.dir/gifdec.c.obj
 .text.add_entry
                0x1000106c       0x5e CMakeFiles/gif_screen_driver.dir/gifdec.c.obj
 *fill*         0x100010ca        0x2 
 .text.read_image_data
                0x100010cc      0x25c CMakeFiles/gif_screen_driver.dir/gifdec.c.obj
 .text.read_image
                0x10001328       0xd4 CMakeFiles/gif_screen_driver.dir/gifdec.c.obj
 .text.gd_open_gif
                0x100013fc      0x1d4 CMakeFiles/gif_screen_driver.dir/gifdec.c.obj
                0x100013fc                gd_open_gif
 .text.gd_get_frame
                0x100015d0       0x5a CMakeFiles/gif_screen_driver.dir/gifdec.c.obj
                0x100015d0                gd_get_frame
 .text.gd_render_frame
                0x1000162a       0x26 CMakeFiles/gif_screen_driver.dir/gifdec.c.obj
                0x1000162a                gd_render_frame
 .text.gd_rewind
                0x10001650        0xe CMakeFiles/gif_screen_driver.dir/gifdec.c.obj
                0x10001650                gd_rewind
 *fill*         0x1000165e        0x2 
 .text.gd_close_gif
                0x10001660       0x18 CMakeFiles/gif_screen_driver.dir/gifdec.c.obj
                0x10001660                gd_close_gif
 .text.ssd1306_init
                0x10001678      0x110 CMakeFiles/gif_screen_driver.dir/ssd1306.c.obj
                0x10001678                ssd1306_init
 .text.ssd1306_clear
                0x10001788       0x10 CMakeFiles/gif_screen_driver.dir/ssd1306.c.obj
                0x10001788                ssd1306_clear
 .text.ssd1306_clear_pixel
                0x10001798       0x26 CMakeFiles/gif_screen_driver.dir/ssd1306.c.obj
                0x10001798                ssd1306_clear_pixel
 .text.ssd1306_draw_pixel
                0x100017be       0x26 CMakeFiles/gif_screen_driver.dir/ssd1306.c.obj
                0x100017be                ssd1306_draw_pixel
 .text.ssd1306_clear_square
                0x100017e4       0x3e CMakeFiles/gif_screen_driver.dir/ssd1306.c.obj
                0x100017e4                ssd1306_clear_square
 .text.ssd1306_draw_square
                0x10001822       0x3e CMakeFiles/gif_screen_driver.dir/ssd1306.c.obj
                0x10001822                ssd1306_draw_square
 .text.ssd1306_draw_char_with_font
                0x10001860       0xc0 CMakeFiles/gif_screen_driver.dir/ssd1306.c.obj
                0x10001860                ssd1306_draw_char_with_font
 .text.ssd1306_draw_string_with_font
                0x10001920       0x4a CMakeFiles/gif_screen_driver.dir/ssd1306.c.obj
                0x10001920                ssd1306_draw_string_with_font
 *fill*         0x1000196a        0x2 
 .text.ssd1306_draw_string
                0x1000196c       0x18 CMakeFiles/gif_screen_driver.dir/ssd1306.c.obj
                0x1000196c                ssd1306_draw_string
 .text.ssd1306_show
                0x10001984       0xbc CMakeFiles/gif_screen_driver.dir/ssd1306.c.obj
                0x10001984                ssd1306_show
 .text.set_sys_clock_pll
                0x10001a40       0x78 CMakeFiles/gif_screen_driver.dir/C_/VSARM/sdk/pico/pico-sdk/src/rp2_common/pico_stdlib/stdlib.c.obj
                0x10001a40                set_sys_clock_pll
 .text.check_sys_clock_khz
                0x10001ab8       0xa4 CMakeFiles/gif_screen_driver.dir/C_/VSARM/sdk/pico/pico-sdk/src/rp2_common/pico_stdlib/stdlib.c.obj
                0x10001ab8                check_sys_clock_khz
 .text.gpio_set_function
                0x10001b5c       0x30 CMakeFiles/gif_screen_driver.dir/C_/VSARM/sdk/pico/pico-sdk/src/rp2_common/hardware_gpio/gpio.c.obj
                0x10001b5c                gpio_set_function
 .text.gpio_set_pulls
                0x10001b8c       0x34 CMakeFiles/gif_screen_driver.dir/C_/VSARM/sdk/pico/pico-sdk/src/rp2_common/hardware_gpio/gpio.c.obj
                0x10001b8c                gpio_set_pulls
 .text.gpio_set_drive_strength
                0x10001bc0       0x20 CMakeFiles/gif_screen_driver.dir/C_/VSARM/sdk/pico/pico-sdk/src/rp2_common/hardware_gpio/gpio.c.obj
                0x10001bc0                gpio_set_drive_strength
 .text.gpio_init
                0x10001be0       0x16 CMakeFiles/gif_screen_driver.dir/C_/VSARM/sdk/pico/pico-sdk/src/rp2_common/hardware_gpio/gpio.c.obj
                0x10001be0                gpio_init
 *fill*         0x10001bf6        0x2 
 .text.running_on_fpga
                0x10001bf8       0x14 CMakeFiles/gif_screen_driver.dir/C_/VSARM/sdk/pico/pico-sdk/src/rp2_common/pico_platform/platform.c.obj
                0x10001bf8                running_on_fpga
 .text.hw_claim_lock
                0x10001c0c       0x18 CMakeFiles/gif_screen_driver.dir/C_/VSARM/sdk/pico/pico-sdk/src/rp2_common/hardware_claim/claim.c.obj
                0x10001c0c                hw_claim_lock
 .text.hw_claim_unlock
                0x10001c24       0x14 CMakeFiles/gif_screen_driver.dir/C_/VSARM/sdk/pico/pico-sdk/src/rp2_common/hardware_claim/claim.c.obj
                0x10001c24                hw_claim_unlock
 .text.hw_claim_or_assert
                0x10001c38       0x32 CMakeFiles/gif_screen_driver.dir/C_/VSARM/sdk/pico/pico-sdk/src/rp2_common/hardware_claim/claim.c.obj
                0x10001c38                hw_claim_or_assert
 .text.hw_claim_unused_from_range
                0x10001c6a       0x50 CMakeFiles/gif_screen_driver.dir/C_/VSARM/sdk/pico/pico-sdk/src/rp2_common/hardware_claim/claim.c.obj
                0x10001c6a                hw_claim_unused_from_range
 *fill*         0x10001cba        0x2 
 .text.spin_locks_reset
                0x10001cbc       0x20 CMakeFiles/gif_screen_driver.dir/C_/VSARM/sdk/pico/pico-sdk/src/rp2_common/hardware_sync/sync.c.obj
                0x10001cbc                spin_locks_reset
 .text.next_striped_spin_lock_num
                0x10001cdc       0x1c CMakeFiles/gif_screen_driver.dir/C_/VSARM/sdk/pico/pico-sdk/src/rp2_common/hardware_sync/sync.c.obj
                0x10001cdc                next_striped_spin_lock_num
 .text.spin_lock_claim_unused
                0x10001cf8       0x20 CMakeFiles/gif_screen_driver.dir/C_/VSARM/sdk/pico/pico-sdk/src/rp2_common/hardware_sync/sync.c.obj
                0x10001cf8                spin_lock_claim_unused
 .text.set_raw_irq_handler_and_unlock
                0x10001d18       0x28 CMakeFiles/gif_screen_driver.dir/C_/VSARM/sdk/pico/pico-sdk/src/rp2_common/hardware_irq/irq.c.obj
 .text.make_branch
                0x10001d40       0x48 CMakeFiles/gif_screen_driver.dir/C_/VSARM/sdk/pico/pico-sdk/src/rp2_common/hardware_irq/irq.c.obj
 .text.insert_branch_and_link
                0x10001d88       0x40 CMakeFiles/gif_screen_driver.dir/C_/VSARM/sdk/pico/pico-sdk/src/rp2_common/hardware_irq/irq.c.obj
 .text.irq_is_enabled
                0x10001dc8       0x18 CMakeFiles/gif_screen_driver.dir/C_/VSARM/sdk/pico/pico-sdk/src/rp2_common/hardware_irq/irq.c.obj
                0x10001dc8                irq_is_enabled
 .text.irq_set_mask_enabled
                0x10001de0       0x20 CMakeFiles/gif_screen_driver.dir/C_/VSARM/sdk/pico/pico-sdk/src/rp2_common/hardware_irq/irq.c.obj
                0x10001de0                irq_set_mask_enabled
 .text.irq_set_enabled
                0x10001e00        0xe CMakeFiles/gif_screen_driver.dir/C_/VSARM/sdk/pico/pico-sdk/src/rp2_common/hardware_irq/irq.c.obj
                0x10001e00                irq_set_enabled
 *fill*         0x10001e0e        0x2 
 .text.irq_set_pending
                0x10001e10       0x10 CMakeFiles/gif_screen_driver.dir/C_/VSARM/sdk/pico/pico-sdk/src/rp2_common/hardware_irq/irq.c.obj
                0x10001e10                irq_set_pending
 .text.irq_get_vtable_handler
                0x10001e20       0x10 CMakeFiles/gif_screen_driver.dir/C_/VSARM/sdk/pico/pico-sdk/src/rp2_common/hardware_irq/irq.c.obj
                0x10001e20                irq_get_vtable_handler
 .text.irq_has_shared_handler
                0x10001e30       0x24 CMakeFiles/gif_screen_driver.dir/C_/VSARM/sdk/pico/pico-sdk/src/rp2_common/hardware_irq/irq.c.obj
                0x10001e30                irq_has_shared_handler
 .text.irq_set_exclusive_handler
                0x10001e54       0x54 CMakeFiles/gif_screen_driver.dir/C_/VSARM/sdk/pico/pico-sdk/src/rp2_common/hardware_irq/irq.c.obj
                0x10001e54                irq_set_exclusive_handler
 .text.irq_add_shared_handler
                0x10001ea8      0x234 CMakeFiles/gif_screen_driver.dir/C_/VSARM/sdk/pico/pico-sdk/src/rp2_common/hardware_irq/irq.c.obj
                0x10001ea8                irq_add_shared_handler
 .text.irq_remove_handler
                0x100020dc      0x1ac CMakeFiles/gif_screen_driver.dir/C_/VSARM/sdk/pico/pico-sdk/src/rp2_common/hardware_irq/irq.c.obj
                0x100020dc                irq_remove_handler
 .text.irq_add_tail_to_free_list
                0x10002288       0xf0 CMakeFiles/gif_screen_driver.dir/C_/VSARM/sdk/pico/pico-sdk/src/rp2_common/hardware_irq/irq.c.obj
                0x10002288                irq_add_tail_to_free_list
 .text.irq_init_priorities
                0x10002378       0x1c CMakeFiles/gif_screen_driver.dir/C_/VSARM/sdk/pico/pico-sdk/src/rp2_common/hardware_irq/irq.c.obj
                0x10002378                irq_init_priorities
 .text.user_irq_claim_unused
                0x10002394       0x28 CMakeFiles/gif_screen_driver.dir/C_/VSARM/sdk/pico/pico-sdk/src/rp2_common/hardware_irq/irq.c.obj
                0x10002394                user_irq_claim_unused
 .text.sem_init
                0x100023bc       0x1e CMakeFiles/gif_screen_driver.dir/C_/VSARM/sdk/pico/pico-sdk/src/common/pico_sync/sem.c.obj
                0x100023bc                sem_init
 *fill*         0x100023da        0x2 
 .text.lock_init
                0x100023dc       0x10 CMakeFiles/gif_screen_driver.dir/C_/VSARM/sdk/pico/pico-sdk/src/common/pico_sync/lock_core.c.obj
                0x100023dc                lock_init
 .text.mutex_init
                0x100023ec       0x1a CMakeFiles/gif_screen_driver.dir/C_/VSARM/sdk/pico/pico-sdk/src/common/pico_sync/mutex.c.obj
                0x100023ec                mutex_init
 .text.recursive_mutex_init
                0x10002406       0x1e CMakeFiles/gif_screen_driver.dir/C_/VSARM/sdk/pico/pico-sdk/src/common/pico_sync/mutex.c.obj
                0x10002406                recursive_mutex_init
 .text.critical_section_init_with_lock_num
                0x10002424       0x14 CMakeFiles/gif_screen_driver.dir/C_/VSARM/sdk/pico/pico-sdk/src/common/pico_sync/critical_section.c.obj
                0x10002424                critical_section_init_with_lock_num
 .text.critical_section_init
                0x10002438       0x14 CMakeFiles/gif_screen_driver.dir/C_/VSARM/sdk/pico/pico-sdk/src/common/pico_sync/critical_section.c.obj
                0x10002438                critical_section_init
 .text.repeating_timer_callback
                0x1000244c       0x40 CMakeFiles/gif_screen_driver.dir/C_/VSARM/sdk/pico/pico-sdk/src/common/pico_time/time.c.obj
 .text.alarm_pool_post_alloc_init
                0x1000248c       0x40 CMakeFiles/gif_screen_driver.dir/C_/VSARM/sdk/pico/pico-sdk/src/common/pico_time/time.c.obj
 .text.sleep_until_callback
                0x100024cc       0x30 CMakeFiles/gif_screen_driver.dir/C_/VSARM/sdk/pico/pico-sdk/src/common/pico_time/time.c.obj
 .text.timer_pool_entry_comparator
                0x100024fc       0x7c CMakeFiles/gif_screen_driver.dir/C_/VSARM/sdk/pico/pico-sdk/src/common/pico_time/time.c.obj
                0x100024fc                timer_pool_entry_comparator
 .text.ph_add_child_node
                0x10002578       0xa4 CMakeFiles/gif_screen_driver.dir/C_/VSARM/sdk/pico/pico-sdk/src/common/pico_time/time.c.obj
 .text.ph_merge_nodes
                0x1000261c       0x3e CMakeFiles/gif_screen_driver.dir/C_/VSARM/sdk/pico/pico-sdk/src/common/pico_time/time.c.obj
 *fill*         0x1000265a        0x2 
 .text.add_alarm_under_lock
                0x1000265c      0x174 CMakeFiles/gif_screen_driver.dir/C_/VSARM/sdk/pico/pico-sdk/src/common/pico_time/time.c.obj
 .text.alarm_pool_alarm_callback
                0x100027d0      0x33c CMakeFiles/gif_screen_driver.dir/C_/VSARM/sdk/pico/pico-sdk/src/common/pico_time/time.c.obj
 .text.alarm_pool_init_default
                0x10002b0c       0x40 CMakeFiles/gif_screen_driver.dir/C_/VSARM/sdk/pico/pico-sdk/src/common/pico_time/time.c.obj
                0x10002b0c                alarm_pool_init_default
 .text.alarm_pool_get_default
                0x10002b4c       0x2c CMakeFiles/gif_screen_driver.dir/C_/VSARM/sdk/pico/pico-sdk/src/common/pico_time/time.c.obj
                0x10002b4c                alarm_pool_get_default
 .text.alarm_pool_create_with_unused_hardware_alarm
                0x10002b78       0x44 CMakeFiles/gif_screen_driver.dir/C_/VSARM/sdk/pico/pico-sdk/src/common/pico_time/time.c.obj
                0x10002b78                alarm_pool_create_with_unused_hardware_alarm
 .text.alarm_pool_add_alarm_at
                0x10002bbc      0x168 CMakeFiles/gif_screen_driver.dir/C_/VSARM/sdk/pico/pico-sdk/src/common/pico_time/time.c.obj
                0x10002bbc                alarm_pool_add_alarm_at
 .text.alarm_pool_cancel_alarm
                0x10002d24       0xf8 CMakeFiles/gif_screen_driver.dir/C_/VSARM/sdk/pico/pico-sdk/src/common/pico_time/time.c.obj
                0x10002d24                alarm_pool_cancel_alarm
 .text.alarm_pool_core_num
                0x10002e1c        0x4 CMakeFiles/gif_screen_driver.dir/C_/VSARM/sdk/pico/pico-sdk/src/common/pico_time/time.c.obj
                0x10002e1c                alarm_pool_core_num
 .text.alarm_pool_add_repeating_timer_us
                0x10002e20       0x98 CMakeFiles/gif_screen_driver.dir/C_/VSARM/sdk/pico/pico-sdk/src/common/pico_time/time.c.obj
                0x10002e20                alarm_pool_add_repeating_timer_us
 .text.sleep_until
                0x10002eb8       0xfc CMakeFiles/gif_screen_driver.dir/C_/VSARM/sdk/pico/pico-sdk/src/common/pico_time/time.c.obj
                0x10002eb8                sleep_until
 .text.sleep_us
                0x10002fb4       0x58 CMakeFiles/gif_screen_driver.dir/C_/VSARM/sdk/pico/pico-sdk/src/common/pico_time/time.c.obj
                0x10002fb4                sleep_us
 .text.sleep_ms
                0x1000300c       0x14 CMakeFiles/gif_screen_driver.dir/C_/VSARM/sdk/pico/pico-sdk/src/common/pico_time/time.c.obj
                0x1000300c                sleep_ms
 .text.best_effort_wfe_or_timeout
                0x10003020       0xac CMakeFiles/gif_screen_driver.dir/C_/VSARM/sdk/pico/pico-sdk/src/common/pico_time/time.c.obj
                0x10003020                best_effort_wfe_or_timeout
 .text.hardware_alarm_irq_handler
                0x100030cc       0x90 CMakeFiles/gif_screen_driver.dir/C_/VSARM/sdk/pico/pico-sdk/src/rp2_common/hardware_timer/timer.c.obj
 .text.hardware_alarm_claim
                0x1000315c       0x18 CMakeFiles/gif_screen_driver.dir/C_/VSARM/sdk/pico/pico-sdk/src/rp2_common/hardware_timer/timer.c.obj
                0x1000315c                hardware_alarm_claim
 .text.hardware_alarm_claim_unused
                0x10003174       0x20 CMakeFiles/gif_screen_driver.dir/C_/VSARM/sdk/pico/pico-sdk/src/rp2_common/hardware_timer/timer.c.obj
                0x10003174                hardware_alarm_claim_unused
 .text.time_us_64
                0x10003194       0x18 CMakeFiles/gif_screen_driver.dir/C_/VSARM/sdk/pico/pico-sdk/src/rp2_common/hardware_timer/timer.c.obj
                0x10003194                time_us_64
 .text.busy_wait_until
                0x100031ac       0x28 CMakeFiles/gif_screen_driver.dir/C_/VSARM/sdk/pico/pico-sdk/src/rp2_common/hardware_timer/timer.c.obj
                0x100031ac                busy_wait_until
 .text.busy_wait_us
                0x100031d4       0x48 CMakeFiles/gif_screen_driver.dir/C_/VSARM/sdk/pico/pico-sdk/src/rp2_common/hardware_timer/timer.c.obj
                0x100031d4                busy_wait_us
 .text.hardware_alarm_set_callback
                0x1000321c       0x90 CMakeFiles/gif_screen_driver.dir/C_/VSARM/sdk/pico/pico-sdk/src/rp2_common/hardware_timer/timer.c.obj
                0x1000321c                hardware_alarm_set_callback
 .text.hardware_alarm_set_target
                0x100032ac       0xe8 CMakeFiles/gif_screen_driver.dir/C_/VSARM/sdk/pico/pico-sdk/src/rp2_common/hardware_timer/timer.c.obj
                0x100032ac                hardware_alarm_set_target
 .text.hardware_alarm_cancel
                0x10003394       0x40 CMakeFiles/gif_screen_driver.dir/C_/VSARM/sdk/pico/pico-sdk/src/rp2_common/hardware_timer/timer.c.obj
                0x10003394                hardware_alarm_cancel
 .text.ph_add_child_node
                0x100033d4       0xa4 CMakeFiles/gif_screen_driver.dir/C_/VSARM/sdk/pico/pico-sdk/src/common/pico_util/pheap.c.obj
 .text.ph_merge_nodes
                0x10003478       0x3e CMakeFiles/gif_screen_driver.dir/C_/VSARM/sdk/pico/pico-sdk/src/common/pico_util/pheap.c.obj
 *fill*         0x100034b6        0x2 
 .text.ph_clear
                0x100034b8       0x70 CMakeFiles/gif_screen_driver.dir/C_/VSARM/sdk/pico/pico-sdk/src/common/pico_util/pheap.c.obj
                0x100034b8                ph_clear
 .text.ph_post_alloc_init
                0x10003528        0xe CMakeFiles/gif_screen_driver.dir/C_/VSARM/sdk/pico/pico-sdk/src/common/pico_util/pheap.c.obj
                0x10003528                ph_post_alloc_init
 .text.ph_create
                0x10003536       0x2c CMakeFiles/gif_screen_driver.dir/C_/VSARM/sdk/pico/pico-sdk/src/common/pico_util/pheap.c.obj
                0x10003536                ph_create
 *fill*         0x10003562        0x2 
 .text.ph_merge_two_pass
                0x10003564       0xa8 CMakeFiles/gif_screen_driver.dir/C_/VSARM/sdk/pico/pico-sdk/src/common/pico_util/pheap.c.obj
                0x10003564                ph_merge_two_pass
 .text.ph_remove_any_head
                0x1000360c      0x128 CMakeFiles/gif_screen_driver.dir/C_/VSARM/sdk/pico/pico-sdk/src/common/pico_util/pheap.c.obj
 .text.ph_remove_head
                0x10003734       0x14 CMakeFiles/gif_screen_driver.dir/C_/VSARM/sdk/pico/pico-sdk/src/common/pico_util/pheap.c.obj
                0x10003734                ph_remove_head
 .text.ph_remove_and_free_node
                0x10003748       0xf8 CMakeFiles/gif_screen_driver.dir/C_/VSARM/sdk/pico/pico-sdk/src/common/pico_util/pheap.c.obj
                0x10003748                ph_remove_and_free_node
 .text.clock_configure
                0x10003840      0x108 CMakeFiles/gif_screen_driver.dir/C_/VSARM/sdk/pico/pico-sdk/src/rp2_common/hardware_clocks/clocks.c.obj
                0x10003840                clock_configure
 .text.clocks_init
                0x10003948      0x100 CMakeFiles/gif_screen_driver.dir/C_/VSARM/sdk/pico/pico-sdk/src/rp2_common/hardware_clocks/clocks.c.obj
                0x10003948                clocks_init
 .text.clock_get_hz
                0x10003a48        0xc CMakeFiles/gif_screen_driver.dir/C_/VSARM/sdk/pico/pico-sdk/src/rp2_common/hardware_clocks/clocks.c.obj
                0x10003a48                clock_get_hz
 .text.pll_init
                0x10003a54      0x120 CMakeFiles/gif_screen_driver.dir/C_/VSARM/sdk/pico/pico-sdk/src/rp2_common/hardware_pll/pll.c.obj
                0x10003a54                pll_init
 .text.watchdog_start_tick
                0x10003b74       0x10 CMakeFiles/gif_screen_driver.dir/C_/VSARM/sdk/pico/pico-sdk/src/rp2_common/hardware_watchdog/watchdog.c.obj
                0x10003b74                watchdog_start_tick
 .text.watchdog_update
                0x10003b84       0x14 CMakeFiles/gif_screen_driver.dir/C_/VSARM/sdk/pico/pico-sdk/src/rp2_common/hardware_watchdog/watchdog.c.obj
                0x10003b84                watchdog_update
 .text._watchdog_enable
                0x10003b98       0x78 CMakeFiles/gif_screen_driver.dir/C_/VSARM/sdk/pico/pico-sdk/src/rp2_common/hardware_watchdog/watchdog.c.obj
                0x10003b98                _watchdog_enable
 .text.watchdog_reboot
                0x10003c10       0x48 CMakeFiles/gif_screen_driver.dir/C_/VSARM/sdk/pico/pico-sdk/src/rp2_common/hardware_watchdog/watchdog.c.obj
                0x10003c10                watchdog_reboot
 .text.xosc_init
                0x10003c58       0x28 CMakeFiles/gif_screen_driver.dir/C_/VSARM/sdk/pico/pico-sdk/src/rp2_common/hardware_xosc/xosc.c.obj
                0x10003c58                xosc_init
 .text._exit    0x10003c80        0x4 CMakeFiles/gif_screen_driver.dir/C_/VSARM/sdk/pico/pico-sdk/src/rp2_common/pico_runtime/runtime.c.obj
                0x10003c80                _exit
 .text._sbrk    0x10003c84       0x38 CMakeFiles/gif_screen_driver.dir/C_/VSARM/sdk/pico/pico-sdk/src/rp2_common/pico_runtime/runtime.c.obj
                0x10003c84                _sbrk
 .text.exit     0x10003cbc        0x6 CMakeFiles/gif_screen_driver.dir/C_/VSARM/sdk/pico/pico-sdk/src/rp2_common/pico_runtime/runtime.c.obj
                0x10003cbc                exit
 *fill*         0x10003cc2        0x2 
 .text.__assert_func
                0x10003cc4       0x3c CMakeFiles/gif_screen_driver.dir/C_/VSARM/sdk/pico/pico-sdk/src/rp2_common/pico_runtime/runtime.c.obj
                0x10003cc4                __assert_func
 .text.runtime_init
                0x10003d00       0xf8 CMakeFiles/gif_screen_driver.dir/C_/VSARM/sdk/pico/pico-sdk/src/rp2_common/pico_runtime/runtime.c.obj
                0x10003d00                runtime_init
 .text.panic    0x10003df8       0x30 CMakeFiles/gif_screen_driver.dir/C_/VSARM/sdk/pico/pico-sdk/src/rp2_common/pico_runtime/runtime.c.obj
                0x10003df8                panic
 .text._out_buffer
                0x10003e28        0x8 CMakeFiles/gif_screen_driver.dir/C_/VSARM/sdk/pico/pico-sdk/src/rp2_common/pico_printf/printf.c.obj
 .text._out_null
                0x10003e30        0x2 CMakeFiles/gif_screen_driver.dir/C_/VSARM/sdk/pico/pico-sdk/src/rp2_common/pico_printf/printf.c.obj
 .text._out_fct
                0x10003e32        0xe CMakeFiles/gif_screen_driver.dir/C_/VSARM/sdk/pico/pico-sdk/src/rp2_common/pico_printf/printf.c.obj
 .text._atoi    0x10003e40       0x24 CMakeFiles/gif_screen_driver.dir/C_/VSARM/sdk/pico/pico-sdk/src/rp2_common/pico_printf/printf.c.obj
 .text._out_rev
                0x10003e64       0xae CMakeFiles/gif_screen_driver.dir/C_/VSARM/sdk/pico/pico-sdk/src/rp2_common/pico_printf/printf.c.obj
 .text._ntoa_format
                0x10003f12      0x112 CMakeFiles/gif_screen_driver.dir/C_/VSARM/sdk/pico/pico-sdk/src/rp2_common/pico_printf/printf.c.obj
 .text._ntoa_long
                0x10004024       0xbc CMakeFiles/gif_screen_driver.dir/C_/VSARM/sdk/pico/pico-sdk/src/rp2_common/pico_printf/printf.c.obj
 .text._ntoa_long_long
                0x100040e0       0xe2 CMakeFiles/gif_screen_driver.dir/C_/VSARM/sdk/pico/pico-sdk/src/rp2_common/pico_printf/printf.c.obj
 *fill*         0x100041c2        0x2 
 .text._etoa    0x100041c4      0x414 CMakeFiles/gif_screen_driver.dir/C_/VSARM/sdk/pico/pico-sdk/src/rp2_common/pico_printf/printf.c.obj
 .text._ftoa    0x100045d8      0x354 CMakeFiles/gif_screen_driver.dir/C_/VSARM/sdk/pico/pico-sdk/src/rp2_common/pico_printf/printf.c.obj
 .text._vsnprintf
                0x1000492c      0x624 CMakeFiles/gif_screen_driver.dir/C_/VSARM/sdk/pico/pico-sdk/src/rp2_common/pico_printf/printf.c.obj
 .text.__wrap_vsnprintf
                0x10004f50       0x1c CMakeFiles/gif_screen_driver.dir/C_/VSARM/sdk/pico/pico-sdk/src/rp2_common/pico_printf/printf.c.obj
                0x10004f50                __wrap_vsnprintf
 .text.vfctprintf
                0x10004f6c       0x20 CMakeFiles/gif_screen_driver.dir/C_/VSARM/sdk/pico/pico-sdk/src/rp2_common/pico_printf/printf.c.obj
                0x10004f6c                vfctprintf
 .text          0x10004f8c       0x10 CMakeFiles/gif_screen_driver.dir/C_/VSARM/sdk/pico/pico-sdk/src/rp2_common/pico_bit_ops/bit_ops_aeabi.S.obj
 .text.rom_func_lookup
                0x10004f9c       0x10 CMakeFiles/gif_screen_driver.dir/C_/VSARM/sdk/pico/pico-sdk/src/rp2_common/pico_bootrom/bootrom.c.obj
                0x10004f9c                rom_func_lookup
 .text.rom_data_lookup
                0x10004fac       0x10 CMakeFiles/gif_screen_driver.dir/C_/VSARM/sdk/pico/pico-sdk/src/rp2_common/pico_bootrom/bootrom.c.obj
                0x10004fac                rom_data_lookup
 .text.rom_funcs_lookup
                0x10004fbc       0x36 CMakeFiles/gif_screen_driver.dir/C_/VSARM/sdk/pico/pico-sdk/src/rp2_common/pico_bootrom/bootrom.c.obj
                0x10004fbc                rom_funcs_lookup
 *fill*         0x10004ff2        0x2 
 .text.__wrap___aeabi_idiv
                0x10004ff4       0x50 CMakeFiles/gif_screen_driver.dir/C_/VSARM/sdk/pico/pico-sdk/src/rp2_common/pico_divider/divider.S.obj
                0x10004ff4                __wrap___aeabi_idivmod
                0x10004ff4                divmod_s32s32
                0x10004ff4                div_s32s32
                0x10004ff4                __wrap___aeabi_idiv
                0x10004ffc                divmod_s32s32_unsafe
                0x10005028                divmod_s32s32_savestate
 .text.__wrap___aeabi_uidiv
                0x10005044       0x4c CMakeFiles/gif_screen_driver.dir/C_/VSARM/sdk/pico/pico-sdk/src/rp2_common/pico_divider/divider.S.obj
                0x10005044                __wrap___aeabi_uidiv
                0x10005044                __wrap___aeabi_uidivmod
                0x10005044                div_u32u32
                0x10005044                divmod_u32u32
                0x1000504c                divmod_u32u32_unsafe
                0x10005074                divmod_u32u32_savestate
 .text.__wrap___aeabi_ldiv
                0x10005090      0x424 CMakeFiles/gif_screen_driver.dir/C_/VSARM/sdk/pico/pico-sdk/src/rp2_common/pico_divider/divider.S.obj
                0x10005090                div_s64s64
                0x10005090                divmod_s64s64
                0x10005090                __wrap___aeabi_ldivmod
                0x100050c0                divmod_u64u64
                0x100050c0                div_u64u64
                0x100050c0                __wrap___aeabi_uldivmod
                0x100050d0                divmod_u64u64_savestate
                0x100050f0                divmod_s64s64_unsafe
                0x10005178                divmod_u64u64_unsafe
 .text.__wrap___aeabi_darithmetic
                0x100054b4       0x80 CMakeFiles/gif_screen_driver.dir/C_/VSARM/sdk/pico/pico-sdk/src/rp2_common/pico_double/double_aeabi.S.obj
                0x100054b4                __wrap___aeabi_drsub
                0x100054ba                __wrap___aeabi_dsub
                0x100054cc                __wrap___aeabi_dadd
                0x100054de                __wrap___aeabi_ddiv
                0x1000551a                __wrap___aeabi_dmul
 .text.__wrap___aeabi_cdcmple
                0x10005534       0x6c CMakeFiles/gif_screen_driver.dir/C_/VSARM/sdk/pico/pico-sdk/src/rp2_common/pico_double/double_aeabi.S.obj
                0x10005534                __wrap___aeabi_cdrcmple
                0x10005544                __wrap___aeabi_cdcmpeq
                0x10005544                __wrap___aeabi_cdcmple
 .text.__wrap___aeabi_dcmpeq
                0x100055a0       0x10 CMakeFiles/gif_screen_driver.dir/C_/VSARM/sdk/pico/pico-sdk/src/rp2_common/pico_double/double_aeabi.S.obj
                0x100055a0                __wrap___aeabi_dcmpeq
 .text.__wrap___aeabi_dcmplt
                0x100055b0        0xc CMakeFiles/gif_screen_driver.dir/C_/VSARM/sdk/pico/pico-sdk/src/rp2_common/pico_double/double_aeabi.S.obj
                0x100055b0                __wrap___aeabi_dcmplt
 .text.__wrap___aeabi_dcmple
                0x100055bc       0x10 CMakeFiles/gif_screen_driver.dir/C_/VSARM/sdk/pico/pico-sdk/src/rp2_common/pico_double/double_aeabi.S.obj
                0x100055bc                __wrap___aeabi_dcmple
 .text.__wrap___aeabi_dcmpge
                0x100055cc       0x10 CMakeFiles/gif_screen_driver.dir/C_/VSARM/sdk/pico/pico-sdk/src/rp2_common/pico_double/double_aeabi.S.obj
                0x100055cc                __wrap___aeabi_dcmpge
 .text.__wrap___aeabi_dcmpgt
                0x100055dc        0xa CMakeFiles/gif_screen_driver.dir/C_/VSARM/sdk/pico/pico-sdk/src/rp2_common/pico_double/double_aeabi.S.obj
                0x100055dc                __wrap___aeabi_dcmpgt
 .text.__wrap___aeabi_dcmpun
                0x100055e6       0x1c CMakeFiles/gif_screen_driver.dir/C_/VSARM/sdk/pico/pico-sdk/src/rp2_common/pico_double/double_aeabi.S.obj
                0x100055e6                __wrap___aeabi_dcmpun
 *fill*         0x10005602        0x2 
 .text.__wrap___aeabi_i2d
                0x10005604       0x38 CMakeFiles/gif_screen_driver.dir/C_/VSARM/sdk/pico/pico-sdk/src/rp2_common/pico_double/double_aeabi.S.obj
                0x10005604                __wrap___aeabi_ui2d
                0x1000560c                __wrap___aeabi_i2d
 .text.__wrap___aeabi_d2iz
                0x1000563c       0x48 CMakeFiles/gif_screen_driver.dir/C_/VSARM/sdk/pico/pico-sdk/src/rp2_common/pico_double/double_aeabi.S.obj
                0x1000563c                double2int_z
                0x1000563c                __wrap___aeabi_d2iz
 .text.__wrap___aeabi_d2uiz
                0x10005684       0x18 CMakeFiles/gif_screen_driver.dir/C_/VSARM/sdk/pico/pico-sdk/src/rp2_common/pico_double/double_aeabi.S.obj
                0x10005684                __wrap___aeabi_d2uiz
                0x10005684                double2uint
 .text.__wrap_exp
                0x1000569c       0x18 CMakeFiles/gif_screen_driver.dir/C_/VSARM/sdk/pico/pico-sdk/src/rp2_common/pico_double/double_aeabi.S.obj
                0x1000569c                __wrap_exp
 .text.__wrap_log
                0x100056b4       0x18 CMakeFiles/gif_screen_driver.dir/C_/VSARM/sdk/pico/pico-sdk/src/rp2_common/pico_double/double_aeabi.S.obj
                0x100056b4                __wrap_log
 .text.__aeabi_double_init
                0x100056cc       0xc8 CMakeFiles/gif_screen_driver.dir/C_/VSARM/sdk/pico/pico-sdk/src/rp2_common/pico_double/double_init_rom.c.obj
                0x100056cc                __aeabi_double_init
 .text.dpow_int2
                0x10005794       0x2c CMakeFiles/gif_screen_driver.dir/C_/VSARM/sdk/pico/pico-sdk/src/rp2_common/pico_double/double_math.c.obj
 .text.dpow_1   0x100057c0      0x2a8 CMakeFiles/gif_screen_driver.dir/C_/VSARM/sdk/pico/pico-sdk/src/rp2_common/pico_double/double_math.c.obj
 .text.dpow_0   0x10005a68      0x1a0 CMakeFiles/gif_screen_driver.dir/C_/VSARM/sdk/pico/pico-sdk/src/rp2_common/pico_double/double_math.c.obj
 .text.__wrap_ldexp
                0x10005c08       0x50 CMakeFiles/gif_screen_driver.dir/C_/VSARM/sdk/pico/pico-sdk/src/rp2_common/pico_double/double_math.c.obj
                0x10005c08                __wrap_ldexp
 .text.__wrap_round
                0x10005c58       0x9c CMakeFiles/gif_screen_driver.dir/C_/VSARM/sdk/pico/pico-sdk/src/rp2_common/pico_double/double_math.c.obj
                0x10005c58                __wrap_round
 .text.__wrap_exp2
                0x10005cf4       0xcc CMakeFiles/gif_screen_driver.dir/C_/VSARM/sdk/pico/pico-sdk/src/rp2_common/pico_double/double_math.c.obj
                0x10005cf4                __wrap_exp2
 .text.__wrap_pow
                0x10005dc0      0x37c CMakeFiles/gif_screen_driver.dir/C_/VSARM/sdk/pico/pico-sdk/src/rp2_common/pico_double/double_math.c.obj
                0x10005dc0                __wrap_pow
 .text.double_table_shim_on_use_helper
                0x1000613c       0x34 CMakeFiles/gif_screen_driver.dir/C_/VSARM/sdk/pico/pico-sdk/src/rp2_common/pico_double/double_v1_rom_shim.S.obj
                0x1000613c                double_table_shim_on_use_helper
 .text.__wrap___aeabi_dsub
                0x10006170       0x10 CMakeFiles/gif_screen_driver.dir/C_/VSARM/sdk/pico/pico-sdk/src/rp2_common/pico_double/double_v1_rom_shim.S.obj
                0x10006170                drsub_shim
                0x10006176                dsub_shim
 .text.dadd_shim
                0x10006180      0x15c CMakeFiles/gif_screen_driver.dir/C_/VSARM/sdk/pico/pico-sdk/src/rp2_common/pico_double/double_v1_rom_shim.S.obj
                0x10006180                dadd_shim
 .text.dmul_shim
                0x100062dc      0x15c CMakeFiles/gif_screen_driver.dir/C_/VSARM/sdk/pico/pico-sdk/src/rp2_common/pico_double/double_v1_rom_shim.S.obj
                0x100062dc                dmul_shim
 .text.ddiv_shim
                0x10006438      0x1b0 CMakeFiles/gif_screen_driver.dir/C_/VSARM/sdk/pico/pico-sdk/src/rp2_common/pico_double/double_v1_rom_shim.S.obj
                0x10006438                ddiv_shim
 .text.double2uint_shim
                0x100065e8        0xe CMakeFiles/gif_screen_driver.dir/C_/VSARM/sdk/pico/pico-sdk/src/rp2_common/pico_double/double_v1_rom_shim.S.obj
                0x100065e8                double2uint_shim
                0x100065ea                double2ufix_shim
 *fill*         0x100065f6        0x2 
 .text.double2uint64_shim
                0x100065f8       0x70 CMakeFiles/gif_screen_driver.dir/C_/VSARM/sdk/pico/pico-sdk/src/rp2_common/pico_double/double_v1_rom_shim.S.obj
                0x100065f8                double2uint64_shim
                0x100065fa                double2ufix64_shim
                0x1000661a                d2fix_a
 .text.x2double_shims
                0x10006668       0x90 CMakeFiles/gif_screen_driver.dir/C_/VSARM/sdk/pico/pico-sdk/src/rp2_common/pico_double/double_v1_rom_shim.S.obj
                0x10006668                uint2double_shim
                0x1000666a                ufix2double_shim
                0x10006670                int2double_shim
                0x10006672                fix2double_shim
                0x10006678                uint642double_shim
                0x1000667a                ufix642double_shim
                0x10006680                int642double_shim
                0x10006682                fix642double_shim
 .text.dunpacks
                0x100066f8       0x3c CMakeFiles/gif_screen_driver.dir/C_/VSARM/sdk/pico/pico-sdk/src/rp2_common/pico_double/double_v1_rom_shim.S.obj
                0x100066f8                dunpacks
 .text.dreduce  0x10006734       0x82 CMakeFiles/gif_screen_driver.dir/C_/VSARM/sdk/pico/pico-sdk/src/rp2_common/pico_double/double_v1_rom_shim.S.obj
                0x10006734                dreduce
 *fill*         0x100067b6        0x2 
 .text.dexp_guts
                0x100067b8      0x268 CMakeFiles/gif_screen_driver.dir/C_/VSARM/sdk/pico/pico-sdk/src/rp2_common/pico_double/double_v1_rom_shim.S.obj
                0x100067b8                dexp_shim
                0x10006854                dln_shim
 .text.__aeabi_lmul
                0x10006a20       0x32 CMakeFiles/gif_screen_driver.dir/C_/VSARM/sdk/pico/pico-sdk/src/rp2_common/pico_int64_ops/pico_int64_ops_aeabi.S.obj
                0x10006a20                __wrap___aeabi_lmul
 *fill*         0x10006a52        0x2 
 .text.__wrap___aeabi_farithmetic
                0x10006a54       0x58 CMakeFiles/gif_screen_driver.dir/C_/VSARM/sdk/pico/pico-sdk/src/rp2_common/pico_float/float_aeabi.S.obj
                0x10006a54                __wrap___aeabi_frsub
                0x10006a5a                __wrap___aeabi_fsub
                0x10006a64                __wrap___aeabi_fadd
                0x10006a6e                __wrap___aeabi_fdiv
                0x10006a9a                __wrap___aeabi_fmul
 .text.__wrap___aeabi_ui2f
                0x10006aac        0xa CMakeFiles/gif_screen_driver.dir/C_/VSARM/sdk/pico/pico-sdk/src/rp2_common/pico_float/float_aeabi.S.obj
                0x10006aac                __wrap___aeabi_ui2f
 *fill*         0x10006ab6        0x2 
 .text.__wrap___aeabi_i2f
                0x10006ab8       0x44 CMakeFiles/gif_screen_driver.dir/C_/VSARM/sdk/pico/pico-sdk/src/rp2_common/pico_float/float_aeabi.S.obj
                0x10006ab8                __wrap___aeabi_i2f
 .text.__wrap___aeabi_f2d
                0x10006afc       0x14 CMakeFiles/gif_screen_driver.dir/C_/VSARM/sdk/pico/pico-sdk/src/rp2_common/pico_float/float_aeabi.S.obj
                0x10006afc                __wrap___aeabi_f2d
 .text.__aeabi_float_init
                0x10006b10       0xfc CMakeFiles/gif_screen_driver.dir/C_/VSARM/sdk/pico/pico-sdk/src/rp2_common/pico_float/float_init_rom.c.obj
                0x10006b10                __aeabi_float_init
 .text.float_table_shim_on_use_helper
                0x10006c0c       0x34 CMakeFiles/gif_screen_driver.dir/C_/VSARM/sdk/pico/pico-sdk/src/rp2_common/pico_float/float_v1_rom_shim.S.obj
                0x10006c0c                float_table_shim_on_use_helper
 .text.float2double_shim
                0x10006c40       0x30 CMakeFiles/gif_screen_driver.dir/C_/VSARM/sdk/pico/pico-sdk/src/rp2_common/pico_float/float_v1_rom_shim.S.obj
                0x10006c40                float2double_shim
 .text.__wrap_malloc
                0x10006c70       0x3c CMakeFiles/gif_screen_driver.dir/C_/VSARM/sdk/pico/pico-sdk/src/rp2_common/pico_malloc/pico_malloc.c.obj
                0x10006c70                __wrap_malloc
 .text.__wrap_calloc
                0x10006cac       0x40 CMakeFiles/gif_screen_driver.dir/C_/VSARM/sdk/pico/pico-sdk/src/rp2_common/pico_malloc/pico_malloc.c.obj
                0x10006cac                __wrap_calloc
 .text.__wrap_realloc
                0x10006cec       0x40 CMakeFiles/gif_screen_driver.dir/C_/VSARM/sdk/pico/pico-sdk/src/rp2_common/pico_malloc/pico_malloc.c.obj
                0x10006cec                __wrap_realloc
 .text.__wrap_free
                0x10006d2c       0x20 CMakeFiles/gif_screen_driver.dir/C_/VSARM/sdk/pico/pico-sdk/src/rp2_common/pico_malloc/pico_malloc.c.obj
                0x10006d2c                __wrap_free
 .text          0x10006d4c       0x10 CMakeFiles/gif_screen_driver.dir/C_/VSARM/sdk/pico/pico-sdk/src/rp2_common/pico_mem_ops/mem_ops_aeabi.S.obj
                0x10006d4c                __aeabi_mem_init
 .text.memset   0x10006d5c        0xc CMakeFiles/gif_screen_driver.dir/C_/VSARM/sdk/pico/pico-sdk/src/rp2_common/pico_mem_ops/mem_ops_aeabi.S.obj
                0x10006d5c                __wrap_memset
 .text.memcpy   0x10006d68        0xc CMakeFiles/gif_screen_driver.dir/C_/VSARM/sdk/pico/pico-sdk/src/rp2_common/pico_mem_ops/mem_ops_aeabi.S.obj
                0x10006d68                __wrap_memcpy
                0x10006d68                __wrap___aeabi_memcpy
 .text.stdio_out_chars_no_crlf
                0x10006d74        0xe CMakeFiles/gif_screen_driver.dir/C_/VSARM/sdk/pico/pico-sdk/src/rp2_common/pico_stdio/stdio.c.obj
 *fill*         0x10006d82        0x2 
 .text.stdio_out_chars_crlf
                0x10006d84       0x80 CMakeFiles/gif_screen_driver.dir/C_/VSARM/sdk/pico/pico-sdk/src/rp2_common/pico_stdio/stdio.c.obj
 .text.stdio_stack_buffer_flush
                0x10006e04       0x44 CMakeFiles/gif_screen_driver.dir/C_/VSARM/sdk/pico/pico-sdk/src/rp2_common/pico_stdio/stdio.c.obj
 .text.stdio_buffered_printer
                0x10006e48       0x20 CMakeFiles/gif_screen_driver.dir/C_/VSARM/sdk/pico/pico-sdk/src/rp2_common/pico_stdio/stdio.c.obj
 .text.stdio_get_until
                0x10006e68       0x80 CMakeFiles/gif_screen_driver.dir/C_/VSARM/sdk/pico/pico-sdk/src/rp2_common/pico_stdio/stdio.c.obj
 .text.stdout_serialize_begin
                0x10006ee8       0x5c CMakeFiles/gif_screen_driver.dir/C_/VSARM/sdk/pico/pico-sdk/src/rp2_common/pico_stdio/stdio.c.obj
                0x10006ee8                stdout_serialize_begin
 .text.stdout_serialize_end
                0x10006f44       0x10 CMakeFiles/gif_screen_driver.dir/C_/VSARM/sdk/pico/pico-sdk/src/rp2_common/pico_stdio/stdio.c.obj
                0x10006f44                stdout_serialize_end
 .text.stdio_put_string
                0x10006f54       0x98 CMakeFiles/gif_screen_driver.dir/C_/VSARM/sdk/pico/pico-sdk/src/rp2_common/pico_stdio/stdio.c.obj
 .text._read    0x10006fec       0x24 CMakeFiles/gif_screen_driver.dir/C_/VSARM/sdk/pico/pico-sdk/src/rp2_common/pico_stdio/stdio.c.obj
                0x10006fec                _read
 .text._write   0x10007010       0x22 CMakeFiles/gif_screen_driver.dir/C_/VSARM/sdk/pico/pico-sdk/src/rp2_common/pico_stdio/stdio.c.obj
                0x10007010                _write
 .text._close   0x10007032        0x6 CMakeFiles/gif_screen_driver.dir/C_/VSARM/sdk/pico/pico-sdk/src/rp2_common/pico_stdio/stdio.c.obj
                0x10007032                _close
 .text._lseek   0x10007038        0x6 CMakeFiles/gif_screen_driver.dir/C_/VSARM/sdk/pico/pico-sdk/src/rp2_common/pico_stdio/stdio.c.obj
                0x10007038                _lseek
 *fill*         0x1000703e        0x2 
 .text.stdio_set_driver_enabled
                0x10007040       0x2c CMakeFiles/gif_screen_driver.dir/C_/VSARM/sdk/pico/pico-sdk/src/rp2_common/pico_stdio/stdio.c.obj
                0x10007040                stdio_set_driver_enabled
 .text.stdio_flush
                0x1000706c       0x20 CMakeFiles/gif_screen_driver.dir/C_/VSARM/sdk/pico/pico-sdk/src/rp2_common/pico_stdio/stdio.c.obj
                0x1000706c                stdio_flush
 .text.__wrap_puts
                0x1000708c       0x1e CMakeFiles/gif_screen_driver.dir/C_/VSARM/sdk/pico/pico-sdk/src/rp2_common/pico_stdio/stdio.c.obj
                0x1000708c                __wrap_puts
 *fill*         0x100070aa        0x2 
 .text.__wrap_vprintf
                0x100070ac       0x40 CMakeFiles/gif_screen_driver.dir/C_/VSARM/sdk/pico/pico-sdk/src/rp2_common/pico_stdio/stdio.c.obj
                0x100070ac                __wrap_vprintf
 .text.__wrap_printf
                0x100070ec       0x18 CMakeFiles/gif_screen_driver.dir/C_/VSARM/sdk/pico/pico-sdk/src/rp2_common/pico_stdio/stdio.c.obj
                0x100070ec                __wrap_printf
 .text.stdio_init_all
                0x10007104        0x8 CMakeFiles/gif_screen_driver.dir/C_/VSARM/sdk/pico/pico-sdk/src/rp2_common/pico_stdio/stdio.c.obj
                0x10007104                stdio_init_all
 .text.resetd_init
                0x1000710c        0x2 CMakeFiles/gif_screen_driver.dir/C_/VSARM/sdk/pico/pico-sdk/src/rp2_common/pico_stdio_usb/reset_interface.c.obj
 *fill*         0x1000710e        0x2 
 .text.resetd_reset
                0x10007110        0xc CMakeFiles/gif_screen_driver.dir/C_/VSARM/sdk/pico/pico-sdk/src/rp2_common/pico_stdio_usb/reset_interface.c.obj
 .text.resetd_open
                0x1000711c       0x34 CMakeFiles/gif_screen_driver.dir/C_/VSARM/sdk/pico/pico-sdk/src/rp2_common/pico_stdio_usb/reset_interface.c.obj
 .text.resetd_xfer_cb
                0x10007150        0x4 CMakeFiles/gif_screen_driver.dir/C_/VSARM/sdk/pico/pico-sdk/src/rp2_common/pico_stdio_usb/reset_interface.c.obj
 .text.reset_usb_boot
                0x10007154       0x18 CMakeFiles/gif_screen_driver.dir/C_/VSARM/sdk/pico/pico-sdk/src/rp2_common/pico_stdio_usb/reset_interface.c.obj
 .text.resetd_control_xfer_cb
                0x1000716c       0x5c CMakeFiles/gif_screen_driver.dir/C_/VSARM/sdk/pico/pico-sdk/src/rp2_common/pico_stdio_usb/reset_interface.c.obj
 .text.usbd_app_driver_get_cb
                0x100071c8        0xc CMakeFiles/gif_screen_driver.dir/C_/VSARM/sdk/pico/pico-sdk/src/rp2_common/pico_stdio_usb/reset_interface.c.obj
                0x100071c8                usbd_app_driver_get_cb
 .text.tud_cdc_line_coding_cb
                0x100071d4       0x28 CMakeFiles/gif_screen_driver.dir/C_/VSARM/sdk/pico/pico-sdk/src/rp2_common/pico_stdio_usb/reset_interface.c.obj
                0x100071d4                tud_cdc_line_coding_cb
 .text.stdio_usb_set_chars_available_callback
                0x100071fc       0x14 CMakeFiles/gif_screen_driver.dir/C_/VSARM/sdk/pico/pico-sdk/src/rp2_common/pico_stdio_usb/stdio_usb.c.obj
                0x100071fc                stdio_usb_set_chars_available_callback
 .text.usb_irq  0x10007210       0x10 CMakeFiles/gif_screen_driver.dir/C_/VSARM/sdk/pico/pico-sdk/src/rp2_common/pico_stdio_usb/stdio_usb.c.obj
 .text.timer_task
                0x10007220       0x5c CMakeFiles/gif_screen_driver.dir/C_/VSARM/sdk/pico/pico-sdk/src/rp2_common/pico_stdio_usb/stdio_usb.c.obj
 .text.low_priority_worker_irq
                0x1000727c       0xdc CMakeFiles/gif_screen_driver.dir/C_/VSARM/sdk/pico/pico-sdk/src/rp2_common/pico_stdio_usb/stdio_usb.c.obj
 .text.tud_cdc_rx_cb
                0x10007358       0x20 CMakeFiles/gif_screen_driver.dir/C_/VSARM/sdk/pico/pico-sdk/src/rp2_common/pico_stdio_usb/stdio_usb.c.obj
                0x10007358                tud_cdc_rx_cb
 .text.stdio_usb_init
                0x10007378      0x11c CMakeFiles/gif_screen_driver.dir/C_/VSARM/sdk/pico/pico-sdk/src/rp2_common/pico_stdio_usb/stdio_usb.c.obj
                0x10007378                stdio_usb_init
 .text.stdio_usb_connected
                0x10007494        0xa CMakeFiles/gif_screen_driver.dir/C_/VSARM/sdk/pico/pico-sdk/src/rp2_common/pico_stdio_usb/stdio_usb.c.obj
                0x10007494                stdio_usb_connected
 *fill*         0x1000749e        0x2 
 .text.stdio_usb_in_chars
                0x100074a0       0xc4 CMakeFiles/gif_screen_driver.dir/C_/VSARM/sdk/pico/pico-sdk/src/rp2_common/pico_stdio_usb/stdio_usb.c.obj
                0x100074a0                stdio_usb_in_chars
 .text.stdio_usb_out_chars
                0x10007564      0x114 CMakeFiles/gif_screen_driver.dir/C_/VSARM/sdk/pico/pico-sdk/src/rp2_common/pico_stdio_usb/stdio_usb.c.obj
 .text.tud_descriptor_device_cb
                0x10007678        0x8 CMakeFiles/gif_screen_driver.dir/C_/VSARM/sdk/pico/pico-sdk/src/rp2_common/pico_stdio_usb/stdio_usb_descriptors.c.obj
                0x10007678                tud_descriptor_device_cb
 .text.tud_descriptor_configuration_cb
                0x10007680        0x8 CMakeFiles/gif_screen_driver.dir/C_/VSARM/sdk/pico/pico-sdk/src/rp2_common/pico_stdio_usb/stdio_usb_descriptors.c.obj
                0x10007680                tud_descriptor_configuration_cb
 .text.tud_descriptor_string_cb
                0x10007688       0x6c CMakeFiles/gif_screen_driver.dir/C_/VSARM/sdk/pico/pico-sdk/src/rp2_common/pico_stdio_usb/stdio_usb_descriptors.c.obj
                0x10007688                tud_descriptor_string_cb
 .text._retrieve_unique_id_on_boot
                0x100076f4       0x10 CMakeFiles/gif_screen_driver.dir/C_/VSARM/sdk/pico/pico-sdk/src/rp2_common/pico_unique_id/unique_id.c.obj
 .text.pico_get_unique_board_id_string
                0x10007704       0x60 CMakeFiles/gif_screen_driver.dir/C_/VSARM/sdk/pico/pico-sdk/src/rp2_common/pico_unique_id/unique_id.c.obj
                0x10007704                pico_get_unique_board_id_string
 .text.flash_get_unique_id
                0x10007764       0x46 CMakeFiles/gif_screen_driver.dir/C_/VSARM/sdk/pico/pico-sdk/src/rp2_common/hardware_flash/flash.c.obj
                0x10007764                flash_get_unique_id
 *fill*         0x100077aa        0x2 
 .text.hw_endpoint_get_by_addr
                0x100077ac       0x18 CMakeFiles/gif_screen_driver.dir/C_/VSARM/sdk/pico/pico-sdk/lib/tinyusb/src/portable/raspberrypi/rp2040/dcd_rp2040.c.obj
 .text._hw_endpoint_alloc
                0x100077c4       0x70 CMakeFiles/gif_screen_driver.dir/C_/VSARM/sdk/pico/pico-sdk/lib/tinyusb/src/portable/raspberrypi/rp2040/dcd_rp2040.c.obj
 .text.hw_endpoint_init
                0x10007834       0x88 CMakeFiles/gif_screen_driver.dir/C_/VSARM/sdk/pico/pico-sdk/lib/tinyusb/src/portable/raspberrypi/rp2040/dcd_rp2040.c.obj
 .text.hw_endpoint_xfer
                0x100078bc       0x14 CMakeFiles/gif_screen_driver.dir/C_/VSARM/sdk/pico/pico-sdk/lib/tinyusb/src/portable/raspberrypi/rp2040/dcd_rp2040.c.obj
 .text.dcd_int_enable
                0x100078d0       0x2c CMakeFiles/gif_screen_driver.dir/C_/VSARM/sdk/pico/pico-sdk/lib/tinyusb/src/portable/raspberrypi/rp2040/dcd_rp2040.c.obj
                0x100078d0                dcd_int_enable
 .text.dcd_set_address
                0x100078fc       0x2c CMakeFiles/gif_screen_driver.dir/C_/VSARM/sdk/pico/pico-sdk/lib/tinyusb/src/portable/raspberrypi/rp2040/dcd_rp2040.c.obj
                0x100078fc                dcd_set_address
 .text.dcd_connect
                0x10007928       0x10 CMakeFiles/gif_screen_driver.dir/C_/VSARM/sdk/pico/pico-sdk/lib/tinyusb/src/portable/raspberrypi/rp2040/dcd_rp2040.c.obj
                0x10007928                dcd_connect
 .text.dcd_init
                0x10007938       0x80 CMakeFiles/gif_screen_driver.dir/C_/VSARM/sdk/pico/pico-sdk/lib/tinyusb/src/portable/raspberrypi/rp2040/dcd_rp2040.c.obj
                0x10007938                dcd_init
 .text.dcd_edpt0_status_complete
                0x100079b8       0x1c CMakeFiles/gif_screen_driver.dir/C_/VSARM/sdk/pico/pico-sdk/lib/tinyusb/src/portable/raspberrypi/rp2040/dcd_rp2040.c.obj
                0x100079b8                dcd_edpt0_status_complete
 .text.dcd_edpt_open
                0x100079d4       0x40 CMakeFiles/gif_screen_driver.dir/C_/VSARM/sdk/pico/pico-sdk/lib/tinyusb/src/portable/raspberrypi/rp2040/dcd_rp2040.c.obj
                0x100079d4                dcd_edpt_open
 .text.dcd_edpt_close_all
                0x10007a14        0x8 CMakeFiles/gif_screen_driver.dir/C_/VSARM/sdk/pico/pico-sdk/lib/tinyusb/src/portable/raspberrypi/rp2040/dcd_rp2040.c.obj
                0x10007a14                dcd_edpt_close_all
 .text.dcd_edpt_xfer
                0x10007a1c       0x34 CMakeFiles/gif_screen_driver.dir/C_/VSARM/sdk/pico/pico-sdk/lib/tinyusb/src/portable/raspberrypi/rp2040/dcd_rp2040.c.obj
                0x10007a1c                dcd_edpt_xfer
 .text.dcd_edpt_stall
                0x10007a50       0x2c CMakeFiles/gif_screen_driver.dir/C_/VSARM/sdk/pico/pico-sdk/lib/tinyusb/src/portable/raspberrypi/rp2040/dcd_rp2040.c.obj
                0x10007a50                dcd_edpt_stall
 .text.dcd_edpt_clear_stall
                0x10007a7c       0x20 CMakeFiles/gif_screen_driver.dir/C_/VSARM/sdk/pico/pico-sdk/lib/tinyusb/src/portable/raspberrypi/rp2040/dcd_rp2040.c.obj
                0x10007a7c                dcd_edpt_clear_stall
 .text.rp2040_usb_init
                0x10007a9c       0x4c CMakeFiles/gif_screen_driver.dir/C_/VSARM/sdk/pico/pico-sdk/lib/tinyusb/src/portable/raspberrypi/rp2040/rp2040_usb.c.obj
                0x10007a9c                rp2040_usb_init
 .text.hw_endpoint_xfer_start
                0x10007ae8       0x50 CMakeFiles/gif_screen_driver.dir/C_/VSARM/sdk/pico/pico-sdk/lib/tinyusb/src/portable/raspberrypi/rp2040/rp2040_usb.c.obj
                0x10007ae8                hw_endpoint_xfer_start
 .text.configuration_reset
                0x10007b38       0x84 CMakeFiles/gif_screen_driver.dir/C_/VSARM/sdk/pico/pico-sdk/lib/tinyusb/src/device/usbd.c.obj
 .text.usbd_reset
                0x10007bbc        0xc CMakeFiles/gif_screen_driver.dir/C_/VSARM/sdk/pico/pico-sdk/lib/tinyusb/src/device/usbd.c.obj
 .text.invoke_class_control
                0x10007bc8       0x1a CMakeFiles/gif_screen_driver.dir/C_/VSARM/sdk/pico/pico-sdk/lib/tinyusb/src/device/usbd.c.obj
 *fill*         0x10007be2        0x2 
 .text.process_set_config
                0x10007be4      0x178 CMakeFiles/gif_screen_driver.dir/C_/VSARM/sdk/pico/pico-sdk/lib/tinyusb/src/device/usbd.c.obj
 .text.process_get_descriptor
                0x10007d5c       0xdc CMakeFiles/gif_screen_driver.dir/C_/VSARM/sdk/pico/pico-sdk/lib/tinyusb/src/device/usbd.c.obj
 .text.tud_mounted
                0x10007e38       0x10 CMakeFiles/gif_screen_driver.dir/C_/VSARM/sdk/pico/pico-sdk/lib/tinyusb/src/device/usbd.c.obj
                0x10007e38                tud_mounted
 .text.tud_suspended
                0x10007e48       0x10 CMakeFiles/gif_screen_driver.dir/C_/VSARM/sdk/pico/pico-sdk/lib/tinyusb/src/device/usbd.c.obj
                0x10007e48                tud_suspended
 .text.tud_inited
                0x10007e58       0x14 CMakeFiles/gif_screen_driver.dir/C_/VSARM/sdk/pico/pico-sdk/lib/tinyusb/src/device/usbd.c.obj
                0x10007e58                tud_inited
 .text.tud_init
                0x10007e6c       0xcc CMakeFiles/gif_screen_driver.dir/C_/VSARM/sdk/pico/pico-sdk/lib/tinyusb/src/device/usbd.c.obj
                0x10007e6c                tud_init
 .text.usbd_defer_func
                0x10007f38       0x2a CMakeFiles/gif_screen_driver.dir/C_/VSARM/sdk/pico/pico-sdk/lib/tinyusb/src/device/usbd.c.obj
                0x10007f38                usbd_defer_func
 *fill*         0x10007f62        0x2 
 .text.usbd_edpt_open
                0x10007f64       0x34 CMakeFiles/gif_screen_driver.dir/C_/VSARM/sdk/pico/pico-sdk/lib/tinyusb/src/device/usbd.c.obj
                0x10007f64                usbd_edpt_open
 .text.usbd_open_edpt_pair
                0x10007f98       0x62 CMakeFiles/gif_screen_driver.dir/C_/VSARM/sdk/pico/pico-sdk/lib/tinyusb/src/device/usbd.c.obj
                0x10007f98                usbd_open_edpt_pair
 *fill*         0x10007ffa        0x2 
 .text.usbd_edpt_claim
                0x10007ffc       0x28 CMakeFiles/gif_screen_driver.dir/C_/VSARM/sdk/pico/pico-sdk/lib/tinyusb/src/device/usbd.c.obj
                0x10007ffc                usbd_edpt_claim
 .text.usbd_edpt_release
                0x10008024       0x28 CMakeFiles/gif_screen_driver.dir/C_/VSARM/sdk/pico/pico-sdk/lib/tinyusb/src/device/usbd.c.obj
                0x10008024                usbd_edpt_release
 .text.usbd_edpt_xfer
                0x1000804c       0x78 CMakeFiles/gif_screen_driver.dir/C_/VSARM/sdk/pico/pico-sdk/lib/tinyusb/src/device/usbd.c.obj
                0x1000804c                usbd_edpt_xfer
 .text.usbd_edpt_stall
                0x100080c4       0x48 CMakeFiles/gif_screen_driver.dir/C_/VSARM/sdk/pico/pico-sdk/lib/tinyusb/src/device/usbd.c.obj
                0x100080c4                usbd_edpt_stall
 .text.usbd_edpt_clear_stall
                0x1000810c       0x48 CMakeFiles/gif_screen_driver.dir/C_/VSARM/sdk/pico/pico-sdk/lib/tinyusb/src/device/usbd.c.obj
                0x1000810c                usbd_edpt_clear_stall
 .text.usbd_edpt_stalled
                0x10008154       0x1c CMakeFiles/gif_screen_driver.dir/C_/VSARM/sdk/pico/pico-sdk/lib/tinyusb/src/device/usbd.c.obj
                0x10008154                usbd_edpt_stalled
 .text.process_control_request
                0x10008170      0x37c CMakeFiles/gif_screen_driver.dir/C_/VSARM/sdk/pico/pico-sdk/lib/tinyusb/src/device/usbd.c.obj
 .text.tud_task_ext
                0x100084ec      0x1b8 CMakeFiles/gif_screen_driver.dir/C_/VSARM/sdk/pico/pico-sdk/lib/tinyusb/src/device/usbd.c.obj
                0x100084ec                tud_task_ext
 .text._data_stage_xact
                0x100086a4       0x58 CMakeFiles/gif_screen_driver.dir/C_/VSARM/sdk/pico/pico-sdk/lib/tinyusb/src/device/usbd_control.c.obj
 .text.tud_control_status
                0x100086fc       0x38 CMakeFiles/gif_screen_driver.dir/C_/VSARM/sdk/pico/pico-sdk/lib/tinyusb/src/device/usbd_control.c.obj
                0x100086fc                tud_control_status
 .text.tud_control_xfer
                0x10008734       0x74 CMakeFiles/gif_screen_driver.dir/C_/VSARM/sdk/pico/pico-sdk/lib/tinyusb/src/device/usbd_control.c.obj
                0x10008734                tud_control_xfer
 .text.usbd_control_reset
                0x100087a8       0x14 CMakeFiles/gif_screen_driver.dir/C_/VSARM/sdk/pico/pico-sdk/lib/tinyusb/src/device/usbd_control.c.obj
                0x100087a8                usbd_control_reset
 .text.usbd_control_set_complete_callback
                0x100087bc        0xc CMakeFiles/gif_screen_driver.dir/C_/VSARM/sdk/pico/pico-sdk/lib/tinyusb/src/device/usbd_control.c.obj
                0x100087bc                usbd_control_set_complete_callback
 .text.usbd_control_set_request
                0x100087c8       0x1c CMakeFiles/gif_screen_driver.dir/C_/VSARM/sdk/pico/pico-sdk/lib/tinyusb/src/device/usbd_control.c.obj
                0x100087c8                usbd_control_set_request
 .text.usbd_control_xfer_cb
                0x100087e4       0xcc CMakeFiles/gif_screen_driver.dir/C_/VSARM/sdk/pico/pico-sdk/lib/tinyusb/src/device/usbd_control.c.obj
                0x100087e4                usbd_control_xfer_cb
 .text._prep_out_transaction
                0x100088b0       0x4a CMakeFiles/gif_screen_driver.dir/C_/VSARM/sdk/pico/pico-sdk/lib/tinyusb/src/class/cdc/cdc_device.c.obj
 *fill*         0x100088fa        0x2 
 .text.tud_cdc_n_connected
                0x100088fc       0x44 CMakeFiles/gif_screen_driver.dir/C_/VSARM/sdk/pico/pico-sdk/lib/tinyusb/src/class/cdc/cdc_device.c.obj
                0x100088fc                tud_cdc_n_connected
 .text.tud_cdc_n_available
                0x10008940       0x18 CMakeFiles/gif_screen_driver.dir/C_/VSARM/sdk/pico/pico-sdk/lib/tinyusb/src/class/cdc/cdc_device.c.obj
                0x10008940                tud_cdc_n_available
 .text.tud_cdc_n_read
                0x10008958       0x28 CMakeFiles/gif_screen_driver.dir/C_/VSARM/sdk/pico/pico-sdk/lib/tinyusb/src/class/cdc/cdc_device.c.obj
                0x10008958                tud_cdc_n_read
 .text.tud_cdc_n_write_flush
                0x10008980       0xb8 CMakeFiles/gif_screen_driver.dir/C_/VSARM/sdk/pico/pico-sdk/lib/tinyusb/src/class/cdc/cdc_device.c.obj
                0x10008980                tud_cdc_n_write_flush
 .text.tud_cdc_n_write
                0x10008a38       0x38 CMakeFiles/gif_screen_driver.dir/C_/VSARM/sdk/pico/pico-sdk/lib/tinyusb/src/class/cdc/cdc_device.c.obj
                0x10008a38                tud_cdc_n_write
 .text.tud_cdc_n_write_available
                0x10008a70       0x1c CMakeFiles/gif_screen_driver.dir/C_/VSARM/sdk/pico/pico-sdk/lib/tinyusb/src/class/cdc/cdc_device.c.obj
                0x10008a70                tud_cdc_n_write_available
 .text.cdcd_init
                0x10008a8c       0xbc CMakeFiles/gif_screen_driver.dir/C_/VSARM/sdk/pico/pico-sdk/lib/tinyusb/src/class/cdc/cdc_device.c.obj
                0x10008a8c                cdcd_init
 .text.cdcd_reset
                0x10008b48       0x44 CMakeFiles/gif_screen_driver.dir/C_/VSARM/sdk/pico/pico-sdk/lib/tinyusb/src/class/cdc/cdc_device.c.obj
                0x10008b48                cdcd_reset
 .text.cdcd_open
                0x10008b8c       0xcc CMakeFiles/gif_screen_driver.dir/C_/VSARM/sdk/pico/pico-sdk/lib/tinyusb/src/class/cdc/cdc_device.c.obj
                0x10008b8c                cdcd_open
 .text.cdcd_control_xfer_cb
                0x10008c58      0x134 CMakeFiles/gif_screen_driver.dir/C_/VSARM/sdk/pico/pico-sdk/lib/tinyusb/src/class/cdc/cdc_device.c.obj
                0x10008c58                cdcd_control_xfer_cb
 .text.cdcd_xfer_cb
                0x10008d8c      0x130 CMakeFiles/gif_screen_driver.dir/C_/VSARM/sdk/pico/pico-sdk/lib/tinyusb/src/class/cdc/cdc_device.c.obj
                0x10008d8c                cdcd_xfer_cb
 .text.tusb_init
                0x10008ebc        0xa CMakeFiles/gif_screen_driver.dir/C_/VSARM/sdk/pico/pico-sdk/lib/tinyusb/src/tusb.c.obj
                0x10008ebc                tusb_init
 .text.tusb_inited
                0x10008ec6        0xe CMakeFiles/gif_screen_driver.dir/C_/VSARM/sdk/pico/pico-sdk/lib/tinyusb/src/tusb.c.obj
                0x10008ec6                tusb_inited
 .text.tu_edpt_claim
                0x10008ed4       0x50 CMakeFiles/gif_screen_driver.dir/C_/VSARM/sdk/pico/pico-sdk/lib/tinyusb/src/tusb.c.obj
                0x10008ed4                tu_edpt_claim
 .text.tu_edpt_release
                0x10008f24       0x3c CMakeFiles/gif_screen_driver.dir/C_/VSARM/sdk/pico/pico-sdk/lib/tinyusb/src/tusb.c.obj
                0x10008f24                tu_edpt_release
 .text.tu_edpt_validate
                0x10008f60       0x78 CMakeFiles/gif_screen_driver.dir/C_/VSARM/sdk/pico/pico-sdk/lib/tinyusb/src/tusb.c.obj
                0x10008f60                tu_edpt_validate
 .text.tu_edpt_bind_driver
                0x10008fd8       0x26 CMakeFiles/gif_screen_driver.dir/C_/VSARM/sdk/pico/pico-sdk/lib/tinyusb/src/tusb.c.obj
                0x10008fd8                tu_edpt_bind_driver
 .text.advance_index
                0x10008ffe       0x1a CMakeFiles/gif_screen_driver.dir/C_/VSARM/sdk/pico/pico-sdk/lib/tinyusb/src/common/tusb_fifo.c.obj
 .text._tu_fifo_peek
                0x10009018       0x56 CMakeFiles/gif_screen_driver.dir/C_/VSARM/sdk/pico/pico-sdk/lib/tinyusb/src/common/tusb_fifo.c.obj
 .text._ff_pull_const_addr
                0x1000906e       0x4c CMakeFiles/gif_screen_driver.dir/C_/VSARM/sdk/pico/pico-sdk/lib/tinyusb/src/common/tusb_fifo.c.obj
 .text._ff_pull_n
                0x100090ba      0x110 CMakeFiles/gif_screen_driver.dir/C_/VSARM/sdk/pico/pico-sdk/lib/tinyusb/src/common/tusb_fifo.c.obj
 .text._tu_fifo_peek_n
                0x100091ca       0x6a CMakeFiles/gif_screen_driver.dir/C_/VSARM/sdk/pico/pico-sdk/lib/tinyusb/src/common/tusb_fifo.c.obj
 .text._tu_fifo_read_n
                0x10009234       0x4e CMakeFiles/gif_screen_driver.dir/C_/VSARM/sdk/pico/pico-sdk/lib/tinyusb/src/common/tusb_fifo.c.obj
 .text._ff_push_const_addr
                0x10009282       0x40 CMakeFiles/gif_screen_driver.dir/C_/VSARM/sdk/pico/pico-sdk/lib/tinyusb/src/common/tusb_fifo.c.obj
 .text._ff_push_n
                0x100092c2      0x10c CMakeFiles/gif_screen_driver.dir/C_/VSARM/sdk/pico/pico-sdk/lib/tinyusb/src/common/tusb_fifo.c.obj
 .text._tu_fifo_write_n
                0x100093ce       0xf0 CMakeFiles/gif_screen_driver.dir/C_/VSARM/sdk/pico/pico-sdk/lib/tinyusb/src/common/tusb_fifo.c.obj
 .text.tu_fifo_config
                0x100094be       0x7c CMakeFiles/gif_screen_driver.dir/C_/VSARM/sdk/pico/pico-sdk/lib/tinyusb/src/common/tusb_fifo.c.obj
                0x100094be                tu_fifo_config
 .text.tu_fifo_count
                0x1000953a       0x2a CMakeFiles/gif_screen_driver.dir/C_/VSARM/sdk/pico/pico-sdk/lib/tinyusb/src/common/tusb_fifo.c.obj
                0x1000953a                tu_fifo_count
 .text.tu_fifo_empty
                0x10009564       0x10 CMakeFiles/gif_screen_driver.dir/C_/VSARM/sdk/pico/pico-sdk/lib/tinyusb/src/common/tusb_fifo.c.obj
                0x10009564                tu_fifo_empty
 .text.tu_fifo_full
                0x10009574       0x28 CMakeFiles/gif_screen_driver.dir/C_/VSARM/sdk/pico/pico-sdk/lib/tinyusb/src/common/tusb_fifo.c.obj
                0x10009574                tu_fifo_full
 .text.tu_fifo_remaining
                0x1000959c       0x2c CMakeFiles/gif_screen_driver.dir/C_/VSARM/sdk/pico/pico-sdk/lib/tinyusb/src/common/tusb_fifo.c.obj
                0x1000959c                tu_fifo_remaining
 .text.tu_fifo_read
                0x100095c8       0x42 CMakeFiles/gif_screen_driver.dir/C_/VSARM/sdk/pico/pico-sdk/lib/tinyusb/src/common/tusb_fifo.c.obj
                0x100095c8                tu_fifo_read
 .text.tu_fifo_read_n
                0x1000960a        0xa CMakeFiles/gif_screen_driver.dir/C_/VSARM/sdk/pico/pico-sdk/lib/tinyusb/src/common/tusb_fifo.c.obj
                0x1000960a                tu_fifo_read_n
 .text.tu_fifo_write
                0x10009614       0x64 CMakeFiles/gif_screen_driver.dir/C_/VSARM/sdk/pico/pico-sdk/lib/tinyusb/src/common/tusb_fifo.c.obj
                0x10009614                tu_fifo_write
 .text.tu_fifo_write_n
                0x10009678        0xa CMakeFiles/gif_screen_driver.dir/C_/VSARM/sdk/pico/pico-sdk/lib/tinyusb/src/common/tusb_fifo.c.obj
                0x10009678                tu_fifo_write_n
 .text.tu_fifo_clear
                0x10009682       0x3e CMakeFiles/gif_screen_driver.dir/C_/VSARM/sdk/pico/pico-sdk/lib/tinyusb/src/common/tusb_fifo.c.obj
                0x10009682                tu_fifo_clear
 .text.tu_fifo_set_overwritable
                0x100096c0       0x46 CMakeFiles/gif_screen_driver.dir/C_/VSARM/sdk/pico/pico-sdk/lib/tinyusb/src/common/tusb_fifo.c.obj
                0x100096c0                tu_fifo_set_overwritable
 .text.core1_trampoline
                0x10009706        0x2 CMakeFiles/gif_screen_driver.dir/C_/VSARM/sdk/pico/pico-sdk/src/rp2_common/pico_multicore/multicore.c.obj
 .text.core1_wrapper
                0x10009708        0xc CMakeFiles/gif_screen_driver.dir/C_/VSARM/sdk/pico/pico-sdk/src/rp2_common/pico_multicore/multicore.c.obj
                0x10009708                core1_wrapper
 .text.multicore_fifo_push_blocking
                0x10009714       0x14 CMakeFiles/gif_screen_driver.dir/C_/VSARM/sdk/pico/pico-sdk/src/rp2_common/pico_multicore/multicore.c.obj
                0x10009714                multicore_fifo_push_blocking
 .text.multicore_fifo_pop_blocking
                0x10009728       0x16 CMakeFiles/gif_screen_driver.dir/C_/VSARM/sdk/pico/pico-sdk/src/rp2_common/pico_multicore/multicore.c.obj
                0x10009728                multicore_fifo_pop_blocking
 *fill*         0x1000973e        0x2 
 .text.multicore_reset_core1
                0x10009740       0x28 CMakeFiles/gif_screen_driver.dir/C_/VSARM/sdk/pico/pico-sdk/src/rp2_common/pico_multicore/multicore.c.obj
                0x10009740                multicore_reset_core1
 .text.multicore_launch_core1_raw
                0x10009768       0x6e CMakeFiles/gif_screen_driver.dir/C_/VSARM/sdk/pico/pico-sdk/src/rp2_common/pico_multicore/multicore.c.obj
                0x10009768                multicore_launch_core1_raw
 *fill*         0x100097d6        0x2 
 .text.multicore_launch_core1_with_stack
                0x100097d8       0x50 CMakeFiles/gif_screen_driver.dir/C_/VSARM/sdk/pico/pico-sdk/src/rp2_common/pico_multicore/multicore.c.obj
                0x100097d8                multicore_launch_core1_with_stack
 .text.multicore_launch_core1
                0x10009828       0x24 CMakeFiles/gif_screen_driver.dir/C_/VSARM/sdk/pico/pico-sdk/src/rp2_common/pico_multicore/multicore.c.obj
                0x10009828                multicore_launch_core1
 .text.i2c_write_blocking_internal
                0x1000984c      0x140 CMakeFiles/gif_screen_driver.dir/C_/VSARM/sdk/pico/pico-sdk/src/rp2_common/hardware_i2c/i2c.c.obj
 .text.i2c_set_baudrate
                0x1000998c       0xf0 CMakeFiles/gif_screen_driver.dir/C_/VSARM/sdk/pico/pico-sdk/src/rp2_common/hardware_i2c/i2c.c.obj
                0x1000998c                i2c_set_baudrate
 .text.i2c_init
                0x10009a7c       0x58 CMakeFiles/gif_screen_driver.dir/C_/VSARM/sdk/pico/pico-sdk/src/rp2_common/hardware_i2c/i2c.c.obj
                0x10009a7c                i2c_init
 .text.i2c_write_blocking
                0x10009ad4       0x18 CMakeFiles/gif_screen_driver.dir/C_/VSARM/sdk/pico/pico-sdk/src/rp2_common/hardware_i2c/i2c.c.obj
                0x10009ad4                i2c_write_blocking
 .text.ff_memalloc
                0x10009aec        0x8 CMakeFiles/gif_screen_driver.dir/M_/house-projects/Christmas/display-screen-ws2812b/FatFs_SPI/ff15/source/ffsystem.c.obj
                0x10009aec                ff_memalloc
 .text.ff_memfree
                0x10009af4        0x8 CMakeFiles/gif_screen_driver.dir/M_/house-projects/Christmas/display-screen-ws2812b/FatFs_SPI/ff15/source/ffsystem.c.obj
                0x10009af4                ff_memfree
 .text.ff_uni2oem
                0x10009afc       0x44 CMakeFiles/gif_screen_driver.dir/M_/house-projects/Christmas/display-screen-ws2812b/FatFs_SPI/ff15/source/ffunicode.c.obj
                0x10009afc                ff_uni2oem
 .text.ff_oem2uni
                0x10009b40       0x30 CMakeFiles/gif_screen_driver.dir/M_/house-projects/Christmas/display-screen-ws2812b/FatFs_SPI/ff15/source/ffunicode.c.obj
                0x10009b40                ff_oem2uni
 .text.ff_wtoupper
                0x10009b70       0xa8 CMakeFiles/gif_screen_driver.dir/M_/house-projects/Christmas/display-screen-ws2812b/FatFs_SPI/ff15/source/ffunicode.c.obj
                0x10009b70                ff_wtoupper
 .text.ld_word  0x10009c18        0xa CMakeFiles/gif_screen_driver.dir/M_/house-projects/Christmas/display-screen-ws2812b/FatFs_SPI/ff15/source/ff.c.obj
 .text.ld_dword
                0x10009c22       0x18 CMakeFiles/gif_screen_driver.dir/M_/house-projects/Christmas/display-screen-ws2812b/FatFs_SPI/ff15/source/ff.c.obj
 .text.ld_qword
                0x10009c3a       0x42 CMakeFiles/gif_screen_driver.dir/M_/house-projects/Christmas/display-screen-ws2812b/FatFs_SPI/ff15/source/ff.c.obj
 .text.st_word  0x10009c7c        0x8 CMakeFiles/gif_screen_driver.dir/M_/house-projects/Christmas/display-screen-ws2812b/FatFs_SPI/ff15/source/ff.c.obj
 .text.st_dword
                0x10009c84       0x10 CMakeFiles/gif_screen_driver.dir/M_/house-projects/Christmas/display-screen-ws2812b/FatFs_SPI/ff15/source/ff.c.obj
 .text.st_qword
                0x10009c94       0x1e CMakeFiles/gif_screen_driver.dir/M_/house-projects/Christmas/display-screen-ws2812b/FatFs_SPI/ff15/source/ff.c.obj
 .text.dbc_1st  0x10009cb2        0x4 CMakeFiles/gif_screen_driver.dir/M_/house-projects/Christmas/display-screen-ws2812b/FatFs_SPI/ff15/source/ff.c.obj
 .text.dbc_2nd  0x10009cb6        0x4 CMakeFiles/gif_screen_driver.dir/M_/house-projects/Christmas/display-screen-ws2812b/FatFs_SPI/ff15/source/ff.c.obj
 *fill*         0x10009cba        0x2 
 .text.tchar2uni
                0x10009cbc       0xd0 CMakeFiles/gif_screen_driver.dir/M_/house-projects/Christmas/display-screen-ws2812b/FatFs_SPI/ff15/source/ff.c.obj
 .text.put_utf  0x10009d8c       0xfc CMakeFiles/gif_screen_driver.dir/M_/house-projects/Christmas/display-screen-ws2812b/FatFs_SPI/ff15/source/ff.c.obj
 .text.chk_share
                0x10009e88       0x78 CMakeFiles/gif_screen_driver.dir/M_/house-projects/Christmas/display-screen-ws2812b/FatFs_SPI/ff15/source/ff.c.obj
 .text.enq_share
                0x10009f00       0x20 CMakeFiles/gif_screen_driver.dir/M_/house-projects/Christmas/display-screen-ws2812b/FatFs_SPI/ff15/source/ff.c.obj
 .text.inc_share
                0x10009f20       0xa8 CMakeFiles/gif_screen_driver.dir/M_/house-projects/Christmas/display-screen-ws2812b/FatFs_SPI/ff15/source/ff.c.obj
 .text.dec_share
                0x10009fc8       0x44 CMakeFiles/gif_screen_driver.dir/M_/house-projects/Christmas/display-screen-ws2812b/FatFs_SPI/ff15/source/ff.c.obj
 .text.clear_share
                0x1000a00c       0x24 CMakeFiles/gif_screen_driver.dir/M_/house-projects/Christmas/display-screen-ws2812b/FatFs_SPI/ff15/source/ff.c.obj
 .text.clst2sect
                0x1000a030       0x28 CMakeFiles/gif_screen_driver.dir/M_/house-projects/Christmas/display-screen-ws2812b/FatFs_SPI/ff15/source/ff.c.obj
 .text.clmt_clust
                0x1000a058       0x30 CMakeFiles/gif_screen_driver.dir/M_/house-projects/Christmas/display-screen-ws2812b/FatFs_SPI/ff15/source/ff.c.obj
 .text.ld_clust
                0x1000a088       0x26 CMakeFiles/gif_screen_driver.dir/M_/house-projects/Christmas/display-screen-ws2812b/FatFs_SPI/ff15/source/ff.c.obj
 .text.st_clust
                0x1000a0ae       0x26 CMakeFiles/gif_screen_driver.dir/M_/house-projects/Christmas/display-screen-ws2812b/FatFs_SPI/ff15/source/ff.c.obj
 .text.pick_lfn
                0x1000a0d4       0x94 CMakeFiles/gif_screen_driver.dir/M_/house-projects/Christmas/display-screen-ws2812b/FatFs_SPI/ff15/source/ff.c.obj
 .text.put_lfn  0x1000a168       0x8c CMakeFiles/gif_screen_driver.dir/M_/house-projects/Christmas/display-screen-ws2812b/FatFs_SPI/ff15/source/ff.c.obj
 .text.sum_sfn  0x1000a1f4       0x20 CMakeFiles/gif_screen_driver.dir/M_/house-projects/Christmas/display-screen-ws2812b/FatFs_SPI/ff15/source/ff.c.obj
 .text.xdir_sum
                0x1000a214       0x2e CMakeFiles/gif_screen_driver.dir/M_/house-projects/Christmas/display-screen-ws2812b/FatFs_SPI/ff15/source/ff.c.obj
 .text.init_alloc_info
                0x1000a242       0x2e CMakeFiles/gif_screen_driver.dir/M_/house-projects/Christmas/display-screen-ws2812b/FatFs_SPI/ff15/source/ff.c.obj
 .text.get_ldnumber
                0x1000a270       0x5c CMakeFiles/gif_screen_driver.dir/M_/house-projects/Christmas/display-screen-ws2812b/FatFs_SPI/ff15/source/ff.c.obj
 .text.crc32    0x1000a2cc       0x2c CMakeFiles/gif_screen_driver.dir/M_/house-projects/Christmas/display-screen-ws2812b/FatFs_SPI/ff15/source/ff.c.obj
 .text.validate
                0x1000a2f8       0x52 CMakeFiles/gif_screen_driver.dir/M_/house-projects/Christmas/display-screen-ws2812b/FatFs_SPI/ff15/source/ff.c.obj
 *fill*         0x1000a34a        0x2 
 .text.test_gpt_header
                0x1000a34c       0x7c CMakeFiles/gif_screen_driver.dir/M_/house-projects/Christmas/display-screen-ws2812b/FatFs_SPI/ff15/source/ff.c.obj
 .text.sync_window
                0x1000a3c8       0x70 CMakeFiles/gif_screen_driver.dir/M_/house-projects/Christmas/display-screen-ws2812b/FatFs_SPI/ff15/source/ff.c.obj
 .text.move_window
                0x1000a438       0x4c CMakeFiles/gif_screen_driver.dir/M_/house-projects/Christmas/display-screen-ws2812b/FatFs_SPI/ff15/source/ff.c.obj
 .text.check_fs
                0x1000a484      0x100 CMakeFiles/gif_screen_driver.dir/M_/house-projects/Christmas/display-screen-ws2812b/FatFs_SPI/ff15/source/ff.c.obj
 .text.find_volume
                0x1000a584      0x14c CMakeFiles/gif_screen_driver.dir/M_/house-projects/Christmas/display-screen-ws2812b/FatFs_SPI/ff15/source/ff.c.obj
 .text.mount_volume
                0x1000a6d0      0x540 CMakeFiles/gif_screen_driver.dir/M_/house-projects/Christmas/display-screen-ws2812b/FatFs_SPI/ff15/source/ff.c.obj
 .text.find_bitmap
                0x1000ac10       0xa6 CMakeFiles/gif_screen_driver.dir/M_/house-projects/Christmas/display-screen-ws2812b/FatFs_SPI/ff15/source/ff.c.obj
 .text.change_bitmap
                0x1000acb6       0x96 CMakeFiles/gif_screen_driver.dir/M_/house-projects/Christmas/display-screen-ws2812b/FatFs_SPI/ff15/source/ff.c.obj
 .text.put_fat  0x1000ad4c      0x176 CMakeFiles/gif_screen_driver.dir/M_/house-projects/Christmas/display-screen-ws2812b/FatFs_SPI/ff15/source/ff.c.obj
 .text.fill_last_frag
                0x1000aec2       0x32 CMakeFiles/gif_screen_driver.dir/M_/house-projects/Christmas/display-screen-ws2812b/FatFs_SPI/ff15/source/ff.c.obj
 .text.fill_first_frag
                0x1000aef4       0x32 CMakeFiles/gif_screen_driver.dir/M_/house-projects/Christmas/display-screen-ws2812b/FatFs_SPI/ff15/source/ff.c.obj
 *fill*         0x1000af26        0x2 
 .text.get_fat  0x1000af28      0x1ac CMakeFiles/gif_screen_driver.dir/M_/house-projects/Christmas/display-screen-ws2812b/FatFs_SPI/ff15/source/ff.c.obj
 .text.create_chain
                0x1000b0d4      0x1c6 CMakeFiles/gif_screen_driver.dir/M_/house-projects/Christmas/display-screen-ws2812b/FatFs_SPI/ff15/source/ff.c.obj
 .text.dir_sdi  0x1000b29a       0xd4 CMakeFiles/gif_screen_driver.dir/M_/house-projects/Christmas/display-screen-ws2812b/FatFs_SPI/ff15/source/ff.c.obj
 .text.remove_chain
                0x1000b36e      0x14c CMakeFiles/gif_screen_driver.dir/M_/house-projects/Christmas/display-screen-ws2812b/FatFs_SPI/ff15/source/ff.c.obj
 .text.dir_clear
                0x1000b4ba       0xf0 CMakeFiles/gif_screen_driver.dir/M_/house-projects/Christmas/display-screen-ws2812b/FatFs_SPI/ff15/source/ff.c.obj
 .text.dir_next
                0x1000b5aa      0x104 CMakeFiles/gif_screen_driver.dir/M_/house-projects/Christmas/display-screen-ws2812b/FatFs_SPI/ff15/source/ff.c.obj
 .text.dir_alloc
                0x1000b6ae       0x70 CMakeFiles/gif_screen_driver.dir/M_/house-projects/Christmas/display-screen-ws2812b/FatFs_SPI/ff15/source/ff.c.obj
 .text.load_xdir
                0x1000b71e      0x10c CMakeFiles/gif_screen_driver.dir/M_/house-projects/Christmas/display-screen-ws2812b/FatFs_SPI/ff15/source/ff.c.obj
 .text.load_obj_xdir
                0x1000b82a       0x36 CMakeFiles/gif_screen_driver.dir/M_/house-projects/Christmas/display-screen-ws2812b/FatFs_SPI/ff15/source/ff.c.obj
 .text.dir_read
                0x1000b860      0x114 CMakeFiles/gif_screen_driver.dir/M_/house-projects/Christmas/display-screen-ws2812b/FatFs_SPI/ff15/source/ff.c.obj
 .text.gen_numname
                0x1000b974       0xac CMakeFiles/gif_screen_driver.dir/M_/house-projects/Christmas/display-screen-ws2812b/FatFs_SPI/ff15/source/ff.c.obj
 .text.store_xdir
                0x1000ba20       0x66 CMakeFiles/gif_screen_driver.dir/M_/house-projects/Christmas/display-screen-ws2812b/FatFs_SPI/ff15/source/ff.c.obj
 *fill*         0x1000ba86        0x2 
 .text.create_name
                0x1000ba88      0x324 CMakeFiles/gif_screen_driver.dir/M_/house-projects/Christmas/display-screen-ws2812b/FatFs_SPI/ff15/source/ff.c.obj
 .text.xname_sum
                0x1000bdac       0x38 CMakeFiles/gif_screen_driver.dir/M_/house-projects/Christmas/display-screen-ws2812b/FatFs_SPI/ff15/source/ff.c.obj
 .text.create_xdir
                0x1000bde4       0x90 CMakeFiles/gif_screen_driver.dir/M_/house-projects/Christmas/display-screen-ws2812b/FatFs_SPI/ff15/source/ff.c.obj
 .text.cmp_lfn  0x1000be74       0xb0 CMakeFiles/gif_screen_driver.dir/M_/house-projects/Christmas/display-screen-ws2812b/FatFs_SPI/ff15/source/ff.c.obj
 .text.dir_find
                0x1000bf24      0x18c CMakeFiles/gif_screen_driver.dir/M_/house-projects/Christmas/display-screen-ws2812b/FatFs_SPI/ff15/source/ff.c.obj
 .text.follow_path
                0x1000c0b0      0x11a CMakeFiles/gif_screen_driver.dir/M_/house-projects/Christmas/display-screen-ws2812b/FatFs_SPI/ff15/source/ff.c.obj
 .text.dir_register
                0x1000c1ca      0x202 CMakeFiles/gif_screen_driver.dir/M_/house-projects/Christmas/display-screen-ws2812b/FatFs_SPI/ff15/source/ff.c.obj
 .text.get_achar
                0x1000c3cc       0x14 CMakeFiles/gif_screen_driver.dir/M_/house-projects/Christmas/display-screen-ws2812b/FatFs_SPI/ff15/source/ff.c.obj
 .text.pattern_match
                0x1000c3e0       0xce CMakeFiles/gif_screen_driver.dir/M_/house-projects/Christmas/display-screen-ws2812b/FatFs_SPI/ff15/source/ff.c.obj
 .text.get_fileinfo
                0x1000c4ae      0x294 CMakeFiles/gif_screen_driver.dir/M_/house-projects/Christmas/display-screen-ws2812b/FatFs_SPI/ff15/source/ff.c.obj
 *fill*         0x1000c742        0x2 
 .text.f_mount  0x1000c744       0x60 CMakeFiles/gif_screen_driver.dir/M_/house-projects/Christmas/display-screen-ws2812b/FatFs_SPI/ff15/source/ff.c.obj
                0x1000c744                f_mount
 .text.f_open   0x1000c7a4      0x366 CMakeFiles/gif_screen_driver.dir/M_/house-projects/Christmas/display-screen-ws2812b/FatFs_SPI/ff15/source/ff.c.obj
                0x1000c7a4                f_open
 .text.f_read   0x1000cb0a      0x250 CMakeFiles/gif_screen_driver.dir/M_/house-projects/Christmas/display-screen-ws2812b/FatFs_SPI/ff15/source/ff.c.obj
                0x1000cb0a                f_read
 .text.f_lseek  0x1000cd5a      0x4c0 CMakeFiles/gif_screen_driver.dir/M_/house-projects/Christmas/display-screen-ws2812b/FatFs_SPI/ff15/source/ff.c.obj
                0x1000cd5a                f_lseek
 .text.f_opendir
                0x1000d21a       0xd2 CMakeFiles/gif_screen_driver.dir/M_/house-projects/Christmas/display-screen-ws2812b/FatFs_SPI/ff15/source/ff.c.obj
                0x1000d21a                f_opendir
 .text.f_readdir
                0x1000d2ec       0x74 CMakeFiles/gif_screen_driver.dir/M_/house-projects/Christmas/display-screen-ws2812b/FatFs_SPI/ff15/source/ff.c.obj
                0x1000d2ec                f_readdir
 .text.f_findnext
                0x1000d360       0x32 CMakeFiles/gif_screen_driver.dir/M_/house-projects/Christmas/display-screen-ws2812b/FatFs_SPI/ff15/source/ff.c.obj
                0x1000d360                f_findnext
 .text.sd_spi_deselect
                0x1000d392       0x26 CMakeFiles/gif_screen_driver.dir/M_/house-projects/Christmas/display-screen-ws2812b/FatFs_SPI/sd_driver/sd_spi.c.obj
 .text.sd_spi_select
                0x1000d3b8       0x26 CMakeFiles/gif_screen_driver.dir/M_/house-projects/Christmas/display-screen-ws2812b/FatFs_SPI/sd_driver/sd_spi.c.obj
 .text.sd_spi_lock
                0x1000d3de        0xa CMakeFiles/gif_screen_driver.dir/M_/house-projects/Christmas/display-screen-ws2812b/FatFs_SPI/sd_driver/sd_spi.c.obj
 .text.sd_spi_unlock
                0x1000d3e8        0xa CMakeFiles/gif_screen_driver.dir/M_/house-projects/Christmas/display-screen-ws2812b/FatFs_SPI/sd_driver/sd_spi.c.obj
 .text.sd_spi_go_high_frequency
                0x1000d3f2        0xe CMakeFiles/gif_screen_driver.dir/M_/house-projects/Christmas/display-screen-ws2812b/FatFs_SPI/sd_driver/sd_spi.c.obj
                0x1000d3f2                sd_spi_go_high_frequency
 .text.sd_spi_go_low_frequency
                0x1000d400       0x14 CMakeFiles/gif_screen_driver.dir/M_/house-projects/Christmas/display-screen-ws2812b/FatFs_SPI/sd_driver/sd_spi.c.obj
                0x1000d400                sd_spi_go_low_frequency
 .text.sd_spi_deselect_pulse
                0x1000d414       0x10 CMakeFiles/gif_screen_driver.dir/M_/house-projects/Christmas/display-screen-ws2812b/FatFs_SPI/sd_driver/sd_spi.c.obj
                0x1000d414                sd_spi_deselect_pulse
 .text.sd_spi_acquire
                0x1000d424       0x10 CMakeFiles/gif_screen_driver.dir/M_/house-projects/Christmas/display-screen-ws2812b/FatFs_SPI/sd_driver/sd_spi.c.obj
                0x1000d424                sd_spi_acquire
 .text.sd_spi_release
                0x1000d434       0x10 CMakeFiles/gif_screen_driver.dir/M_/house-projects/Christmas/display-screen-ws2812b/FatFs_SPI/sd_driver/sd_spi.c.obj
                0x1000d434                sd_spi_release
 .text.sd_spi_transfer
                0x1000d444        0xa CMakeFiles/gif_screen_driver.dir/M_/house-projects/Christmas/display-screen-ws2812b/FatFs_SPI/sd_driver/sd_spi.c.obj
                0x1000d444                sd_spi_transfer
 *fill*         0x1000d44e        0x2 
 .text.sd_spi_write
                0x1000d450       0x44 CMakeFiles/gif_screen_driver.dir/M_/house-projects/Christmas/display-screen-ws2812b/FatFs_SPI/sd_driver/sd_spi.c.obj
                0x1000d450                sd_spi_write
 .text.sd_spi_send_initializing_sequence
                0x1000d494       0xc0 CMakeFiles/gif_screen_driver.dir/M_/house-projects/Christmas/display-screen-ws2812b/FatFs_SPI/sd_driver/sd_spi.c.obj
                0x1000d494                sd_spi_send_initializing_sequence
 .text.in_spi_irq_handler
                0x1000d554       0x90 CMakeFiles/gif_screen_driver.dir/M_/house-projects/Christmas/display-screen-ws2812b/FatFs_SPI/sd_driver/spi.c.obj
 .text.spi_lock
                0x1000d5e4       0x28 CMakeFiles/gif_screen_driver.dir/M_/house-projects/Christmas/display-screen-ws2812b/FatFs_SPI/sd_driver/spi.c.obj
                0x1000d5e4                spi_lock
 .text.spi_unlock
                0x1000d60c       0x28 CMakeFiles/gif_screen_driver.dir/M_/house-projects/Christmas/display-screen-ws2812b/FatFs_SPI/sd_driver/spi.c.obj
                0x1000d60c                spi_unlock
 .text.my_spi_init
                0x1000d634      0x2b4 CMakeFiles/gif_screen_driver.dir/M_/house-projects/Christmas/display-screen-ws2812b/FatFs_SPI/sd_driver/spi.c.obj
                0x1000d634                my_spi_init
 .text.ext_bits
                0x1000d8e8       0x30 CMakeFiles/gif_screen_driver.dir/M_/house-projects/Christmas/display-screen-ws2812b/FatFs_SPI/sd_driver/sd_card.c.obj
 .text.sd_ctor  0x1000d918       0x30 CMakeFiles/gif_screen_driver.dir/M_/house-projects/Christmas/display-screen-ws2812b/FatFs_SPI/sd_driver/sd_card.c.obj
 .text.sd_lock  0x1000d948       0x30 CMakeFiles/gif_screen_driver.dir/M_/house-projects/Christmas/display-screen-ws2812b/FatFs_SPI/sd_driver/sd_card.c.obj
 .text.sd_acquire
                0x1000d978       0x10 CMakeFiles/gif_screen_driver.dir/M_/house-projects/Christmas/display-screen-ws2812b/FatFs_SPI/sd_driver/sd_card.c.obj
 .text.sd_cmd_spi
                0x1000d988       0x74 CMakeFiles/gif_screen_driver.dir/M_/house-projects/Christmas/display-screen-ws2812b/FatFs_SPI/sd_driver/sd_card.c.obj
 .text.sd_unlock
                0x1000d9fc       0x30 CMakeFiles/gif_screen_driver.dir/M_/house-projects/Christmas/display-screen-ws2812b/FatFs_SPI/sd_driver/sd_card.c.obj
 .text.sd_release
                0x1000da2c       0x10 CMakeFiles/gif_screen_driver.dir/M_/house-projects/Christmas/display-screen-ws2812b/FatFs_SPI/sd_driver/sd_card.c.obj
 .text.sd_wait_token
                0x1000da3c       0x9c CMakeFiles/gif_screen_driver.dir/M_/house-projects/Christmas/display-screen-ws2812b/FatFs_SPI/sd_driver/sd_card.c.obj
 .text.sd_read_bytes
                0x1000dad8       0x90 CMakeFiles/gif_screen_driver.dir/M_/house-projects/Christmas/display-screen-ws2812b/FatFs_SPI/sd_driver/sd_card.c.obj
 .text.sd_read_block
                0x1000db68       0x8c CMakeFiles/gif_screen_driver.dir/M_/house-projects/Christmas/display-screen-ws2812b/FatFs_SPI/sd_driver/sd_card.c.obj
 .text.sd_wait_ready
                0x1000dbf4       0xb8 CMakeFiles/gif_screen_driver.dir/M_/house-projects/Christmas/display-screen-ws2812b/FatFs_SPI/sd_driver/sd_card.c.obj
 .text.sd_cmd   0x1000dcac      0x2f0 CMakeFiles/gif_screen_driver.dir/M_/house-projects/Christmas/display-screen-ws2812b/FatFs_SPI/sd_driver/sd_card.c.obj
 .text.sd_cmd8  0x1000df9c       0x50 CMakeFiles/gif_screen_driver.dir/M_/house-projects/Christmas/display-screen-ws2812b/FatFs_SPI/sd_driver/sd_card.c.obj
 .text.sd_sectors_nolock
                0x1000dfec      0x148 CMakeFiles/gif_screen_driver.dir/M_/house-projects/Christmas/display-screen-ws2812b/FatFs_SPI/sd_driver/sd_card.c.obj
 .text.in_sd_read_blocks
                0x1000e134       0xbc CMakeFiles/gif_screen_driver.dir/M_/house-projects/Christmas/display-screen-ws2812b/FatFs_SPI/sd_driver/sd_card.c.obj
 .text.sd_read_blocks
                0x1000e1f0       0x2e CMakeFiles/gif_screen_driver.dir/M_/house-projects/Christmas/display-screen-ws2812b/FatFs_SPI/sd_driver/sd_card.c.obj
                0x1000e1f0                sd_read_blocks
 *fill*         0x1000e21e        0x2 
 .text.sd_go_idle_state
                0x1000e220       0x44 CMakeFiles/gif_screen_driver.dir/M_/house-projects/Christmas/display-screen-ws2812b/FatFs_SPI/sd_driver/sd_card.c.obj
 .text.sd_init_medium
                0x1000e264      0x188 CMakeFiles/gif_screen_driver.dir/M_/house-projects/Christmas/display-screen-ws2812b/FatFs_SPI/sd_driver/sd_card.c.obj
 .text.sd_write_block
                0x1000e3ec       0x8c CMakeFiles/gif_screen_driver.dir/M_/house-projects/Christmas/display-screen-ws2812b/FatFs_SPI/sd_driver/sd_card.c.obj
 .text.in_sd_write_blocks
                0x1000e478       0xf8 CMakeFiles/gif_screen_driver.dir/M_/house-projects/Christmas/display-screen-ws2812b/FatFs_SPI/sd_driver/sd_card.c.obj
 .text.sd_write_blocks
                0x1000e570       0x2e CMakeFiles/gif_screen_driver.dir/M_/house-projects/Christmas/display-screen-ws2812b/FatFs_SPI/sd_driver/sd_card.c.obj
                0x1000e570                sd_write_blocks
 .text.sd_test_com
                0x1000e59e       0x9a CMakeFiles/gif_screen_driver.dir/M_/house-projects/Christmas/display-screen-ws2812b/FatFs_SPI/sd_driver/sd_card.c.obj
 .text.sd_card_detect
                0x1000e638       0x50 CMakeFiles/gif_screen_driver.dir/M_/house-projects/Christmas/display-screen-ws2812b/FatFs_SPI/sd_driver/sd_card.c.obj
                0x1000e638                sd_card_detect
 .text.sd_init  0x1000e688       0xe8 CMakeFiles/gif_screen_driver.dir/M_/house-projects/Christmas/display-screen-ws2812b/FatFs_SPI/sd_driver/sd_card.c.obj
 .text.sd_init_driver
                0x1000e770       0xc0 CMakeFiles/gif_screen_driver.dir/M_/house-projects/Christmas/display-screen-ws2812b/FatFs_SPI/sd_driver/sd_card.c.obj
                0x1000e770                sd_init_driver
 .text.crc7     0x1000e830       0x20 CMakeFiles/gif_screen_driver.dir/M_/house-projects/Christmas/display-screen-ws2812b/FatFs_SPI/sd_driver/crc.c.obj
                0x1000e830                crc7
 .text.crc16    0x1000e850       0x28 CMakeFiles/gif_screen_driver.dir/M_/house-projects/Christmas/display-screen-ws2812b/FatFs_SPI/sd_driver/crc.c.obj
                0x1000e850                crc16
 .text.sdrc2dresult
                0x1000e878       0x60 CMakeFiles/gif_screen_driver.dir/M_/house-projects/Christmas/display-screen-ws2812b/FatFs_SPI/src/glue.c.obj
 .text.disk_status
                0x1000e8d8       0x16 CMakeFiles/gif_screen_driver.dir/M_/house-projects/Christmas/display-screen-ws2812b/FatFs_SPI/src/glue.c.obj
                0x1000e8d8                disk_status
 .text.disk_initialize
                0x1000e8ee       0x2a CMakeFiles/gif_screen_driver.dir/M_/house-projects/Christmas/display-screen-ws2812b/FatFs_SPI/src/glue.c.obj
                0x1000e8ee                disk_initialize
 .text.disk_read
                0x1000e918       0x32 CMakeFiles/gif_screen_driver.dir/M_/house-projects/Christmas/display-screen-ws2812b/FatFs_SPI/src/glue.c.obj
                0x1000e918                disk_read
 .text.disk_write
                0x1000e94a       0x32 CMakeFiles/gif_screen_driver.dir/M_/house-projects/Christmas/display-screen-ws2812b/FatFs_SPI/src/glue.c.obj
                0x1000e94a                disk_write
 .text.FRESULT_str
                0x1000e97c       0xb8 CMakeFiles/gif_screen_driver.dir/M_/house-projects/Christmas/display-screen-ws2812b/FatFs_SPI/src/f_util.c.obj
                0x1000e97c                FRESULT_str
 .text.my_printf
                0x1000ea34       0x4c CMakeFiles/gif_screen_driver.dir/M_/house-projects/Christmas/display-screen-ws2812b/FatFs_SPI/src/my_debug.c.obj
                0x1000ea34                my_printf
 .text.my_assert_func
                0x1000ea80       0x2c CMakeFiles/gif_screen_driver.dir/M_/house-projects/Christmas/display-screen-ws2812b/FatFs_SPI/src/my_debug.c.obj
                0x1000ea80                my_assert_func
 .text.get_fattime
                0x1000eaac       0x6c CMakeFiles/gif_screen_driver.dir/M_/house-projects/Christmas/display-screen-ws2812b/FatFs_SPI/src/rtc.c.obj
                0x1000eaac                get_fattime
 .text.spi_set_baudrate
                0x1000eb18       0xcc CMakeFiles/gif_screen_driver.dir/C_/VSARM/sdk/pico/pico-sdk/src/rp2_common/hardware_spi/spi.c.obj
                0x1000eb18                spi_set_baudrate
 .text.spi_init
                0x1000ebe4       0x74 CMakeFiles/gif_screen_driver.dir/C_/VSARM/sdk/pico/pico-sdk/src/rp2_common/hardware_spi/spi.c.obj
                0x1000ebe4                spi_init
 .text.dma_claim_unused_channel
                0x1000ec58       0x20 CMakeFiles/gif_screen_driver.dir/C_/VSARM/sdk/pico/pico-sdk/src/rp2_common/hardware_dma/dma.c.obj
                0x1000ec58                dma_claim_unused_channel
 .text.rtc_running
                0x1000ec78       0x10 CMakeFiles/gif_screen_driver.dir/C_/VSARM/sdk/pico/pico-sdk/src/rp2_common/hardware_rtc/rtc.c.obj
                0x1000ec78                rtc_running
 .text.rtc_get_datetime
                0x1000ec88       0x4c CMakeFiles/gif_screen_driver.dir/C_/VSARM/sdk/pico/pico-sdk/src/rp2_common/hardware_rtc/rtc.c.obj
                0x1000ec88                rtc_get_datetime
 .text.calloc   0x1000ecd4       0x18 c:/vsarm/armcc/102021~1.10/bin/../lib/gcc/arm-none-eabi/10.3.1/../../../../arm-none-eabi/lib/thumb/v6-m/nofp\libg.a(lib_a-calloc.o)
                0x1000ecd4                calloc
 .text._calloc_r
                0x1000ecec       0x9c c:/vsarm/armcc/102021~1.10/bin/../lib/gcc/arm-none-eabi/10.3.1/../../../../arm-none-eabi/lib/thumb/v6-m/nofp\libg.a(lib_a-callocr.o)
                0x1000ecec                _calloc_r
 .text.__errno  0x1000ed88        0xc c:/vsarm/armcc/102021~1.10/bin/../lib/gcc/arm-none-eabi/10.3.1/../../../../arm-none-eabi/lib/thumb/v6-m/nofp\libg.a(lib_a-errno.o)
                0x1000ed88                __errno
 .text.__sflush_r
                0x1000ed94      0x140 c:/vsarm/armcc/102021~1.10/bin/../lib/gcc/arm-none-eabi/10.3.1/../../../../arm-none-eabi/lib/thumb/v6-m/nofp\libg.a(lib_a-fflush.o)
                0x1000ed94                __sflush_r
 .text._fflush_r
                0x1000eed4       0x6c c:/vsarm/armcc/102021~1.10/bin/../lib/gcc/arm-none-eabi/10.3.1/../../../../arm-none-eabi/lib/thumb/v6-m/nofp\libg.a(lib_a-fflush.o)
                0x1000eed4                _fflush_r
 .text.fflush   0x1000ef40       0x78 c:/vsarm/armcc/102021~1.10/bin/../lib/gcc/arm-none-eabi/10.3.1/../../../../arm-none-eabi/lib/thumb/v6-m/nofp\libg.a(lib_a-fflush.o)
                0x1000ef40                fflush
 .text._cleanup_r
                0x1000efb8       0x10 c:/vsarm/armcc/102021~1.10/bin/../lib/gcc/arm-none-eabi/10.3.1/../../../../arm-none-eabi/lib/thumb/v6-m/nofp\libg.a(lib_a-findfp.o)
                0x1000efb8                _cleanup_r
 .text.__sinit  0x1000efc8      0x120 c:/vsarm/armcc/102021~1.10/bin/../lib/gcc/arm-none-eabi/10.3.1/../../../../arm-none-eabi/lib/thumb/v6-m/nofp\libg.a(lib_a-findfp.o)
                0x1000efc8                __sinit
 .text.__sfp_lock_acquire
                0x1000f0e8       0x10 c:/vsarm/armcc/102021~1.10/bin/../lib/gcc/arm-none-eabi/10.3.1/../../../../arm-none-eabi/lib/thumb/v6-m/nofp\libg.a(lib_a-findfp.o)
                0x1000f0e8                __sfp_lock_acquire
 .text.__sfp_lock_release
                0x1000f0f8       0x10 c:/vsarm/armcc/102021~1.10/bin/../lib/gcc/arm-none-eabi/10.3.1/../../../../arm-none-eabi/lib/thumb/v6-m/nofp\libg.a(lib_a-findfp.o)
                0x1000f0f8                __sfp_lock_release
 .text._malloc_trim_r
                0x1000f108       0x9c c:/vsarm/armcc/102021~1.10/bin/../lib/gcc/arm-none-eabi/10.3.1/../../../../arm-none-eabi/lib/thumb/v6-m/nofp\libg.a(lib_a-freer.o)
                0x1000f108                _malloc_trim_r
 .text._free_r  0x1000f1a4      0x1c4 c:/vsarm/armcc/102021~1.10/bin/../lib/gcc/arm-none-eabi/10.3.1/../../../../arm-none-eabi/lib/thumb/v6-m/nofp\libg.a(lib_a-freer.o)
                0x1000f1a4                _free_r
 .text._fwalk_reent
                0x1000f368       0x48 c:/vsarm/armcc/102021~1.10/bin/../lib/gcc/arm-none-eabi/10.3.1/../../../../arm-none-eabi/lib/thumb/v6-m/nofp\libg.a(lib_a-fwalk.o)
                0x1000f368                _fwalk_reent
 .text.__retarget_lock_init_recursive
                0x1000f3b0        0x4 c:/vsarm/armcc/102021~1.10/bin/../lib/gcc/arm-none-eabi/10.3.1/../../../../arm-none-eabi/lib/thumb/v6-m/nofp\libg.a(lib_a-lock.o)
                0x1000f3b0                __retarget_lock_init_recursive
 .text.__retarget_lock_close_recursive
                0x1000f3b4        0x4 c:/vsarm/armcc/102021~1.10/bin/../lib/gcc/arm-none-eabi/10.3.1/../../../../arm-none-eabi/lib/thumb/v6-m/nofp\libg.a(lib_a-lock.o)
                0x1000f3b4                __retarget_lock_close_recursive
 .text.__retarget_lock_acquire_recursive
                0x1000f3b8        0x4 c:/vsarm/armcc/102021~1.10/bin/../lib/gcc/arm-none-eabi/10.3.1/../../../../arm-none-eabi/lib/thumb/v6-m/nofp\libg.a(lib_a-lock.o)
                0x1000f3b8                __retarget_lock_acquire_recursive
 .text.__retarget_lock_release_recursive
                0x1000f3bc        0x4 c:/vsarm/armcc/102021~1.10/bin/../lib/gcc/arm-none-eabi/10.3.1/../../../../arm-none-eabi/lib/thumb/v6-m/nofp\libg.a(lib_a-lock.o)
                0x1000f3bc                __retarget_lock_release_recursive
 .text.malloc   0x1000f3c0       0x14 c:/vsarm/armcc/102021~1.10/bin/../lib/gcc/arm-none-eabi/10.3.1/../../../../arm-none-eabi/lib/thumb/v6-m/nofp\libg.a(lib_a-malloc.o)
                0x1000f3c0                malloc
 .text.free     0x1000f3d4       0x14 c:/vsarm/armcc/102021~1.10/bin/../lib/gcc/arm-none-eabi/10.3.1/../../../../arm-none-eabi/lib/thumb/v6-m/nofp\libg.a(lib_a-malloc.o)
                0x1000f3d4                free
 .text._malloc_r
                0x1000f3e8      0x584 c:/vsarm/armcc/102021~1.10/bin/../lib/gcc/arm-none-eabi/10.3.1/../../../../arm-none-eabi/lib/thumb/v6-m/nofp\libg.a(lib_a-mallocr.o)
                0x1000f3e8                _malloc_r
 .text.memcmp   0x1000f96c       0x48 c:/vsarm/armcc/102021~1.10/bin/../lib/gcc/arm-none-eabi/10.3.1/../../../../arm-none-eabi/lib/thumb/v6-m/nofp\libg.a(lib_a-memcmp.o)
                0x1000f96c                memcmp
 .text.__malloc_lock
                0x1000f9b4       0x10 c:/vsarm/armcc/102021~1.10/bin/../lib/gcc/arm-none-eabi/10.3.1/../../../../arm-none-eabi/lib/thumb/v6-m/nofp\libg.a(lib_a-mlock.o)
                0x1000f9b4                __malloc_lock
 .text.__malloc_unlock
                0x1000f9c4       0x10 c:/vsarm/armcc/102021~1.10/bin/../lib/gcc/arm-none-eabi/10.3.1/../../../../arm-none-eabi/lib/thumb/v6-m/nofp\libg.a(lib_a-mlock.o)
                0x1000f9c4                __malloc_unlock
 .text.realloc  0x1000f9d4       0x18 c:/vsarm/armcc/102021~1.10/bin/../lib/gcc/arm-none-eabi/10.3.1/../../../../arm-none-eabi/lib/thumb/v6-m/nofp\libg.a(lib_a-realloc.o)
                0x1000f9d4                realloc
 .text._realloc_r
                0x1000f9ec      0x354 c:/vsarm/armcc/102021~1.10/bin/../lib/gcc/arm-none-eabi/10.3.1/../../../../arm-none-eabi/lib/thumb/v6-m/nofp\libg.a(lib_a-reallocr.o)
                0x1000f9ec                _realloc_r
 .text._sbrk_r  0x1000fd40       0x24 c:/vsarm/armcc/102021~1.10/bin/../lib/gcc/arm-none-eabi/10.3.1/../../../../arm-none-eabi/lib/thumb/v6-m/nofp\libg.a(lib_a-sbrkr.o)
                0x1000fd40                _sbrk_r
 .text.__sread  0x1000fd64       0x28 c:/vsarm/armcc/102021~1.10/bin/../lib/gcc/arm-none-eabi/10.3.1/../../../../arm-none-eabi/lib/thumb/v6-m/nofp\libg.a(lib_a-stdio.o)
                0x1000fd64                __sread
 .text.__swrite
                0x1000fd8c       0x40 c:/vsarm/armcc/102021~1.10/bin/../lib/gcc/arm-none-eabi/10.3.1/../../../../arm-none-eabi/lib/thumb/v6-m/nofp\libg.a(lib_a-stdio.o)
                0x1000fd8c                __swrite
 .text.__sseek  0x1000fdcc       0x2c c:/vsarm/armcc/102021~1.10/bin/../lib/gcc/arm-none-eabi/10.3.1/../../../../arm-none-eabi/lib/thumb/v6-m/nofp\libg.a(lib_a-stdio.o)
                0x1000fdcc                __sseek
 .text.__sclose
                0x1000fdf8        0xc c:/vsarm/armcc/102021~1.10/bin/../lib/gcc/arm-none-eabi/10.3.1/../../../../arm-none-eabi/lib/thumb/v6-m/nofp\libg.a(lib_a-stdio.o)
                0x1000fdf8                __sclose
 .text.strchr   0x1000fe04       0xc0 c:/vsarm/armcc/102021~1.10/bin/../lib/gcc/arm-none-eabi/10.3.1/../../../../arm-none-eabi/lib/thumb/v6-m/nofp\libg.a(lib_a-strchr.o)
                0x1000fe04                strchr
 .text.strlen   0x1000fec4       0x5c c:/vsarm/armcc/102021~1.10/bin/../lib/gcc/arm-none-eabi/10.3.1/../../../../arm-none-eabi/lib/thumb/v6-m/nofp\libg.a(lib_a-strlen-stub.o)
                0x1000fec4                strlen
 .text.strncmp  0x1000ff20       0x74 c:/vsarm/armcc/102021~1.10/bin/../lib/gcc/arm-none-eabi/10.3.1/../../../../arm-none-eabi/lib/thumb/v6-m/nofp\libg.a(lib_a-strncmp.o)
                0x1000ff20                strncmp
 .text._write_r
                0x1000ff94       0x28 c:/vsarm/armcc/102021~1.10/bin/../lib/gcc/arm-none-eabi/10.3.1/../../../../arm-none-eabi/lib/thumb/v6-m/nofp\libg.a(lib_a-writer.o)
                0x1000ff94                _write_r
 .text._close_r
                0x1000ffbc       0x24 c:/vsarm/armcc/102021~1.10/bin/../lib/gcc/arm-none-eabi/10.3.1/../../../../arm-none-eabi/lib/thumb/v6-m/nofp\libg.a(lib_a-closer.o)
                0x1000ffbc                _close_r
 .text._fclose_r
                0x1000ffe0       0xdc c:/vsarm/armcc/102021~1.10/bin/../lib/gcc/arm-none-eabi/10.3.1/../../../../arm-none-eabi/lib/thumb/v6-m/nofp\libg.a(lib_a-fclose.o)
                0x1000ffe0                _fclose_r
 .text._lseek_r
                0x100100bc       0x28 c:/vsarm/armcc/102021~1.10/bin/../lib/gcc/arm-none-eabi/10.3.1/../../../../arm-none-eabi/lib/thumb/v6-m/nofp\libg.a(lib_a-lseekr.o)
                0x100100bc                _lseek_r
 .text.memmove  0x100100e4       0xac c:/vsarm/armcc/102021~1.10/bin/../lib/gcc/arm-none-eabi/10.3.1/../../../../arm-none-eabi/lib/thumb/v6-m/nofp\libg.a(lib_a-memmove.o)
                0x100100e4                memmove
 .text._read_r  0x10010190       0x28 c:/vsarm/armcc/102021~1.10/bin/../lib/gcc/arm-none-eabi/10.3.1/../../../../arm-none-eabi/lib/thumb/v6-m/nofp\libg.a(lib_a-readr.o)
                0x10010190                _read_r
 *(.fini)
 .fini          0x100101b8        0x4 c:/vsarm/armcc/102021~1.10/bin/../lib/gcc/arm-none-eabi/10.3.1/thumb/v6-m/nofp/crti.o
                0x100101b8                _fini
 *fill*         0x100101bc        0x4 
 .fini.__stub   0x100101c0      0x130 linker stubs
 *crtbegin.o(.ctors)
 *crtbegin?.o(.ctors)
 *(EXCLUDE_FILE(*crtend.o *crtend?.o) .ctors)
 *(SORT_BY_NAME(.ctors.*))
 *(.ctors)
 *crtbegin.o(.dtors)
 *crtbegin?.o(.dtors)
 *(EXCLUDE_FILE(*crtend.o *crtend?.o) .dtors)
 *(SORT_BY_NAME(.dtors.*))
 *(.dtors)
 *(.eh_frame*)
 .eh_frame      0x100102f0        0x0 c:/vsarm/armcc/102021~1.10/bin/../lib/gcc/arm-none-eabi/10.3.1/thumb/v6-m/nofp/crtbegin.o
                0x100102f0                . = ALIGN (0x4)

.glue_7         0x100102f0        0x0
 .glue_7        0x100102f0        0x0 linker stubs

.glue_7t        0x100102f0        0x0
 .glue_7t       0x100102f0        0x0 linker stubs

.vfp11_veneer   0x100102f0        0x0
 .vfp11_veneer  0x100102f0        0x0 linker stubs

.v4_bx          0x100102f0        0x0
 .v4_bx         0x100102f0        0x0 linker stubs

.iplt           0x100102f0        0x0
 .iplt          0x100102f0        0x0 c:/vsarm/armcc/102021~1.10/bin/../lib/gcc/arm-none-eabi/10.3.1/thumb/v6-m/nofp/crtbegin.o

.rodata         0x100102f0     0x3150
 *(EXCLUDE_FILE(*libm.a: *libc.a:*lib_a-mem*.o *libgcc.a:) .rodata*)
 .rodata.spi1_dma_init.str1.4
                0x100102f0       0x6e CMakeFiles/gif_screen_driver.dir/gif_screen_driver.c.obj
 *fill*         0x1001035e        0x2 
 .rodata.main.str1.4
                0x10010360       0x94 CMakeFiles/gif_screen_driver.dir/gif_screen_driver.c.obj
 .rodata.__func__.3
                0x100103f4       0x1c CMakeFiles/gif_screen_driver.dir/gif_screen_driver.c.obj
 .rodata.str1.4
                0x10010410        0x3 CMakeFiles/gif_screen_driver.dir/hw_config.c.obj
 *fill*         0x10010413        0x1 
 .rodata.read_application_ext.str1.4
                0x10010414        0x9 CMakeFiles/gif_screen_driver.dir/gifdec.c.obj
 *fill*         0x1001041d        0x3 
 .rodata.read_ext.str1.4
                0x10010420       0x19 CMakeFiles/gif_screen_driver.dir/gifdec.c.obj
 *fill*         0x10010439        0x3 
 .rodata.gd_open_gif.str1.4
                0x1001043c       0x42 CMakeFiles/gif_screen_driver.dir/gifdec.c.obj
 *fill*         0x1001047e        0x2 
 .rodata.ssd1306_init.str1.4
                0x10010480       0x3f CMakeFiles/gif_screen_driver.dir/ssd1306.c.obj
 *fill*         0x100104bf        0x1 
 .rodata.ssd1306_show.str1.4
                0x100104c0        0xd CMakeFiles/gif_screen_driver.dir/ssd1306.c.obj
 *fill*         0x100104cd        0x3 
 .rodata.font_8x5
                0x100104d0      0x1e0 CMakeFiles/gif_screen_driver.dir/ssd1306.c.obj
                0x100104d0                font_8x5
 .rodata.spin_lock_claim_unused.str1.4
                0x100106b0       0x1b CMakeFiles/gif_screen_driver.dir/C_/VSARM/sdk/pico/pico-sdk/src/rp2_common/hardware_sync/sync.c.obj
 *fill*         0x100106cb        0x1 
 .rodata.make_branch.str1.4
                0x100106cc       0x6d CMakeFiles/gif_screen_driver.dir/C_/VSARM/sdk/pico/pico-sdk/src/rp2_common/hardware_irq/irq.c.obj
 *fill*         0x10010739        0x3 
 .rodata.insert_branch_and_link.str1.4
                0x1001073c       0x10 CMakeFiles/gif_screen_driver.dir/C_/VSARM/sdk/pico/pico-sdk/src/rp2_common/hardware_irq/irq.c.obj
 .rodata.irq_set_exclusive_handler.str1.4
                0x1001074c       0x36 CMakeFiles/gif_screen_driver.dir/C_/VSARM/sdk/pico/pico-sdk/src/rp2_common/hardware_irq/irq.c.obj
 *fill*         0x10010782        0x2 
 .rodata.irq_add_shared_handler.str1.4
                0x10010784       0xd9 CMakeFiles/gif_screen_driver.dir/C_/VSARM/sdk/pico/pico-sdk/src/rp2_common/hardware_irq/irq.c.obj
 *fill*         0x1001085d        0x3 
 .rodata.irq_remove_handler.str1.4
                0x10010860       0x3a CMakeFiles/gif_screen_driver.dir/C_/VSARM/sdk/pico/pico-sdk/src/rp2_common/hardware_irq/irq.c.obj
 *fill*         0x1001089a        0x2 
 .rodata.irq_add_tail_to_free_list.str1.4
                0x1001089c       0x3a CMakeFiles/gif_screen_driver.dir/C_/VSARM/sdk/pico/pico-sdk/src/rp2_common/hardware_irq/irq.c.obj
 *fill*         0x100108d6        0x2 
 .rodata.user_irq_claim_unused.str1.4
                0x100108d8       0x1b CMakeFiles/gif_screen_driver.dir/C_/VSARM/sdk/pico/pico-sdk/src/rp2_common/hardware_irq/irq.c.obj
 *fill*         0x100108f3        0x1 
 .rodata.__func__.0
                0x100108f4       0x1a CMakeFiles/gif_screen_driver.dir/C_/VSARM/sdk/pico/pico-sdk/src/rp2_common/hardware_irq/irq.c.obj
 *fill*         0x1001090e        0x2 
 .rodata.__func__.1
                0x10010910       0x17 CMakeFiles/gif_screen_driver.dir/C_/VSARM/sdk/pico/pico-sdk/src/rp2_common/hardware_irq/irq.c.obj
 *fill*         0x10010927        0x1 
 .rodata.__func__.2
                0x10010928       0x13 CMakeFiles/gif_screen_driver.dir/C_/VSARM/sdk/pico/pico-sdk/src/rp2_common/hardware_irq/irq.c.obj
 *fill*         0x1001093b        0x1 
 .rodata.__func__.3
                0x1001093c        0xc CMakeFiles/gif_screen_driver.dir/C_/VSARM/sdk/pico/pico-sdk/src/rp2_common/hardware_irq/irq.c.obj
 .rodata.__func__.4
                0x10010948        0xf CMakeFiles/gif_screen_driver.dir/C_/VSARM/sdk/pico/pico-sdk/src/rp2_common/hardware_irq/irq.c.obj
 *fill*         0x10010957        0x1 
 .rodata.__func__.5
                0x10010958       0x17 CMakeFiles/gif_screen_driver.dir/C_/VSARM/sdk/pico/pico-sdk/src/rp2_common/hardware_irq/irq.c.obj
 *fill*         0x1001096f        0x1 
 .rodata.__func__.6
                0x10010970       0x1a CMakeFiles/gif_screen_driver.dir/C_/VSARM/sdk/pico/pico-sdk/src/rp2_common/hardware_irq/irq.c.obj
 *fill*         0x1001098a        0x2 
 .rodata.str1.4
                0x1001098c       0xc6 CMakeFiles/gif_screen_driver.dir/C_/VSARM/sdk/pico/pico-sdk/src/common/pico_sync/sem.c.obj
 *fill*         0x10010a52        0x2 
 .rodata.__func__.0
                0x10010a54        0xa CMakeFiles/gif_screen_driver.dir/C_/VSARM/sdk/pico/pico-sdk/src/common/pico_sync/sem.c.obj
 *fill*         0x10010a5e        0x2 
 .rodata.__func__.1
                0x10010a60       0x15 CMakeFiles/gif_screen_driver.dir/C_/VSARM/sdk/pico/pico-sdk/src/common/pico_sync/sem.c.obj
 *fill*         0x10010a75        0x3 
 .rodata.str1.4
                0x10010a78       0x89 CMakeFiles/gif_screen_driver.dir/C_/VSARM/sdk/pico/pico-sdk/src/common/pico_sync/mutex.c.obj
                                 0xed (size before relaxing)
 *fill*         0x10010b01        0x3 
 .rodata.__func__.1
                0x10010b04        0xb CMakeFiles/gif_screen_driver.dir/C_/VSARM/sdk/pico/pico-sdk/src/common/pico_sync/mutex.c.obj
 *fill*         0x10010b0f        0x1 
 .rodata.__func__.3
                0x10010b10       0x18 CMakeFiles/gif_screen_driver.dir/C_/VSARM/sdk/pico/pico-sdk/src/common/pico_sync/mutex.c.obj
 .rodata.__func__.4
                0x10010b28       0x15 CMakeFiles/gif_screen_driver.dir/C_/VSARM/sdk/pico/pico-sdk/src/common/pico_sync/mutex.c.obj
 *fill*         0x10010b3d        0x3 
 .rodata.repeating_timer_callback.str1.4
                0x10010b40       0x4b CMakeFiles/gif_screen_driver.dir/C_/VSARM/sdk/pico/pico-sdk/src/common/pico_time/time.c.obj
 *fill*         0x10010b8b        0x1 
 .rodata.timer_pool_entry_comparator.str1.4
                0x10010b8c       0x22 CMakeFiles/gif_screen_driver.dir/C_/VSARM/sdk/pico/pico-sdk/src/common/pico_time/time.c.obj
 *fill*         0x10010bae        0x2 
 .rodata.ph_add_child_node.str1.4
                0x10010bb0       0x96 CMakeFiles/gif_screen_driver.dir/C_/VSARM/sdk/pico/pico-sdk/src/common/pico_time/time.c.obj
 *fill*         0x10010c46        0x2 
 .rodata.add_alarm_under_lock.str1.4
                0x10010c48       0x28 CMakeFiles/gif_screen_driver.dir/C_/VSARM/sdk/pico/pico-sdk/src/common/pico_time/time.c.obj
                                 0x2b (size before relaxing)
 .rodata.alarm_pool_alarm_callback.str1.4
                0x10010c70       0x98 CMakeFiles/gif_screen_driver.dir/C_/VSARM/sdk/pico/pico-sdk/src/common/pico_time/time.c.obj
                                 0xfc (size before relaxing)
 .rodata.alarm_pool_get_default.str1.4
                0x10010d08       0x21 CMakeFiles/gif_screen_driver.dir/C_/VSARM/sdk/pico/pico-sdk/src/common/pico_time/time.c.obj
 *fill*         0x10010d29        0x3 
 .rodata.alarm_pool_cancel_alarm.str1.4
                0x10010d2c       0x27 CMakeFiles/gif_screen_driver.dir/C_/VSARM/sdk/pico/pico-sdk/src/common/pico_time/time.c.obj
 *fill*         0x10010d53        0x1 
 .rodata.sleep_until.str1.4
                0x10010d54       0x4d CMakeFiles/gif_screen_driver.dir/C_/VSARM/sdk/pico/pico-sdk/src/common/pico_time/time.c.obj
 *fill*         0x10010da1        0x3 
 .rodata.__func__.0
                0x10010da4       0x19 CMakeFiles/gif_screen_driver.dir/C_/VSARM/sdk/pico/pico-sdk/src/common/pico_time/time.c.obj
 *fill*         0x10010dbd        0x3 
 .rodata.__func__.1
                0x10010dc0       0x18 CMakeFiles/gif_screen_driver.dir/C_/VSARM/sdk/pico/pico-sdk/src/common/pico_time/time.c.obj
 .rodata.__func__.10
                0x10010dd8       0x15 CMakeFiles/gif_screen_driver.dir/C_/VSARM/sdk/pico/pico-sdk/src/common/pico_time/time.c.obj
 *fill*         0x10010ded        0x3 
 .rodata.__func__.11
                0x10010df0       0x1a CMakeFiles/gif_screen_driver.dir/C_/VSARM/sdk/pico/pico-sdk/src/common/pico_time/time.c.obj
 *fill*         0x10010e0a        0x2 
 .rodata.__func__.12
                0x10010e0c        0xa CMakeFiles/gif_screen_driver.dir/C_/VSARM/sdk/pico/pico-sdk/src/common/pico_time/time.c.obj
 *fill*         0x10010e16        0x2 
 .rodata.__func__.3
                0x10010e18       0x17 CMakeFiles/gif_screen_driver.dir/C_/VSARM/sdk/pico/pico-sdk/src/common/pico_time/time.c.obj
 *fill*         0x10010e2f        0x1 
 .rodata.__func__.4
                0x10010e30       0x12 CMakeFiles/gif_screen_driver.dir/C_/VSARM/sdk/pico/pico-sdk/src/common/pico_time/time.c.obj
 *fill*         0x10010e42        0x2 
 .rodata.__func__.5
                0x10010e44        0xd CMakeFiles/gif_screen_driver.dir/C_/VSARM/sdk/pico/pico-sdk/src/common/pico_time/time.c.obj
 *fill*         0x10010e51        0x3 
 .rodata.__func__.6
                0x10010e54       0x12 CMakeFiles/gif_screen_driver.dir/C_/VSARM/sdk/pico/pico-sdk/src/common/pico_time/time.c.obj
 *fill*         0x10010e66        0x2 
 .rodata.__func__.7
                0x10010e68        0xf CMakeFiles/gif_screen_driver.dir/C_/VSARM/sdk/pico/pico-sdk/src/common/pico_time/time.c.obj
 *fill*         0x10010e77        0x1 
 .rodata.__func__.8
                0x10010e78        0xc CMakeFiles/gif_screen_driver.dir/C_/VSARM/sdk/pico/pico-sdk/src/common/pico_time/time.c.obj
 .rodata.__func__.9
                0x10010e84       0x15 CMakeFiles/gif_screen_driver.dir/C_/VSARM/sdk/pico/pico-sdk/src/common/pico_time/time.c.obj
 *fill*         0x10010e99        0x7 
 .rodata.at_the_end_of_time
                0x10010ea0        0x8 CMakeFiles/gif_screen_driver.dir/C_/VSARM/sdk/pico/pico-sdk/src/common/pico_time/time.c.obj
                0x10010ea0                at_the_end_of_time
 .rodata.hardware_alarm_claim.str1.4
                0x10010ea8       0x22 CMakeFiles/gif_screen_driver.dir/C_/VSARM/sdk/pico/pico-sdk/src/rp2_common/hardware_timer/timer.c.obj
 *fill*         0x10010eca        0x2 
 .rodata.hardware_alarm_claim_unused.str1.4
                0x10010ecc       0x14 CMakeFiles/gif_screen_driver.dir/C_/VSARM/sdk/pico/pico-sdk/src/rp2_common/hardware_timer/timer.c.obj
 .rodata.busy_wait_us.str1.4
                0x10010ee0       0x61 CMakeFiles/gif_screen_driver.dir/C_/VSARM/sdk/pico/pico-sdk/src/rp2_common/hardware_timer/timer.c.obj
 .rodata.hardware_alarm_set_target.str1.4
                0x10010ee0       0x65 CMakeFiles/gif_screen_driver.dir/C_/VSARM/sdk/pico/pico-sdk/src/rp2_common/hardware_timer/timer.c.obj
 *fill*         0x10010f45        0x3 
 .rodata.__func__.0
                0x10010f48       0x1a CMakeFiles/gif_screen_driver.dir/C_/VSARM/sdk/pico/pico-sdk/src/rp2_common/hardware_timer/timer.c.obj
 *fill*         0x10010f62        0x2 
 .rodata.__func__.1
                0x10010f64       0x15 CMakeFiles/gif_screen_driver.dir/C_/VSARM/sdk/pico/pico-sdk/src/rp2_common/hardware_timer/timer.c.obj
 .rodata.ph_add_child_node.str1.4
                0x10010f79       0x96 CMakeFiles/gif_screen_driver.dir/C_/VSARM/sdk/pico/pico-sdk/src/common/pico_util/pheap.c.obj
 *fill*         0x10010f79        0x3 
 .rodata.ph_remove_any_head.str1.4
                0x10010f7c       0x8c CMakeFiles/gif_screen_driver.dir/C_/VSARM/sdk/pico/pico-sdk/src/common/pico_util/pheap.c.obj
                                 0xa0 (size before relaxing)
 .rodata.ph_remove_and_free_node.str1.4
                0x10011008       0x1e CMakeFiles/gif_screen_driver.dir/C_/VSARM/sdk/pico/pico-sdk/src/common/pico_util/pheap.c.obj
                                 0x26 (size before relaxing)
 *fill*         0x10011026        0x2 
 .rodata.__func__.0
                0x10011028       0x18 CMakeFiles/gif_screen_driver.dir/C_/VSARM/sdk/pico/pico-sdk/src/common/pico_util/pheap.c.obj
 .rodata.__func__.1
                0x10011040       0x13 CMakeFiles/gif_screen_driver.dir/C_/VSARM/sdk/pico/pico-sdk/src/common/pico_util/pheap.c.obj
 *fill*         0x10011053        0x1 
 .rodata.__func__.2
                0x10011054       0x12 CMakeFiles/gif_screen_driver.dir/C_/VSARM/sdk/pico/pico-sdk/src/common/pico_util/pheap.c.obj
 *fill*         0x10011066        0x2 
 .rodata.__func__.3
                0x10011068        0xc CMakeFiles/gif_screen_driver.dir/C_/VSARM/sdk/pico/pico-sdk/src/common/pico_util/pheap.c.obj
 .rodata.clock_configure.str1.4
                0x10011074       0x57 CMakeFiles/gif_screen_driver.dir/C_/VSARM/sdk/pico/pico-sdk/src/rp2_common/hardware_clocks/clocks.c.obj
 *fill*         0x100110cb        0x1 
 .rodata.__func__.1
                0x100110cc       0x10 CMakeFiles/gif_screen_driver.dir/C_/VSARM/sdk/pico/pico-sdk/src/rp2_common/hardware_clocks/clocks.c.obj
 .rodata.pll_init.str1.4
                0x100110dc      0x124 CMakeFiles/gif_screen_driver.dir/C_/VSARM/sdk/pico/pico-sdk/src/rp2_common/hardware_pll/pll.c.obj
 .rodata.__func__.0
                0x10011200        0x9 CMakeFiles/gif_screen_driver.dir/C_/VSARM/sdk/pico/pico-sdk/src/rp2_common/hardware_pll/pll.c.obj
 *fill*         0x10011209        0x3 
 .rodata.__assert_func.str1.4
                0x1001120c       0x3f CMakeFiles/gif_screen_driver.dir/C_/VSARM/sdk/pico/pico-sdk/src/rp2_common/pico_runtime/runtime.c.obj
                                 0x43 (size before relaxing)
 *fill*         0x1001124b        0x1 
 .rodata.runtime_init.str1.4
                0x1001124c       0x61 CMakeFiles/gif_screen_driver.dir/C_/VSARM/sdk/pico/pico-sdk/src/rp2_common/pico_runtime/runtime.c.obj
 *fill*         0x100112ad        0x3 
 .rodata.panic.str1.4
                0x100112b0       0x10 CMakeFiles/gif_screen_driver.dir/C_/VSARM/sdk/pico/pico-sdk/src/rp2_common/pico_runtime/runtime.c.obj
                                 0x12 (size before relaxing)
 .rodata.__func__.2
                0x100112c0        0xd CMakeFiles/gif_screen_driver.dir/C_/VSARM/sdk/pico/pico-sdk/src/rp2_common/pico_runtime/runtime.c.obj
 *fill*         0x100112cd        0x3 
 .rodata._ftoa.str1.4
                0x100112d0       0x15 CMakeFiles/gif_screen_driver.dir/C_/VSARM/sdk/pico/pico-sdk/src/rp2_common/pico_printf/printf.c.obj
 *fill*         0x100112e5        0x3 
 .rodata._vsnprintf
                0x100112e8      0x1e0 CMakeFiles/gif_screen_driver.dir/C_/VSARM/sdk/pico/pico-sdk/src/rp2_common/pico_printf/printf.c.obj
 .rodata.pow10.0
                0x100114c8       0x50 CMakeFiles/gif_screen_driver.dir/C_/VSARM/sdk/pico/pico-sdk/src/rp2_common/pico_printf/printf.c.obj
 .rodata.__aeabi_double_init.str1.4
                0x10011518       0x9c CMakeFiles/gif_screen_driver.dir/C_/VSARM/sdk/pico/pico-sdk/src/rp2_common/pico_double/double_init_rom.c.obj
 .rodata.__func__.0
                0x100115b4       0x14 CMakeFiles/gif_screen_driver.dir/C_/VSARM/sdk/pico/pico-sdk/src/rp2_common/pico_double/double_init_rom.c.obj
 .rodata.__aeabi_float_init.str1.4
                0x100115c8       0x7a CMakeFiles/gif_screen_driver.dir/C_/VSARM/sdk/pico/pico-sdk/src/rp2_common/pico_float/float_init_rom.c.obj
                                 0x7e (size before relaxing)
 *fill*         0x10011642        0x2 
 .rodata.__func__.0
                0x10011644       0x13 CMakeFiles/gif_screen_driver.dir/C_/VSARM/sdk/pico/pico-sdk/src/rp2_common/pico_float/float_init_rom.c.obj
 *fill*         0x10011657        0x1 
 .rodata.__wrap_malloc.str1.4
                0x10011658        0xe CMakeFiles/gif_screen_driver.dir/C_/VSARM/sdk/pico/pico-sdk/src/rp2_common/pico_malloc/pico_malloc.c.obj
 *fill*         0x10011666        0x2 
 .rodata.str1.4
                0x10011668       0x4c CMakeFiles/gif_screen_driver.dir/C_/VSARM/sdk/pico/pico-sdk/src/rp2_common/pico_standard_link/binary_info.c.obj
 .rodata.__bi_44
                0x100116b4        0xc CMakeFiles/gif_screen_driver.dir/C_/VSARM/sdk/pico/pico-sdk/src/rp2_common/pico_standard_link/binary_info.c.obj
 .rodata.__bi_56
                0x100116c0        0xc CMakeFiles/gif_screen_driver.dir/C_/VSARM/sdk/pico/pico-sdk/src/rp2_common/pico_standard_link/binary_info.c.obj
 .rodata.__bi_75
                0x100116cc        0xc CMakeFiles/gif_screen_driver.dir/C_/VSARM/sdk/pico/pico-sdk/src/rp2_common/pico_standard_link/binary_info.c.obj
 .rodata.__bi_81
                0x100116d8        0xc CMakeFiles/gif_screen_driver.dir/C_/VSARM/sdk/pico/pico-sdk/src/rp2_common/pico_standard_link/binary_info.c.obj
 .rodata.stdout_serialize_begin.str1.4
                0x100116e4       0x61 CMakeFiles/gif_screen_driver.dir/C_/VSARM/sdk/pico/pico-sdk/src/rp2_common/pico_stdio/stdio.c.obj
 .rodata.__func__.3
                0x100116e4       0x15 CMakeFiles/gif_screen_driver.dir/C_/VSARM/sdk/pico/pico-sdk/src/rp2_common/pico_stdio/stdio.c.obj
 *fill*         0x100116f9        0x3 
 .rodata.crlf_str.2
                0x100116fc        0x2 CMakeFiles/gif_screen_driver.dir/C_/VSARM/sdk/pico/pico-sdk/src/rp2_common/pico_stdio/stdio.c.obj
 *fill*         0x100116fe        0x2 
 .rodata._resetd_driver
                0x10011700       0x18 CMakeFiles/gif_screen_driver.dir/C_/VSARM/sdk/pico/pico-sdk/src/rp2_common/pico_stdio_usb/reset_interface.c.obj
 .rodata.low_priority_worker_irq.str1.4
                0x10011718       0x61 CMakeFiles/gif_screen_driver.dir/C_/VSARM/sdk/pico/pico-sdk/src/rp2_common/pico_stdio_usb/stdio_usb.c.obj
 .rodata.stdio_usb_init.str1.4
                0x10011718       0x45 CMakeFiles/gif_screen_driver.dir/C_/VSARM/sdk/pico/pico-sdk/src/rp2_common/pico_stdio_usb/stdio_usb.c.obj
                                 0x4d (size before relaxing)
 *fill*         0x1001175d        0x3 
 .rodata.str1.4
                0x10011760       0x13 CMakeFiles/gif_screen_driver.dir/C_/VSARM/sdk/pico/pico-sdk/src/rp2_common/pico_stdio_usb/stdio_usb.c.obj
 *fill*         0x10011773        0x1 
 .rodata.__bi_182.0
                0x10011774        0xc CMakeFiles/gif_screen_driver.dir/C_/VSARM/sdk/pico/pico-sdk/src/rp2_common/pico_stdio_usb/stdio_usb.c.obj
 .rodata.__func__.1
                0x10011780        0xf CMakeFiles/gif_screen_driver.dir/C_/VSARM/sdk/pico/pico-sdk/src/rp2_common/pico_stdio_usb/stdio_usb.c.obj
 *fill*         0x1001178f        0x1 
 .rodata.__func__.3
                0x10011790       0x15 CMakeFiles/gif_screen_driver.dir/C_/VSARM/sdk/pico/pico-sdk/src/rp2_common/pico_stdio_usb/stdio_usb.c.obj
 *fill*         0x100117a5        0x3 
 .rodata.str1.4
                0x100117a8       0x2a CMakeFiles/gif_screen_driver.dir/C_/VSARM/sdk/pico/pico-sdk/src/rp2_common/pico_stdio_usb/stdio_usb_descriptors.c.obj
 *fill*         0x100117d2        0x2 
 .rodata.usbd_desc_cfg
                0x100117d4       0x54 CMakeFiles/gif_screen_driver.dir/C_/VSARM/sdk/pico/pico-sdk/src/rp2_common/pico_stdio_usb/stdio_usb_descriptors.c.obj
 .rodata.usbd_desc_device
                0x10011828       0x12 CMakeFiles/gif_screen_driver.dir/C_/VSARM/sdk/pico/pico-sdk/src/rp2_common/pico_stdio_usb/stdio_usb_descriptors.c.obj
 *fill*         0x1001183a        0x2 
 .rodata.usbd_desc_str
                0x1001183c       0x18 CMakeFiles/gif_screen_driver.dir/C_/VSARM/sdk/pico/pico-sdk/src/rp2_common/pico_stdio_usb/stdio_usb_descriptors.c.obj
 .rodata.pico_get_unique_board_id_string.str1.4
                0x10011854       0x4d CMakeFiles/gif_screen_driver.dir/C_/VSARM/sdk/pico/pico-sdk/src/rp2_common/pico_unique_id/unique_id.c.obj
 *fill*         0x100118a1        0x3 
 .rodata.__func__.0
                0x100118a4       0x20 CMakeFiles/gif_screen_driver.dir/C_/VSARM/sdk/pico/pico-sdk/src/rp2_common/pico_unique_id/unique_id.c.obj
 .rodata.str1.4
                0x100118c4      0x15a CMakeFiles/gif_screen_driver.dir/C_/VSARM/sdk/pico/pico-sdk/src/rp2_common/hardware_flash/flash.c.obj
 *fill*         0x10011a1e        0x2 
 .rodata.__func__.0
                0x10011a20        0xd CMakeFiles/gif_screen_driver.dir/C_/VSARM/sdk/pico/pico-sdk/src/rp2_common/hardware_flash/flash.c.obj
 *fill*         0x10011a2d        0x3 
 .rodata._hw_endpoint_alloc.str1.4
                0x10011a30       0xb5 CMakeFiles/gif_screen_driver.dir/C_/VSARM/sdk/pico/pico-sdk/lib/tinyusb/src/portable/raspberrypi/rp2040/dcd_rp2040.c.obj
 *fill*         0x10011ae5        0x3 
 .rodata.str1.4
                0x10011ae8       0x14 CMakeFiles/gif_screen_driver.dir/C_/VSARM/sdk/pico/pico-sdk/lib/tinyusb/src/portable/raspberrypi/rp2040/dcd_rp2040.c.obj
 .rodata.dcd_int_enable.str1.4
                0x10011afc        0xc CMakeFiles/gif_screen_driver.dir/C_/VSARM/sdk/pico/pico-sdk/lib/tinyusb/src/portable/raspberrypi/rp2040/dcd_rp2040.c.obj
 .rodata.__func__.0
                0x10011b08        0xe CMakeFiles/gif_screen_driver.dir/C_/VSARM/sdk/pico/pico-sdk/lib/tinyusb/src/portable/raspberrypi/rp2040/dcd_rp2040.c.obj
 *fill*         0x10011b16        0x2 
 .rodata.__func__.1
                0x10011b18        0xe CMakeFiles/gif_screen_driver.dir/C_/VSARM/sdk/pico/pico-sdk/lib/tinyusb/src/portable/raspberrypi/rp2040/dcd_rp2040.c.obj
 *fill*         0x10011b26        0x2 
 .rodata.__func__.3
                0x10011b28       0x10 CMakeFiles/gif_screen_driver.dir/C_/VSARM/sdk/pico/pico-sdk/lib/tinyusb/src/portable/raspberrypi/rp2040/dcd_rp2040.c.obj
 .rodata.__func__.5
                0x10011b38        0xf CMakeFiles/gif_screen_driver.dir/C_/VSARM/sdk/pico/pico-sdk/lib/tinyusb/src/portable/raspberrypi/rp2040/dcd_rp2040.c.obj
 *fill*         0x10011b47        0x1 
 .rodata.__func__.6
                0x10011b48       0x13 CMakeFiles/gif_screen_driver.dir/C_/VSARM/sdk/pico/pico-sdk/lib/tinyusb/src/portable/raspberrypi/rp2040/dcd_rp2040.c.obj
 *fill*         0x10011b5b        0x1 
 .rodata.__func__.7
                0x10011b5c        0x9 CMakeFiles/gif_screen_driver.dir/C_/VSARM/sdk/pico/pico-sdk/lib/tinyusb/src/portable/raspberrypi/rp2040/dcd_rp2040.c.obj
 *fill*         0x10011b65        0x3 
 .rodata.str1.4
                0x10011b68       0xe7 CMakeFiles/gif_screen_driver.dir/C_/VSARM/sdk/pico/pico-sdk/lib/tinyusb/src/portable/raspberrypi/rp2040/rp2040_usb.c.obj
 *fill*         0x10011c4f        0x1 
 .rodata.__func__.0
                0x10011c50        0xf CMakeFiles/gif_screen_driver.dir/C_/VSARM/sdk/pico/pico-sdk/lib/tinyusb/src/portable/raspberrypi/rp2040/rp2040_usb.c.obj
 *fill*         0x10011c5f        0x1 
 .rodata.process_get_descriptor
                0x10011c60       0x40 CMakeFiles/gif_screen_driver.dir/C_/VSARM/sdk/pico/pico-sdk/lib/tinyusb/src/device/usbd.c.obj
 .rodata.process_control_request
                0x10011ca0       0x28 CMakeFiles/gif_screen_driver.dir/C_/VSARM/sdk/pico/pico-sdk/lib/tinyusb/src/device/usbd.c.obj
 .rodata.tud_task_ext
                0x10011cc8       0x24 CMakeFiles/gif_screen_driver.dir/C_/VSARM/sdk/pico/pico-sdk/lib/tinyusb/src/device/usbd.c.obj
 .rodata._usbd_driver
                0x10011cec       0x18 CMakeFiles/gif_screen_driver.dir/C_/VSARM/sdk/pico/pico-sdk/lib/tinyusb/src/device/usbd.c.obj
 .rodata.multicore_lockout_start_block_until.str1.4
                0x10011d04       0x5d CMakeFiles/gif_screen_driver.dir/C_/VSARM/sdk/pico/pico-sdk/src/rp2_common/pico_multicore/multicore.c.obj
 *fill*         0x10011d61        0x3 
 .rodata.multicore_launch_core1_with_stack.str1.4
                0x10011d64       0x19 CMakeFiles/gif_screen_driver.dir/C_/VSARM/sdk/pico/pico-sdk/src/rp2_common/pico_multicore/multicore.c.obj
 *fill*         0x10011d7d        0x3 
 .rodata.__func__.2
                0x10011d80       0x22 CMakeFiles/gif_screen_driver.dir/C_/VSARM/sdk/pico/pico-sdk/src/rp2_common/pico_multicore/multicore.c.obj
 *fill*         0x10011da2        0x2 
 .rodata.i2c_set_baudrate.str1.4
                0x10011da4       0x5d CMakeFiles/gif_screen_driver.dir/C_/VSARM/sdk/pico/pico-sdk/src/rp2_common/hardware_i2c/i2c.c.obj
 *fill*         0x10011e01        0x3 
 .rodata.__func__.0
                0x10011e04       0x11 CMakeFiles/gif_screen_driver.dir/C_/VSARM/sdk/pico/pico-sdk/src/rp2_common/hardware_i2c/i2c.c.obj
 *fill*         0x10011e15        0x3 
 .rodata.ff_wtoupper
                0x10011e18       0x24 CMakeFiles/gif_screen_driver.dir/M_/house-projects/Christmas/display-screen-ws2812b/FatFs_SPI/ff15/source/ffunicode.c.obj
 .rodata.cvt1.1
                0x10011e3c      0x1f2 CMakeFiles/gif_screen_driver.dir/M_/house-projects/Christmas/display-screen-ws2812b/FatFs_SPI/ff15/source/ffunicode.c.obj
 *fill*         0x1001202e        0x2 
 .rodata.cvt2.0
                0x10012030       0xbc CMakeFiles/gif_screen_driver.dir/M_/house-projects/Christmas/display-screen-ws2812b/FatFs_SPI/ff15/source/ffunicode.c.obj
 .rodata.uc437  0x100120ec      0x100 CMakeFiles/gif_screen_driver.dir/M_/house-projects/Christmas/display-screen-ws2812b/FatFs_SPI/ff15/source/ffunicode.c.obj
 .rodata.check_fs.str1.4
                0x100121ec       0x15 CMakeFiles/gif_screen_driver.dir/M_/house-projects/Christmas/display-screen-ws2812b/FatFs_SPI/ff15/source/ff.c.obj
 *fill*         0x10012201        0x3 
 .rodata.create_name.str1.4
                0x10012204       0x13 CMakeFiles/gif_screen_driver.dir/M_/house-projects/Christmas/display-screen-ws2812b/FatFs_SPI/ff15/source/ff.c.obj
 *fill*         0x10012217        0x1 
 .rodata        0x10012218       0x2c CMakeFiles/gif_screen_driver.dir/M_/house-projects/Christmas/display-screen-ws2812b/FatFs_SPI/ff15/source/ff.c.obj
 .rodata.ExCvt  0x10012244       0x80 CMakeFiles/gif_screen_driver.dir/M_/house-projects/Christmas/display-screen-ws2812b/FatFs_SPI/ff15/source/ff.c.obj
 .rodata.GUID_MS_Basic
                0x100122c4       0x10 CMakeFiles/gif_screen_driver.dir/M_/house-projects/Christmas/display-screen-ws2812b/FatFs_SPI/ff15/source/ff.c.obj
 .rodata.LfnOfs
                0x100122d4        0xd CMakeFiles/gif_screen_driver.dir/M_/house-projects/Christmas/display-screen-ws2812b/FatFs_SPI/ff15/source/ff.c.obj
 *fill*         0x100122e1        0x3 
 .rodata.sd_spi_write.str1.4
                0x100122e4       0x58 CMakeFiles/gif_screen_driver.dir/M_/house-projects/Christmas/display-screen-ws2812b/FatFs_SPI/sd_driver/sd_spi.c.obj
 .rodata.sd_spi_send_initializing_sequence.str1.4
                0x1001233c       0x61 CMakeFiles/gif_screen_driver.dir/M_/house-projects/Christmas/display-screen-ws2812b/FatFs_SPI/sd_driver/sd_spi.c.obj
 .rodata.__func__.0
                0x1001233c       0x15 CMakeFiles/gif_screen_driver.dir/M_/house-projects/Christmas/display-screen-ws2812b/FatFs_SPI/sd_driver/sd_spi.c.obj
 *fill*         0x10012351        0x3 
 .rodata.__func__.1
                0x10012354        0xd CMakeFiles/gif_screen_driver.dir/M_/house-projects/Christmas/display-screen-ws2812b/FatFs_SPI/sd_driver/sd_spi.c.obj
 *fill*         0x10012361        0x3 
 .rodata.in_spi_irq_handler.str1.4
                0x10012364       0x93 CMakeFiles/gif_screen_driver.dir/M_/house-projects/Christmas/display-screen-ws2812b/FatFs_SPI/sd_driver/spi.c.obj
 *fill*         0x100123f7        0x1 
 .rodata.str1.4
                0x100123f8       0xac CMakeFiles/gif_screen_driver.dir/M_/house-projects/Christmas/display-screen-ws2812b/FatFs_SPI/sd_driver/spi.c.obj
                                 0xb4 (size before relaxing)
 .rodata.spi_lock.str1.4
                0x100124a4       0x24 CMakeFiles/gif_screen_driver.dir/M_/house-projects/Christmas/display-screen-ws2812b/FatFs_SPI/sd_driver/spi.c.obj
 .rodata.my_spi_init.str1.4
                0x100124c8       0x13 CMakeFiles/gif_screen_driver.dir/M_/house-projects/Christmas/display-screen-ws2812b/FatFs_SPI/sd_driver/spi.c.obj
                                 0x83 (size before relaxing)
 *fill*         0x100124db        0x1 
 .rodata.__FUNCTION__.9
                0x100124dc        0xd CMakeFiles/gif_screen_driver.dir/M_/house-projects/Christmas/display-screen-ws2812b/FatFs_SPI/sd_driver/spi.c.obj
 *fill*         0x100124e9        0x3 
 .rodata.__func__.0
                0x100124ec       0x18 CMakeFiles/gif_screen_driver.dir/M_/house-projects/Christmas/display-screen-ws2812b/FatFs_SPI/sd_driver/spi.c.obj
 .rodata.__func__.12
                0x10012504        0xd CMakeFiles/gif_screen_driver.dir/M_/house-projects/Christmas/display-screen-ws2812b/FatFs_SPI/sd_driver/spi.c.obj
 *fill*         0x10012511        0x3 
 .rodata.__func__.3
                0x10012514       0x1c CMakeFiles/gif_screen_driver.dir/M_/house-projects/Christmas/display-screen-ws2812b/FatFs_SPI/sd_driver/spi.c.obj
 .rodata.__func__.4
                0x10012530       0x13 CMakeFiles/gif_screen_driver.dir/M_/house-projects/Christmas/display-screen-ws2812b/FatFs_SPI/sd_driver/spi.c.obj
 *fill*         0x10012543        0x1 
 .rodata.__func__.5
                0x10012544        0xc CMakeFiles/gif_screen_driver.dir/M_/house-projects/Christmas/display-screen-ws2812b/FatFs_SPI/sd_driver/spi.c.obj
 .rodata.__func__.7
                0x10012550        0xb CMakeFiles/gif_screen_driver.dir/M_/house-projects/Christmas/display-screen-ws2812b/FatFs_SPI/sd_driver/spi.c.obj
 *fill*         0x1001255b        0x1 
 .rodata.__func__.8
                0x1001255c        0x9 CMakeFiles/gif_screen_driver.dir/M_/house-projects/Christmas/display-screen-ws2812b/FatFs_SPI/sd_driver/spi.c.obj
 .rodata.dummy.11
                0x10012565        0x1 CMakeFiles/gif_screen_driver.dir/M_/house-projects/Christmas/display-screen-ws2812b/FatFs_SPI/sd_driver/spi.c.obj
 *fill*         0x10012566        0x2 
 .rodata.sd_lock.str1.4
                0x10012568       0x75 CMakeFiles/gif_screen_driver.dir/M_/house-projects/Christmas/display-screen-ws2812b/FatFs_SPI/sd_driver/sd_card.c.obj
 *fill*         0x100125dd        0x3 
 .rodata.sd_wait_token.str1.4
                0x100125e0       0x19 CMakeFiles/gif_screen_driver.dir/M_/house-projects/Christmas/display-screen-ws2812b/FatFs_SPI/sd_driver/sd_card.c.obj
                                 0x7d (size before relaxing)
 *fill*         0x100125f9        0x3 
 .rodata.sd_read_bytes.str1.4
                0x100125fc       0x5e CMakeFiles/gif_screen_driver.dir/M_/house-projects/Christmas/display-screen-ws2812b/FatFs_SPI/sd_driver/sd_card.c.obj
 *fill*         0x1001265a        0x2 
 .rodata.sd_read_block.str1.4
                0x1001265c       0x3d CMakeFiles/gif_screen_driver.dir/M_/house-projects/Christmas/display-screen-ws2812b/FatFs_SPI/sd_driver/sd_card.c.obj
 *fill*         0x10012699        0x3 
 .rodata.sd_wait_ready.str1.4
                0x1001269c        0xc CMakeFiles/gif_screen_driver.dir/M_/house-projects/Christmas/display-screen-ws2812b/FatFs_SPI/sd_driver/sd_card.c.obj
 .rodata.sd_cmd.str1.4
                0x100126a8      0x36a CMakeFiles/gif_screen_driver.dir/M_/house-projects/Christmas/display-screen-ws2812b/FatFs_SPI/sd_driver/sd_card.c.obj
 *fill*         0x10012a12        0x2 
 .rodata.sd_cmd8.str1.4
                0x10012a14       0x26 CMakeFiles/gif_screen_driver.dir/M_/house-projects/Christmas/display-screen-ws2812b/FatFs_SPI/sd_driver/sd_card.c.obj
 *fill*         0x10012a3a        0x2 
 .rodata.sd_sectors_nolock.str1.4
                0x10012a3c      0x13a CMakeFiles/gif_screen_driver.dir/M_/house-projects/Christmas/display-screen-ws2812b/FatFs_SPI/sd_driver/sd_card.c.obj
 *fill*         0x10012b76        0x2 
 .rodata.sd_init_medium.str1.4
                0x10012b78       0xdd CMakeFiles/gif_screen_driver.dir/M_/house-projects/Christmas/display-screen-ws2812b/FatFs_SPI/sd_driver/sd_card.c.obj
 *fill*         0x10012c55        0x3 
 .rodata.sd_write_block.str1.4
                0x10012c58        0x4 CMakeFiles/gif_screen_driver.dir/M_/house-projects/Christmas/display-screen-ws2812b/FatFs_SPI/sd_driver/sd_card.c.obj
 .rodata.in_sd_write_blocks.str1.4
                0x10012c5c       0x48 CMakeFiles/gif_screen_driver.dir/M_/house-projects/Christmas/display-screen-ws2812b/FatFs_SPI/sd_driver/sd_card.c.obj
 .rodata.sd_card_detect.str1.4
                0x10012ca4       0x16 CMakeFiles/gif_screen_driver.dir/M_/house-projects/Christmas/display-screen-ws2812b/FatFs_SPI/sd_driver/sd_card.c.obj
 *fill*         0x10012cba        0x2 
 .rodata.sd_init.str1.4
                0x10012cbc       0x53 CMakeFiles/gif_screen_driver.dir/M_/house-projects/Christmas/display-screen-ws2812b/FatFs_SPI/sd_driver/sd_card.c.obj
 *fill*         0x10012d0f        0x1 
 .rodata.__FUNCTION__.2
                0x10012d10        0xe CMakeFiles/gif_screen_driver.dir/M_/house-projects/Christmas/display-screen-ws2812b/FatFs_SPI/sd_driver/sd_card.c.obj
 *fill*         0x10012d1e        0x2 
 .rodata.__FUNCTION__.5
                0x10012d20        0xe CMakeFiles/gif_screen_driver.dir/M_/house-projects/Christmas/display-screen-ws2812b/FatFs_SPI/sd_driver/sd_card.c.obj
 *fill*         0x10012d2e        0x2 
 .rodata.__func__.1
                0x10012d30        0xf CMakeFiles/gif_screen_driver.dir/M_/house-projects/Christmas/display-screen-ws2812b/FatFs_SPI/sd_driver/sd_card.c.obj
 *fill*         0x10012d3f        0x1 
 .rodata.__func__.3
                0x10012d40        0xa CMakeFiles/gif_screen_driver.dir/M_/house-projects/Christmas/display-screen-ws2812b/FatFs_SPI/sd_driver/sd_card.c.obj
 *fill*         0x10012d4a        0x2 
 .rodata.__func__.4
                0x10012d4c       0x15 CMakeFiles/gif_screen_driver.dir/M_/house-projects/Christmas/display-screen-ws2812b/FatFs_SPI/sd_driver/sd_card.c.obj
 *fill*         0x10012d61        0x3 
 .rodata.__func__.6
                0x10012d64       0x12 CMakeFiles/gif_screen_driver.dir/M_/house-projects/Christmas/display-screen-ws2812b/FatFs_SPI/sd_driver/sd_card.c.obj
 *fill*         0x10012d76        0x2 
 .rodata.__func__.7
                0x10012d78        0x8 CMakeFiles/gif_screen_driver.dir/M_/house-projects/Christmas/display-screen-ws2812b/FatFs_SPI/sd_driver/sd_card.c.obj
 .rodata.m_Crc16Table
                0x10012d80      0x200 CMakeFiles/gif_screen_driver.dir/M_/house-projects/Christmas/display-screen-ws2812b/FatFs_SPI/sd_driver/crc.c.obj
 .rodata.m_Crc7Table
                0x10012f80      0x100 CMakeFiles/gif_screen_driver.dir/M_/house-projects/Christmas/display-screen-ws2812b/FatFs_SPI/sd_driver/crc.c.obj
 .rodata.FRESULT_str.str1.4
                0x10013080      0x30a CMakeFiles/gif_screen_driver.dir/M_/house-projects/Christmas/display-screen-ws2812b/FatFs_SPI/src/f_util.c.obj
 *fill*         0x1001338a        0x2 
 .rodata.FRESULT_str
                0x1001338c       0x50 CMakeFiles/gif_screen_driver.dir/M_/house-projects/Christmas/display-screen-ws2812b/FatFs_SPI/src/f_util.c.obj
 .rodata.my_printf.str1.4
                0x100133dc        0x3 CMakeFiles/gif_screen_driver.dir/M_/house-projects/Christmas/display-screen-ws2812b/FatFs_SPI/src/my_debug.c.obj
 *fill*         0x100133df        0x1 
 .rodata.my_assert_func.str1.4
                0x100133e0       0x39 CMakeFiles/gif_screen_driver.dir/M_/house-projects/Christmas/display-screen-ws2812b/FatFs_SPI/src/my_debug.c.obj
 *fill*         0x10013419        0x3 
 .rodata.dma_claim_unused_channel.str1.4
                0x1001341c       0x1e CMakeFiles/gif_screen_driver.dir/C_/VSARM/sdk/pico/pico-sdk/src/rp2_common/hardware_dma/dma.c.obj
 *fill*         0x1001343a        0x2 
 .rodata._global_impure_ptr
                0x1001343c        0x4 c:/vsarm/armcc/102021~1.10/bin/../lib/gcc/arm-none-eabi/10.3.1/../../../../arm-none-eabi/lib/thumb/v6-m/nofp\libg.a(lib_a-impure.o)
                0x1001343c                _global_impure_ptr
                0x10013440                . = ALIGN (0x4)
 *(SORT_BY_ALIGNMENT(SORT_BY_NAME(.flashdata*)))
                0x10013440                . = ALIGN (0x4)

.ARM.extab
 *(.ARM.extab* .gnu.linkonce.armextab.*)
                0x10013440                __exidx_start = .

.ARM.exidx
 *(.ARM.exidx* .gnu.linkonce.armexidx.*)
                0x10013440                __exidx_end = .
                0x10013440                . = ALIGN (0x4)
                0x10013440                __binary_info_start = .

.binary_info    0x10013440       0x24
 *(.binary_info.keep.*)
 .binary_info.keep.__bi_ptr22
                0x10013440        0x4 CMakeFiles/gif_screen_driver.dir/C_/VSARM/sdk/pico/pico-sdk/src/rp2_common/pico_standard_link/binary_info.c.obj
 .binary_info.keep.__bi_ptr30
                0x10013444        0x4 CMakeFiles/gif_screen_driver.dir/C_/VSARM/sdk/pico/pico-sdk/src/rp2_common/pico_standard_link/binary_info.c.obj
 .binary_info.keep.__bi_ptr38
                0x10013448        0x4 CMakeFiles/gif_screen_driver.dir/C_/VSARM/sdk/pico/pico-sdk/src/rp2_common/pico_standard_link/binary_info.c.obj
 .binary_info.keep.__bi_ptr44
                0x1001344c        0x4 CMakeFiles/gif_screen_driver.dir/C_/VSARM/sdk/pico/pico-sdk/src/rp2_common/pico_standard_link/binary_info.c.obj
 .binary_info.keep.__bi_ptr50
                0x10013450        0x4 CMakeFiles/gif_screen_driver.dir/C_/VSARM/sdk/pico/pico-sdk/src/rp2_common/pico_standard_link/binary_info.c.obj
 .binary_info.keep.__bi_ptr56
                0x10013454        0x4 CMakeFiles/gif_screen_driver.dir/C_/VSARM/sdk/pico/pico-sdk/src/rp2_common/pico_standard_link/binary_info.c.obj
 .binary_info.keep.__bi_ptr75
                0x10013458        0x4 CMakeFiles/gif_screen_driver.dir/C_/VSARM/sdk/pico/pico-sdk/src/rp2_common/pico_standard_link/binary_info.c.obj
 .binary_info.keep.__bi_ptr81
                0x1001345c        0x4 CMakeFiles/gif_screen_driver.dir/C_/VSARM/sdk/pico/pico-sdk/src/rp2_common/pico_standard_link/binary_info.c.obj
 *(.binary_info.*)
 .binary_info.__bi_ptr182
                0x10013460        0x4 CMakeFiles/gif_screen_driver.dir/C_/VSARM/sdk/pico/pico-sdk/src/rp2_common/pico_stdio_usb/stdio_usb.c.obj
                0x10013464                __binary_info_end = .

.rel.dyn        0x10013464        0x0
 .rel.iplt      0x10013464        0x0 c:/vsarm/armcc/102021~1.10/bin/../lib/gcc/arm-none-eabi/10.3.1/thumb/v6-m/nofp/crtbegin.o
                0x10013464                . = ALIGN (0x4)

.ram_vector_table
                0x20000000       0xc0
 *(.ram_vector_table)
 .ram_vector_table
                0x20000000       0xc0 CMakeFiles/gif_screen_driver.dir/C_/VSARM/sdk/pico/pico-sdk/src/rp2_common/pico_runtime/runtime.c.obj
                0x20000000                ram_vector_table

.data           0x200000c0     0x1b58 load address 0x10013464
                0x200000c0                __data_start__ = .
 *(vtable)
 *(.time_critical*)
 .time_critical.sem_available
                0x200000c0        0x6 CMakeFiles/gif_screen_driver.dir/C_/VSARM/sdk/pico/pico-sdk/src/common/pico_sync/sem.c.obj
                0x200000c0                sem_available
 .time_critical.sem_acquire_block_until
                0x200000c6       0x5e CMakeFiles/gif_screen_driver.dir/C_/VSARM/sdk/pico/pico-sdk/src/common/pico_sync/sem.c.obj
                0x200000c6                sem_acquire_block_until
 .time_critical.sem_acquire_timeout_ms
                0x20000124       0x68 CMakeFiles/gif_screen_driver.dir/C_/VSARM/sdk/pico/pico-sdk/src/common/pico_sync/sem.c.obj
                0x20000124                sem_acquire_timeout_ms
 .time_critical.sem_release
                0x2000018c       0x4a CMakeFiles/gif_screen_driver.dir/C_/VSARM/sdk/pico/pico-sdk/src/common/pico_sync/sem.c.obj
                0x2000018c                sem_release
 *fill*         0x200001d6        0x2 
 .time_critical.sem_reset
                0x200001d8       0x68 CMakeFiles/gif_screen_driver.dir/C_/VSARM/sdk/pico/pico-sdk/src/common/pico_sync/sem.c.obj
                0x200001d8                sem_reset
 .time_critical.mutex_enter_blocking
                0x20000240       0x48 CMakeFiles/gif_screen_driver.dir/C_/VSARM/sdk/pico/pico-sdk/src/common/pico_sync/mutex.c.obj
                0x20000240                mutex_enter_blocking
 .time_critical.mutex_try_enter
                0x20000288       0x46 CMakeFiles/gif_screen_driver.dir/C_/VSARM/sdk/pico/pico-sdk/src/common/pico_sync/mutex.c.obj
                0x20000288                mutex_try_enter
 *fill*         0x200002ce        0x2 
 .time_critical.mutex_enter_block_until
                0x200002d0       0x8c CMakeFiles/gif_screen_driver.dir/C_/VSARM/sdk/pico/pico-sdk/src/common/pico_sync/mutex.c.obj
                0x200002d0                mutex_enter_block_until
 .time_critical.mutex_try_enter_block_until
                0x2000035c       0x34 CMakeFiles/gif_screen_driver.dir/C_/VSARM/sdk/pico/pico-sdk/src/common/pico_sync/mutex.c.obj
                0x2000035c                mutex_try_enter_block_until
 .time_critical.mutex_enter_timeout_ms
                0x20000390       0x68 CMakeFiles/gif_screen_driver.dir/C_/VSARM/sdk/pico/pico-sdk/src/common/pico_sync/mutex.c.obj
                0x20000390                mutex_enter_timeout_ms
 .time_critical.mutex_exit
                0x200003f8       0x4c CMakeFiles/gif_screen_driver.dir/C_/VSARM/sdk/pico/pico-sdk/src/common/pico_sync/mutex.c.obj
                0x200003f8                mutex_exit
 .time_critical.flash_init_boot2_copyout
                0x20000444       0x30 CMakeFiles/gif_screen_driver.dir/C_/VSARM/sdk/pico/pico-sdk/src/rp2_common/hardware_flash/flash.c.obj
 .time_critical.flash_enable_xip_via_boot2
                0x20000474       0x10 CMakeFiles/gif_screen_driver.dir/C_/VSARM/sdk/pico/pico-sdk/src/rp2_common/hardware_flash/flash.c.obj
 .time_critical.flash_cs_force
                0x20000484       0x28 CMakeFiles/gif_screen_driver.dir/C_/VSARM/sdk/pico/pico-sdk/src/rp2_common/hardware_flash/flash.c.obj
 .time_critical.flash_do_cmd
                0x200004ac       0xd8 CMakeFiles/gif_screen_driver.dir/C_/VSARM/sdk/pico/pico-sdk/src/rp2_common/hardware_flash/flash.c.obj
                0x200004ac                flash_do_cmd
 .time_critical.reset_non_control_endpoints
                0x20000584       0x40 CMakeFiles/gif_screen_driver.dir/C_/VSARM/sdk/pico/pico-sdk/lib/tinyusb/src/portable/raspberrypi/rp2040/dcd_rp2040.c.obj
 .time_critical.hw_handle_buff_status
                0x200005c4       0xa4 CMakeFiles/gif_screen_driver.dir/C_/VSARM/sdk/pico/pico-sdk/lib/tinyusb/src/portable/raspberrypi/rp2040/dcd_rp2040.c.obj
 .time_critical.dcd_rp2040_irq
                0x20000668      0x1cc CMakeFiles/gif_screen_driver.dir/C_/VSARM/sdk/pico/pico-sdk/lib/tinyusb/src/portable/raspberrypi/rp2040/dcd_rp2040.c.obj
 .time_critical.e15_is_bulkin_ep
                0x20000834       0x2c CMakeFiles/gif_screen_driver.dir/C_/VSARM/sdk/pico/pico-sdk/lib/tinyusb/src/portable/raspberrypi/rp2040/rp2040_usb.c.obj
 .time_critical.e15_is_critical_frame_period
                0x20000860       0x30 CMakeFiles/gif_screen_driver.dir/C_/VSARM/sdk/pico/pico-sdk/lib/tinyusb/src/portable/raspberrypi/rp2040/rp2040_usb.c.obj
 .time_critical.prepare_ep_buffer
                0x20000890       0x70 CMakeFiles/gif_screen_driver.dir/C_/VSARM/sdk/pico/pico-sdk/lib/tinyusb/src/portable/raspberrypi/rp2040/rp2040_usb.c.obj
 .time_critical.sync_ep_buffer
                0x20000900       0x80 CMakeFiles/gif_screen_driver.dir/C_/VSARM/sdk/pico/pico-sdk/lib/tinyusb/src/portable/raspberrypi/rp2040/rp2040_usb.c.obj
 .time_critical._hw_endpoint_xfer_sync
                0x20000980       0x28 CMakeFiles/gif_screen_driver.dir/C_/VSARM/sdk/pico/pico-sdk/lib/tinyusb/src/portable/raspberrypi/rp2040/rp2040_usb.c.obj
 .time_critical.hw_endpoint_reset_transfer
                0x200009a8        0xc CMakeFiles/gif_screen_driver.dir/C_/VSARM/sdk/pico/pico-sdk/lib/tinyusb/src/portable/raspberrypi/rp2040/rp2040_usb.c.obj
                0x200009a8                hw_endpoint_reset_transfer
 .time_critical._hw_endpoint_buffer_control_update32
                0x200009b4       0x58 CMakeFiles/gif_screen_driver.dir/C_/VSARM/sdk/pico/pico-sdk/lib/tinyusb/src/portable/raspberrypi/rp2040/rp2040_usb.c.obj
                0x200009b4                _hw_endpoint_buffer_control_update32
 .time_critical.hw_endpoint_start_next_buffer
                0x20000a0c       0x88 CMakeFiles/gif_screen_driver.dir/C_/VSARM/sdk/pico/pico-sdk/lib/tinyusb/src/portable/raspberrypi/rp2040/rp2040_usb.c.obj
                0x20000a0c                hw_endpoint_start_next_buffer
 .time_critical.hw_endpoint_xfer_continue
                0x20000a94       0x50 CMakeFiles/gif_screen_driver.dir/C_/VSARM/sdk/pico/pico-sdk/lib/tinyusb/src/portable/raspberrypi/rp2040/rp2040_usb.c.obj
                0x20000a94                hw_endpoint_xfer_continue
 .time_critical.tinyusb
                0x20000ae4      0x200 CMakeFiles/gif_screen_driver.dir/C_/VSARM/sdk/pico/pico-sdk/lib/tinyusb/src/device/usbd.c.obj
                0x20000ae4                dcd_event_handler
 .time_critical.spi_irq_handler_1
                0x20000ce4       0x10 CMakeFiles/gif_screen_driver.dir/M_/house-projects/Christmas/display-screen-ws2812b/FatFs_SPI/sd_driver/spi.c.obj
 .time_critical.spi_irq_handler_0
                0x20000cf4       0x10 CMakeFiles/gif_screen_driver.dir/M_/house-projects/Christmas/display-screen-ws2812b/FatFs_SPI/sd_driver/spi.c.obj
 .time_critical.spi_transfer
                0x20000d04      0x1bc CMakeFiles/gif_screen_driver.dir/M_/house-projects/Christmas/display-screen-ws2812b/FatFs_SPI/sd_driver/spi.c.obj
                0x20000d04                spi_transfer
 .time_critical.spi_write_blocking
                0x20000ec0       0x3a CMakeFiles/gif_screen_driver.dir/C_/VSARM/sdk/pico/pico-sdk/src/rp2_common/hardware_spi/spi.c.obj
                0x20000ec0                spi_write_blocking
 *(.text*)
 *fill*         0x20000efa        0x2 
 .text          0x20000efc        0x4 c:/vsarm/armcc/102021~1.10/bin/../lib/gcc/arm-none-eabi/10.3.1/thumb/v6-m/nofp\libgcc.a(_dvmd_tls.o)
                0x20000efc                __aeabi_idiv0
                0x20000efc                __aeabi_ldiv0
 .text.__stub   0x20000f00       0xb0 linker stubs
                0x20000fb0                . = ALIGN (0x4)
 *(.rodata*)
                0x20000fb0                . = ALIGN (0x4)
 *(.data*)
 .data.all_on_col_data
                0x20000fb0        0x6 CMakeFiles/gif_screen_driver.dir/gif_screen_driver.c.obj
                0x20000fb0                all_on_col_data
 .data.frame_delay_count
                0x20000fb6        0x2 CMakeFiles/gif_screen_driver.dir/gif_screen_driver.c.obj
                0x20000fb6                frame_delay_count
 .data.sd_cards
                0x20000fb8      0x2b8 CMakeFiles/gif_screen_driver.dir/hw_config.c.obj
 .data.spis     0x20001270       0x44 CMakeFiles/gif_screen_driver.dir/hw_config.c.obj
 .data.striped_spin_lock_num
                0x200012b4        0x1 CMakeFiles/gif_screen_driver.dir/C_/VSARM/sdk/pico/pico-sdk/src/rp2_common/hardware_sync/sync.c.obj
 *fill*         0x200012b5        0x3 
 .data          0x200012b8       0x48 CMakeFiles/gif_screen_driver.dir/C_/VSARM/sdk/pico/pico-sdk/src/rp2_common/hardware_irq/irq_handler_chain.S.obj
                0x200012b8                irq_handler_chain_slots
                0x200012e8                irq_handler_chain_first_slot
                0x200012f2                irq_handler_chain_remove_tail
 .data.default_alarm_pool
                0x20001300       0x18 CMakeFiles/gif_screen_driver.dir/C_/VSARM/sdk/pico/pico-sdk/src/common/pico_time/time.c.obj
 .data.default_alarm_pool_heap
                0x20001318       0x10 CMakeFiles/gif_screen_driver.dir/C_/VSARM/sdk/pico/pico-sdk/src/common/pico_time/time.c.obj
 *fill*         0x20001328        0x8 
 .data.aeabi_bits_funcs
                0x20001330       0x10 CMakeFiles/gif_screen_driver.dir/C_/VSARM/sdk/pico/pico-sdk/src/rp2_common/pico_bit_ops/bit_ops_aeabi.S.obj
                0x20001330                aeabi_bits_funcs
                0x20001340                aeabi_bits_funcs_end
 .data.aeabi_mem_funcs
                0x20001340       0x10 CMakeFiles/gif_screen_driver.dir/C_/VSARM/sdk/pico/pico-sdk/src/rp2_common/pico_mem_ops/mem_ops_aeabi.S.obj
                0x20001340                aeabi_mem_funcs
                0x20001350                aeabi_mem_funcs_end
 .data.stdio_usb
                0x20001350       0x18 CMakeFiles/gif_screen_driver.dir/C_/VSARM/sdk/pico/pico-sdk/src/rp2_common/pico_stdio_usb/stdio_usb.c.obj
                0x20001350                stdio_usb
 .data.ep_dir_string
                0x20001368        0x8 CMakeFiles/gif_screen_driver.dir/C_/VSARM/sdk/pico/pico-sdk/lib/tinyusb/src/portable/raspberrypi/rp2040/rp2040_usb.c.obj
                0x20001368                ep_dir_string
 .data._usbd_qdef
                0x20001370       0x1c CMakeFiles/gif_screen_driver.dir/C_/VSARM/sdk/pico/pico-sdk/lib/tinyusb/src/device/usbd.c.obj
                0x20001370                _usbd_qdef
 .data._usbd_rhport
                0x2000138c        0x1 CMakeFiles/gif_screen_driver.dir/C_/VSARM/sdk/pico/pico-sdk/lib/tinyusb/src/device/usbd.c.obj
 *fill*         0x2000138d        0x3 
 .data.i2c0_inst
                0x20001390        0x8 CMakeFiles/gif_screen_driver.dir/C_/VSARM/sdk/pico/pico-sdk/src/rp2_common/hardware_i2c/i2c.c.obj
                0x20001390                i2c0_inst
 .data.i2c1_inst
                0x20001398        0x8 CMakeFiles/gif_screen_driver.dir/C_/VSARM/sdk/pico/pico-sdk/src/rp2_common/hardware_i2c/i2c.c.obj
                0x20001398                i2c1_inst
 .data.dummy.10
                0x200013a0        0x1 CMakeFiles/gif_screen_driver.dir/M_/house-projects/Christmas/display-screen-ws2812b/FatFs_SPI/sd_driver/spi.c.obj
 .data.irqShared
                0x200013a1        0x1 CMakeFiles/gif_screen_driver.dir/M_/house-projects/Christmas/display-screen-ws2812b/FatFs_SPI/sd_driver/spi.c.obj
 *fill*         0x200013a2        0x2 
 .data._impure_ptr
                0x200013a4        0x4 c:/vsarm/armcc/102021~1.10/bin/../lib/gcc/arm-none-eabi/10.3.1/../../../../arm-none-eabi/lib/thumb/v6-m/nofp\libg.a(lib_a-impure.o)
                0x200013a4                _impure_ptr
 .data.impure_data
                0x200013a8      0x428 c:/vsarm/armcc/102021~1.10/bin/../lib/gcc/arm-none-eabi/10.3.1/../../../../arm-none-eabi/lib/thumb/v6-m/nofp\libg.a(lib_a-impure.o)
 .data.__malloc_av_
                0x200017d0      0x408 c:/vsarm/armcc/102021~1.10/bin/../lib/gcc/arm-none-eabi/10.3.1/../../../../arm-none-eabi/lib/thumb/v6-m/nofp\libg.a(lib_a-mallocr.o)
                0x200017d0                __malloc_av_
 .data.__malloc_sbrk_base
                0x20001bd8        0x4 c:/vsarm/armcc/102021~1.10/bin/../lib/gcc/arm-none-eabi/10.3.1/../../../../arm-none-eabi/lib/thumb/v6-m/nofp\libg.a(lib_a-mallocr.o)
                0x20001bd8                __malloc_sbrk_base
 .data.__malloc_trim_threshold
                0x20001bdc        0x4 c:/vsarm/armcc/102021~1.10/bin/../lib/gcc/arm-none-eabi/10.3.1/../../../../arm-none-eabi/lib/thumb/v6-m/nofp\libg.a(lib_a-mallocr.o)
                0x20001bdc                __malloc_trim_threshold
                0x20001be0                . = ALIGN (0x4)
 *(.after_data.*)
                0x20001be0                . = ALIGN (0x4)
                0x20001be0                PROVIDE (__mutex_array_start = .)
 *(SORT_BY_NAME(.mutex_array.*))
 *(.mutex_array)
 .mutex_array   0x20001be0        0x8 CMakeFiles/gif_screen_driver.dir/C_/VSARM/sdk/pico/pico-sdk/src/rp2_common/pico_malloc/pico_malloc.c.obj
 .mutex_array   0x20001be8        0x8 CMakeFiles/gif_screen_driver.dir/C_/VSARM/sdk/pico/pico-sdk/src/rp2_common/pico_stdio/stdio.c.obj
 .mutex_array   0x20001bf0        0x8 CMakeFiles/gif_screen_driver.dir/M_/house-projects/Christmas/display-screen-ws2812b/FatFs_SPI/sd_driver/spi.c.obj
 .mutex_array   0x20001bf8        0x8 CMakeFiles/gif_screen_driver.dir/M_/house-projects/Christmas/display-screen-ws2812b/FatFs_SPI/sd_driver/sd_card.c.obj
                0x20001c00                PROVIDE (__mutex_array_end = .)
                0x20001c00                . = ALIGN (0x4)
                0x20001c00                PROVIDE (__preinit_array_start = .)
 *(SORT_BY_NAME(.preinit_array.*))
 .preinit_array.00001
                0x20001c00        0x4 CMakeFiles/gif_screen_driver.dir/C_/VSARM/sdk/pico/pico-sdk/src/rp2_common/pico_mem_ops/mem_ops_aeabi.S.obj
 .preinit_array.00010
                0x20001c04        0x4 CMakeFiles/gif_screen_driver.dir/C_/VSARM/sdk/pico/pico-sdk/src/rp2_common/pico_bit_ops/bit_ops_aeabi.S.obj
 .preinit_array.00020
                0x20001c08        0x4 CMakeFiles/gif_screen_driver.dir/C_/VSARM/sdk/pico/pico-sdk/src/rp2_common/pico_double/double_aeabi.S.obj
 .preinit_array.00020
                0x20001c0c        0x4 CMakeFiles/gif_screen_driver.dir/C_/VSARM/sdk/pico/pico-sdk/src/rp2_common/pico_float/float_aeabi.S.obj
 *(.preinit_array)
                0x20001c10                PROVIDE (__preinit_array_end = .)
                0x20001c10                . = ALIGN (0x4)
                0x20001c10                PROVIDE (__init_array_start = .)
 *(SORT_BY_NAME(.init_array.*))
 *(.init_array)
 .init_array    0x20001c10        0x4 c:/vsarm/armcc/102021~1.10/bin/../lib/gcc/arm-none-eabi/10.3.1/thumb/v6-m/nofp/crtbegin.o
 .init_array    0x20001c14        0x4 CMakeFiles/gif_screen_driver.dir/C_/VSARM/sdk/pico/pico-sdk/src/rp2_common/pico_unique_id/unique_id.c.obj
                0x20001c18                PROVIDE (__init_array_end = .)
                0x20001c18                . = ALIGN (0x4)
                [!provide]                PROVIDE (__fini_array_start = .)
 *(SORT_BY_NAME(.fini_array.*))
 *(.fini_array)
                [!provide]                PROVIDE (__fini_array_end = .)
 *(.jcr)
                0x20001c18                . = ALIGN (0x4)
                0x20001c18                __data_end__ = .
                0x10013464                __etext = LOADADDR (.data)

.igot.plt       0x20001c18        0x0 load address 0x10014fbc
 .igot.plt      0x20001c18        0x0 c:/vsarm/armcc/102021~1.10/bin/../lib/gcc/arm-none-eabi/10.3.1/thumb/v6-m/nofp/crtbegin.o

.uninitialized_data
                0x20001c18        0x0 load address 0x10014fbc
                0x20001c18                . = ALIGN (0x4)
 *(.uninitialized_data*)

.scratch_x      0x20040000        0x0 load address 0x10014fbc
                0x20040000                __scratch_x_start__ = .
 *(.scratch_x.*)
                0x20040000                . = ALIGN (0x4)
                0x20040000                __scratch_x_end__ = .
                0x10014fbc                __scratch_x_source__ = LOADADDR (.scratch_x)

.scratch_y      0x20041000        0x0 load address 0x10014fbc
                0x20041000                __scratch_y_start__ = .
 *(.scratch_y.*)
                0x20041000                . = ALIGN (0x4)
                0x20041000                __scratch_y_end__ = .
                0x10014fbc                __scratch_y_source__ = LOADADDR (.scratch_y)

.bss            0x20001c18     0x1310
                0x20001c18                . = ALIGN (0x4)
                0x20001c18                __bss_start__ = .
 *(SORT_BY_ALIGNMENT(SORT_BY_NAME(.bss*)))
 .bss.default_alarm_pool_entries
                0x20001c18      0x100 CMakeFiles/gif_screen_driver.dir/C_/VSARM/sdk/pico/pico-sdk/src/common/pico_time/time.c.obj
 .bss.dir       0x20001d18       0x58 CMakeFiles/gif_screen_driver.dir/gif_screen_driver.c.obj
                0x20001d18                dir
 .bss.fno       0x20001d70      0x120 CMakeFiles/gif_screen_driver.dir/gif_screen_driver.c.obj
                0x20001d70                fno
 .bss.fp        0x20001e90      0x260 CMakeFiles/gif_screen_driver.dir/gif_screen_driver.c.obj
                0x20001e90                fp
 .bss.frame_alarm
                0x200020f0       0x18 CMakeFiles/gif_screen_driver.dir/gif_screen_driver.c.obj
                0x200020f0                frame_alarm
 .bss.last_avail_time.2
                0x20002108        0x8 CMakeFiles/gif_screen_driver.dir/C_/VSARM/sdk/pico/pico-sdk/src/rp2_common/pico_stdio_usb/stdio_usb.c.obj
 .bss           0x20002110       0x1c c:/vsarm/armcc/102021~1.10/bin/../lib/gcc/arm-none-eabi/10.3.1/thumb/v6-m/nofp/crtbegin.o
 .bss.FatFs     0x2000212c        0x8 CMakeFiles/gif_screen_driver.dir/M_/house-projects/Christmas/display-screen-ws2812b/FatFs_SPI/ff15/source/ff.c.obj
 .bss.Files     0x20002134      0x100 CMakeFiles/gif_screen_driver.dir/M_/house-projects/Christmas/display-screen-ws2812b/FatFs_SPI/ff15/source/ff.c.obj
 .bss.__lock___malloc_recursive_mutex
                0x20002234        0x1 c:/vsarm/armcc/102021~1.10/bin/../lib/gcc/arm-none-eabi/10.3.1/../../../../arm-none-eabi/lib/thumb/v6-m/nofp\libg.a(lib_a-lock.o)
                0x20002234                __lock___malloc_recursive_mutex
 *fill*         0x20002235        0x3 
 .bss.__lock___sfp_recursive_mutex
                0x20002238        0x1 c:/vsarm/armcc/102021~1.10/bin/../lib/gcc/arm-none-eabi/10.3.1/../../../../arm-none-eabi/lib/thumb/v6-m/nofp\libg.a(lib_a-lock.o)
                0x20002238                __lock___sfp_recursive_mutex
 *fill*         0x20002239        0x3 
 .bss.__lock___sinit_recursive_mutex
                0x2000223c        0x1 c:/vsarm/armcc/102021~1.10/bin/../lib/gcc/arm-none-eabi/10.3.1/../../../../arm-none-eabi/lib/thumb/v6-m/nofp\libg.a(lib_a-lock.o)
                0x2000223c                __lock___sinit_recursive_mutex
 *fill*         0x2000223d        0x3 
 .bss.__malloc_current_mallinfo
                0x20002240       0x28 c:/vsarm/armcc/102021~1.10/bin/../lib/gcc/arm-none-eabi/10.3.1/../../../../arm-none-eabi/lib/thumb/v6-m/nofp\libg.a(lib_a-mallocr.o)
                0x20002240                __malloc_current_mallinfo
 .bss.__malloc_max_sbrked_mem
                0x20002268        0x4 c:/vsarm/armcc/102021~1.10/bin/../lib/gcc/arm-none-eabi/10.3.1/../../../../arm-none-eabi/lib/thumb/v6-m/nofp\libg.a(lib_a-mallocr.o)
                0x20002268                __malloc_max_sbrked_mem
 .bss.__malloc_max_total_mem
                0x2000226c        0x4 c:/vsarm/armcc/102021~1.10/bin/../lib/gcc/arm-none-eabi/10.3.1/../../../../arm-none-eabi/lib/thumb/v6-m/nofp\libg.a(lib_a-mallocr.o)
                0x2000226c                __malloc_max_total_mem
 .bss.__malloc_top_pad
                0x20002270        0x4 c:/vsarm/armcc/102021~1.10/bin/../lib/gcc/arm-none-eabi/10.3.1/../../../../arm-none-eabi/lib/thumb/v6-m/nofp\libg.a(lib_a-mallocr.o)
                0x20002270                __malloc_top_pad
 .bss._app_driver
                0x20002274        0x4 CMakeFiles/gif_screen_driver.dir/C_/VSARM/sdk/pico/pico-sdk/lib/tinyusb/src/device/usbd.c.obj
 .bss._cdcd_itf
                0x20002278      0x2c8 CMakeFiles/gif_screen_driver.dir/C_/VSARM/sdk/pico/pico-sdk/lib/tinyusb/src/class/cdc/cdc_device.c.obj
 .bss._ctrl_xfer
                0x20002540       0x14 CMakeFiles/gif_screen_driver.dir/C_/VSARM/sdk/pico/pico-sdk/lib/tinyusb/src/device/usbd_control.c.obj
 .bss._ubsd_mutexdef
                0x20002554        0x8 CMakeFiles/gif_screen_driver.dir/C_/VSARM/sdk/pico/pico-sdk/lib/tinyusb/src/device/usbd.c.obj
 .bss._usbd_ctrl_buf
                0x2000255c       0x40 CMakeFiles/gif_screen_driver.dir/C_/VSARM/sdk/pico/pico-sdk/lib/tinyusb/src/device/usbd_control.c.obj
 .bss._usbd_dev
                0x2000259c       0x53 CMakeFiles/gif_screen_driver.dir/C_/VSARM/sdk/pico/pico-sdk/lib/tinyusb/src/device/usbd.c.obj
 *fill*         0x200025ef        0x1 
 .bss._usbd_mutex
                0x200025f0        0x4 CMakeFiles/gif_screen_driver.dir/C_/VSARM/sdk/pico/pico-sdk/lib/tinyusb/src/device/usbd.c.obj
 .bss._usbd_q   0x200025f4        0x4 CMakeFiles/gif_screen_driver.dir/C_/VSARM/sdk/pico/pico-sdk/lib/tinyusb/src/device/usbd.c.obj
 .bss._usbd_qdef_buf
                0x200025f8       0xc0 CMakeFiles/gif_screen_driver.dir/C_/VSARM/sdk/pico/pico-sdk/lib/tinyusb/src/device/usbd.c.obj
                0x200025f8                _usbd_qdef_buf
 .bss.alarm_callbacks
                0x200026b8       0x10 CMakeFiles/gif_screen_driver.dir/C_/VSARM/sdk/pico/pico-sdk/src/rp2_common/hardware_timer/timer.c.obj
 .bss.boot2_copyout
                0x200026c8      0x100 CMakeFiles/gif_screen_driver.dir/C_/VSARM/sdk/pico/pico-sdk/src/rp2_common/hardware_flash/flash.c.obj
 .bss.cc_lookup
                0x200027c8        0x4 CMakeFiles/gif_screen_driver.dir/gifdec.c.obj
 .bss.chars_available_callback
                0x200027cc        0x4 CMakeFiles/gif_screen_driver.dir/C_/VSARM/sdk/pico/pico-sdk/src/rp2_common/pico_stdio_usb/stdio_usb.c.obj
 .bss.chars_available_param
                0x200027d0        0x4 CMakeFiles/gif_screen_driver.dir/C_/VSARM/sdk/pico/pico-sdk/src/rp2_common/pico_stdio_usb/stdio_usb.c.obj
 .bss.claimed   0x200027d4        0x4 CMakeFiles/gif_screen_driver.dir/C_/VSARM/sdk/pico/pico-sdk/src/rp2_common/hardware_sync/sync.c.obj
 .bss.col_data  0x200027d8        0x4 CMakeFiles/gif_screen_driver.dir/gif_screen_driver.c.obj
                0x200027d8                col_data
 .bss.configured_freq
                0x200027dc       0x28 CMakeFiles/gif_screen_driver.dir/C_/VSARM/sdk/pico/pico-sdk/src/rp2_common/hardware_clocks/clocks.c.obj
 .bss.core_0_alarm
                0x20002804        0x4 CMakeFiles/gif_screen_driver.dir/gif_screen_driver.c.obj
                0x20002804                core_0_alarm
 .bss.cur_gif   0x20002808        0x4 CMakeFiles/gif_screen_driver.dir/gif_screen_driver.c.obj
                0x20002808                cur_gif
 .bss.default_alarm_pool_entry_ids_high
                0x2000280c       0x10 CMakeFiles/gif_screen_driver.dir/C_/VSARM/sdk/pico/pico-sdk/src/common/pico_time/time.c.obj
 .bss.default_alarm_pool_heap_nodes
                0x2000281c       0x30 CMakeFiles/gif_screen_driver.dir/C_/VSARM/sdk/pico/pico-sdk/src/common/pico_time/time.c.obj
 .bss.desc_str.0
                0x2000284c       0x28 CMakeFiles/gif_screen_driver.dir/C_/VSARM/sdk/pico/pico-sdk/src/rp2_common/pico_stdio_usb/stdio_usb_descriptors.c.obj
 .bss.disp      0x20002874       0x14 CMakeFiles/gif_screen_driver.dir/gif_screen_driver.c.obj
                0x20002874                disp
 .bss.drivers   0x20002888        0x4 CMakeFiles/gif_screen_driver.dir/C_/VSARM/sdk/pico/pico-sdk/src/rp2_common/pico_stdio/stdio.c.obj
 .bss.e15_last_sof
                0x2000288c        0x4 CMakeFiles/gif_screen_driver.dir/C_/VSARM/sdk/pico/pico-sdk/lib/tinyusb/src/portable/raspberrypi/rp2040/rp2040_usb.c.obj
                0x2000288c                e15_last_sof
 .bss.errno     0x20002890        0x4 c:/vsarm/armcc/102021~1.10/bin/../lib/gcc/arm-none-eabi/10.3.1/../../../../arm-none-eabi/lib/thumb/v6-m/nofp\libg.a(lib_a-reent.o)
                0x20002890                errno
 .bss.fill_buff
                0x20002894        0x4 CMakeFiles/gif_screen_driver.dir/gif_screen_driver.c.obj
                0x20002894                fill_buff
 .bss.filter    0x20002898        0x4 CMakeFiles/gif_screen_driver.dir/C_/VSARM/sdk/pico/pico-sdk/src/rp2_common/pico_stdio/stdio.c.obj
 .bss.frame_col_data
                0x2000289c        0x6 CMakeFiles/gif_screen_driver.dir/gif_screen_driver.c.obj
                0x2000289c                frame_col_data
 *fill*         0x200028a2        0x2 
 .bss.heap_end.1
                0x200028a4        0x4 CMakeFiles/gif_screen_driver.dir/C_/VSARM/sdk/pico/pico-sdk/src/rp2_common/pico_runtime/runtime.c.obj
 .bss.hw_endpoints
                0x200028a8      0x400 CMakeFiles/gif_screen_driver.dir/C_/VSARM/sdk/pico/pico-sdk/lib/tinyusb/src/portable/raspberrypi/rp2040/dcd_rp2040.c.obj
 .bss.load_value
                0x20002ca8        0x4 CMakeFiles/gif_screen_driver.dir/C_/VSARM/sdk/pico/pico-sdk/src/rp2_common/hardware_watchdog/watchdog.c.obj
 .bss.next_buffer_ptr
                0x20002cac        0x4 CMakeFiles/gif_screen_driver.dir/C_/VSARM/sdk/pico/pico-sdk/lib/tinyusb/src/portable/raspberrypi/rp2040/dcd_rp2040.c.obj
 .bss.one_shot_timer_crit_sec
                0x20002cb0        0x8 CMakeFiles/gif_screen_driver.dir/C_/VSARM/sdk/pico/pico-sdk/src/rp2_common/pico_stdio_usb/stdio_usb.c.obj
 .bss.output_buff
                0x20002cb8        0x4 CMakeFiles/gif_screen_driver.dir/gif_screen_driver.c.obj
                0x20002cb8                output_buff
 .bss.pools     0x20002cbc       0x10 CMakeFiles/gif_screen_driver.dir/C_/VSARM/sdk/pico/pico-sdk/src/common/pico_time/time.c.obj
 .bss.retrieved_id
                0x20002ccc        0x8 CMakeFiles/gif_screen_driver.dir/C_/VSARM/sdk/pico/pico-sdk/src/rp2_common/pico_unique_id/unique_id.c.obj
 .bss.sd_table  0x20002cd4      0x100 CMakeFiles/gif_screen_driver.dir/C_/VSARM/sdk/pico/pico-sdk/src/rp2_common/pico_double/double_init_rom.c.obj
                0x20002cd4                sd_table
 .bss.sf_clz_func
                0x20002dd4        0x4 CMakeFiles/gif_screen_driver.dir/C_/VSARM/sdk/pico/pico-sdk/src/rp2_common/pico_double/double_init_rom.c.obj
                0x20002dd4                sf_clz_func
 .bss.sf_table  0x20002dd8      0x100 CMakeFiles/gif_screen_driver.dir/C_/VSARM/sdk/pico/pico-sdk/src/rp2_common/pico_float/float_init_rom.c.obj
                0x20002dd8                sf_table
 .bss.sleep_notifier
                0x20002ed8        0x4 CMakeFiles/gif_screen_driver.dir/C_/VSARM/sdk/pico/pico-sdk/src/common/pico_time/time.c.obj
 .bss.spi1_dma_channel
                0x20002edc        0x4 CMakeFiles/gif_screen_driver.dir/gif_screen_driver.c.obj
                0x20002edc                spi1_dma_channel
 .bss.spi1_dma_config
                0x20002ee0        0x4 CMakeFiles/gif_screen_driver.dir/gif_screen_driver.c.obj
                0x20002ee0                spi1_dma_config
 .bss.spi_irq_handler_p.6
                0x20002ee4        0x4 CMakeFiles/gif_screen_driver.dir/M_/house-projects/Christmas/display-screen-ws2812b/FatFs_SPI/sd_driver/spi.c.obj
 .bss.stdio_usb_mutex
                0x20002ee8        0x8 CMakeFiles/gif_screen_driver.dir/C_/VSARM/sdk/pico/pico-sdk/src/rp2_common/pico_stdio_usb/stdio_usb.c.obj
 .bss.target_hi
                0x20002ef0       0x10 CMakeFiles/gif_screen_driver.dir/C_/VSARM/sdk/pico/pico-sdk/src/rp2_common/hardware_timer/timer.c.obj
 .bss.usbd_serial_str
                0x20002f00       0x11 CMakeFiles/gif_screen_driver.dir/C_/VSARM/sdk/pico/pico-sdk/src/rp2_common/pico_stdio_usb/stdio_usb_descriptors.c.obj
 *fill*         0x20002f11        0x1 
 .bss.Fsid      0x20002f12        0x2 CMakeFiles/gif_screen_driver.dir/M_/house-projects/Christmas/display-screen-ws2812b/FatFs_SPI/ff15/source/ff.c.obj
 .bss._claimed  0x20002f14        0x2 CMakeFiles/gif_screen_driver.dir/C_/VSARM/sdk/pico/pico-sdk/src/rp2_common/hardware_dma/dma.c.obj
 .bss.gif_cycle_count
                0x20002f16        0x2 CMakeFiles/gif_screen_driver.dir/gif_screen_driver.c.obj
                0x20002f16                gif_cycle_count
 .bss.CurrVol   0x20002f18        0x1 CMakeFiles/gif_screen_driver.dir/M_/house-projects/Christmas/display-screen-ws2812b/FatFs_SPI/ff15/source/ff.c.obj
 .bss._app_driver_count
                0x20002f19        0x1 CMakeFiles/gif_screen_driver.dir/C_/VSARM/sdk/pico/pico-sdk/lib/tinyusb/src/device/usbd.c.obj
 .bss._sof_enable
                0x20002f1a        0x1 CMakeFiles/gif_screen_driver.dir/C_/VSARM/sdk/pico/pico-sdk/lib/tinyusb/src/portable/raspberrypi/rp2040/dcd_rp2040.c.obj
 .bss.boot2_copyout_valid
                0x20002f1b        0x1 CMakeFiles/gif_screen_driver.dir/C_/VSARM/sdk/pico/pico-sdk/src/rp2_common/hardware_flash/flash.c.obj
 .bss.claimed   0x20002f1c        0x1 CMakeFiles/gif_screen_driver.dir/C_/VSARM/sdk/pico/pico-sdk/src/rp2_common/hardware_timer/timer.c.obj
 .bss.initialized.0
                0x20002f1d        0x1 CMakeFiles/gif_screen_driver.dir/M_/house-projects/Christmas/display-screen-ws2812b/FatFs_SPI/sd_driver/sd_card.c.obj
 .bss.irqChannel1
                0x20002f1e        0x1 CMakeFiles/gif_screen_driver.dir/M_/house-projects/Christmas/display-screen-ws2812b/FatFs_SPI/sd_driver/spi.c.obj
 .bss.irq_hander_chain_free_slot_head
                0x20002f1f        0x1 CMakeFiles/gif_screen_driver.dir/C_/VSARM/sdk/pico/pico-sdk/src/rp2_common/hardware_irq/irq.c.obj
 .bss.itf_num   0x20002f20        0x1 CMakeFiles/gif_screen_driver.dir/C_/VSARM/sdk/pico/pico-sdk/src/rp2_common/pico_stdio_usb/reset_interface.c.obj
 .bss.low_priority_irq_num
                0x20002f21        0x1 CMakeFiles/gif_screen_driver.dir/C_/VSARM/sdk/pico/pico-sdk/src/rp2_common/pico_stdio_usb/stdio_usb.c.obj
 .bss.one_shot_timer_pending
                0x20002f22        0x1 CMakeFiles/gif_screen_driver.dir/C_/VSARM/sdk/pico/pico-sdk/src/rp2_common/pico_stdio_usb/stdio_usb.c.obj
 .bss.timer_callbacks_pending
                0x20002f23        0x1 CMakeFiles/gif_screen_driver.dir/C_/VSARM/sdk/pico/pico-sdk/src/rp2_common/hardware_timer/timer.c.obj
 .bss.user_irq_claimed
                0x20002f24        0x1 CMakeFiles/gif_screen_driver.dir/C_/VSARM/sdk/pico/pico-sdk/src/rp2_common/hardware_irq/irq.c.obj
 *(COMMON)
                0x20002f28                . = ALIGN (0x4)
 *fill*         0x20002f25        0x3 
                0x20002f28                __bss_end__ = .

.heap           0x20002f28      0x800
                0x20002f28                __end__ = .
                0x20002f28                end = __end__
 *(.heap*)
 .heap          0x20002f28      0x800 CMakeFiles/gif_screen_driver.dir/C_/VSARM/sdk/pico/pico-sdk/src/rp2_common/pico_standard_link/crt0.S.obj
                0x20003728                __HeapLimit = .

.stack1_dummy   0x20040000      0x800
 *(.stack1*)
 .stack1        0x20040000      0x800 CMakeFiles/gif_screen_driver.dir/C_/VSARM/sdk/pico/pico-sdk/src/rp2_common/pico_multicore/multicore.c.obj

.stack_dummy    0x20041000      0x800
 *(.stack*)
 .stack         0x20041000      0x800 CMakeFiles/gif_screen_driver.dir/C_/VSARM/sdk/pico/pico-sdk/src/rp2_common/pico_standard_link/crt0.S.obj

.flash_end      0x10014fbc        0x0
                0x10014fbc                PROVIDE (__flash_binary_end = .)
                0x20040000                __StackLimit = (ORIGIN (RAM) + LENGTH (RAM))
                0x20041000                __StackOneTop = (ORIGIN (SCRATCH_X) + LENGTH (SCRATCH_X))
                0x20042000                __StackTop = (ORIGIN (SCRATCH_Y) + LENGTH (SCRATCH_Y))
                0x20040800                __StackOneBottom = (__StackOneTop - SIZEOF (.stack1_dummy))
                0x20041800                __StackBottom = (__StackTop - SIZEOF (.stack_dummy))
                0x20042000                PROVIDE (__stack = __StackTop)
                0x00000001                ASSERT ((__StackLimit >= __HeapLimit), region RAM overflowed)
                0x00000001                ASSERT (((__binary_info_header_end - __logical_binary_start) <= 0x100), Binary info must be in first 256 bytes of the binary)
LOAD CMakeFiles/gif_screen_driver.dir/gif_screen_driver.c.obj
LOAD CMakeFiles/gif_screen_driver.dir/hw_config.c.obj
LOAD CMakeFiles/gif_screen_driver.dir/gifdec.c.obj
LOAD CMakeFiles/gif_screen_driver.dir/ssd1306.c.obj
LOAD CMakeFiles/gif_screen_driver.dir/C_/VSARM/sdk/pico/pico-sdk/src/rp2_common/pico_stdlib/stdlib.c.obj
LOAD CMakeFiles/gif_screen_driver.dir/C_/VSARM/sdk/pico/pico-sdk/src/rp2_common/hardware_gpio/gpio.c.obj
LOAD CMakeFiles/gif_screen_driver.dir/C_/VSARM/sdk/pico/pico-sdk/src/rp2_common/pico_platform/platform.c.obj
LOAD CMakeFiles/gif_screen_driver.dir/C_/VSARM/sdk/pico/pico-sdk/src/rp2_common/hardware_claim/claim.c.obj
LOAD CMakeFiles/gif_screen_driver.dir/C_/VSARM/sdk/pico/pico-sdk/src/rp2_common/hardware_sync/sync.c.obj
LOAD CMakeFiles/gif_screen_driver.dir/C_/VSARM/sdk/pico/pico-sdk/src/rp2_common/hardware_irq/irq.c.obj
LOAD CMakeFiles/gif_screen_driver.dir/C_/VSARM/sdk/pico/pico-sdk/src/rp2_common/hardware_irq/irq_handler_chain.S.obj
LOAD CMakeFiles/gif_screen_driver.dir/C_/VSARM/sdk/pico/pico-sdk/src/common/pico_sync/sem.c.obj
LOAD CMakeFiles/gif_screen_driver.dir/C_/VSARM/sdk/pico/pico-sdk/src/common/pico_sync/lock_core.c.obj
LOAD CMakeFiles/gif_screen_driver.dir/C_/VSARM/sdk/pico/pico-sdk/src/common/pico_sync/mutex.c.obj
LOAD CMakeFiles/gif_screen_driver.dir/C_/VSARM/sdk/pico/pico-sdk/src/common/pico_sync/critical_section.c.obj
LOAD CMakeFiles/gif_screen_driver.dir/C_/VSARM/sdk/pico/pico-sdk/src/common/pico_time/time.c.obj
LOAD CMakeFiles/gif_screen_driver.dir/C_/VSARM/sdk/pico/pico-sdk/src/common/pico_time/timeout_helper.c.obj
LOAD CMakeFiles/gif_screen_driver.dir/C_/VSARM/sdk/pico/pico-sdk/src/rp2_common/hardware_timer/timer.c.obj
LOAD CMakeFiles/gif_screen_driver.dir/C_/VSARM/sdk/pico/pico-sdk/src/common/pico_util/datetime.c.obj
LOAD CMakeFiles/gif_screen_driver.dir/C_/VSARM/sdk/pico/pico-sdk/src/common/pico_util/pheap.c.obj
LOAD CMakeFiles/gif_screen_driver.dir/C_/VSARM/sdk/pico/pico-sdk/src/common/pico_util/queue.c.obj
LOAD CMakeFiles/gif_screen_driver.dir/C_/VSARM/sdk/pico/pico-sdk/src/rp2_common/hardware_uart/uart.c.obj
LOAD CMakeFiles/gif_screen_driver.dir/C_/VSARM/sdk/pico/pico-sdk/src/rp2_common/hardware_clocks/clocks.c.obj
LOAD CMakeFiles/gif_screen_driver.dir/C_/VSARM/sdk/pico/pico-sdk/src/rp2_common/hardware_pll/pll.c.obj
LOAD CMakeFiles/gif_screen_driver.dir/C_/VSARM/sdk/pico/pico-sdk/src/rp2_common/hardware_vreg/vreg.c.obj
LOAD CMakeFiles/gif_screen_driver.dir/C_/VSARM/sdk/pico/pico-sdk/src/rp2_common/hardware_watchdog/watchdog.c.obj
LOAD CMakeFiles/gif_screen_driver.dir/C_/VSARM/sdk/pico/pico-sdk/src/rp2_common/hardware_xosc/xosc.c.obj
LOAD CMakeFiles/gif_screen_driver.dir/C_/VSARM/sdk/pico/pico-sdk/src/rp2_common/hardware_divider/divider.S.obj
LOAD CMakeFiles/gif_screen_driver.dir/C_/VSARM/sdk/pico/pico-sdk/src/rp2_common/pico_runtime/runtime.c.obj
LOAD CMakeFiles/gif_screen_driver.dir/C_/VSARM/sdk/pico/pico-sdk/src/rp2_common/pico_printf/printf.c.obj
LOAD CMakeFiles/gif_screen_driver.dir/C_/VSARM/sdk/pico/pico-sdk/src/rp2_common/pico_bit_ops/bit_ops_aeabi.S.obj
LOAD CMakeFiles/gif_screen_driver.dir/C_/VSARM/sdk/pico/pico-sdk/src/rp2_common/pico_bootrom/bootrom.c.obj
LOAD CMakeFiles/gif_screen_driver.dir/C_/VSARM/sdk/pico/pico-sdk/src/rp2_common/pico_divider/divider.S.obj
LOAD CMakeFiles/gif_screen_driver.dir/C_/VSARM/sdk/pico/pico-sdk/src/rp2_common/pico_double/double_aeabi.S.obj
LOAD CMakeFiles/gif_screen_driver.dir/C_/VSARM/sdk/pico/pico-sdk/src/rp2_common/pico_double/double_init_rom.c.obj
LOAD CMakeFiles/gif_screen_driver.dir/C_/VSARM/sdk/pico/pico-sdk/src/rp2_common/pico_double/double_math.c.obj
LOAD CMakeFiles/gif_screen_driver.dir/C_/VSARM/sdk/pico/pico-sdk/src/rp2_common/pico_double/double_v1_rom_shim.S.obj
LOAD CMakeFiles/gif_screen_driver.dir/C_/VSARM/sdk/pico/pico-sdk/src/rp2_common/pico_int64_ops/pico_int64_ops_aeabi.S.obj
LOAD CMakeFiles/gif_screen_driver.dir/C_/VSARM/sdk/pico/pico-sdk/src/rp2_common/pico_float/float_aeabi.S.obj
LOAD CMakeFiles/gif_screen_driver.dir/C_/VSARM/sdk/pico/pico-sdk/src/rp2_common/pico_float/float_init_rom.c.obj
LOAD CMakeFiles/gif_screen_driver.dir/C_/VSARM/sdk/pico/pico-sdk/src/rp2_common/pico_float/float_math.c.obj
LOAD CMakeFiles/gif_screen_driver.dir/C_/VSARM/sdk/pico/pico-sdk/src/rp2_common/pico_float/float_v1_rom_shim.S.obj
LOAD CMakeFiles/gif_screen_driver.dir/C_/VSARM/sdk/pico/pico-sdk/src/rp2_common/pico_malloc/pico_malloc.c.obj
LOAD CMakeFiles/gif_screen_driver.dir/C_/VSARM/sdk/pico/pico-sdk/src/rp2_common/pico_mem_ops/mem_ops_aeabi.S.obj
LOAD CMakeFiles/gif_screen_driver.dir/C_/VSARM/sdk/pico/pico-sdk/src/rp2_common/pico_standard_link/crt0.S.obj
LOAD CMakeFiles/gif_screen_driver.dir/C_/VSARM/sdk/pico/pico-sdk/src/rp2_common/pico_standard_link/new_delete.cpp.obj
LOAD CMakeFiles/gif_screen_driver.dir/C_/VSARM/sdk/pico/pico-sdk/src/rp2_common/pico_standard_link/binary_info.c.obj
LOAD CMakeFiles/gif_screen_driver.dir/C_/VSARM/sdk/pico/pico-sdk/src/rp2_common/pico_stdio/stdio.c.obj
LOAD CMakeFiles/gif_screen_driver.dir/C_/VSARM/sdk/pico/pico-sdk/src/rp2_common/pico_stdio_usb/reset_interface.c.obj
LOAD CMakeFiles/gif_screen_driver.dir/C_/VSARM/sdk/pico/pico-sdk/src/rp2_common/pico_stdio_usb/stdio_usb.c.obj
LOAD CMakeFiles/gif_screen_driver.dir/C_/VSARM/sdk/pico/pico-sdk/src/rp2_common/pico_stdio_usb/stdio_usb_descriptors.c.obj
LOAD CMakeFiles/gif_screen_driver.dir/C_/VSARM/sdk/pico/pico-sdk/src/rp2_common/pico_unique_id/unique_id.c.obj
LOAD CMakeFiles/gif_screen_driver.dir/C_/VSARM/sdk/pico/pico-sdk/src/rp2_common/hardware_flash/flash.c.obj
LOAD CMakeFiles/gif_screen_driver.dir/C_/VSARM/sdk/pico/pico-sdk/lib/tinyusb/src/portable/raspberrypi/rp2040/dcd_rp2040.c.obj
LOAD CMakeFiles/gif_screen_driver.dir/C_/VSARM/sdk/pico/pico-sdk/lib/tinyusb/src/portable/raspberrypi/rp2040/rp2040_usb.c.obj
LOAD CMakeFiles/gif_screen_driver.dir/C_/VSARM/sdk/pico/pico-sdk/lib/tinyusb/src/device/usbd.c.obj
LOAD CMakeFiles/gif_screen_driver.dir/C_/VSARM/sdk/pico/pico-sdk/lib/tinyusb/src/device/usbd_control.c.obj
LOAD CMakeFiles/gif_screen_driver.dir/C_/VSARM/sdk/pico/pico-sdk/lib/tinyusb/src/class/audio/audio_device.c.obj
LOAD CMakeFiles/gif_screen_driver.dir/C_/VSARM/sdk/pico/pico-sdk/lib/tinyusb/src/class/cdc/cdc_device.c.obj
LOAD CMakeFiles/gif_screen_driver.dir/C_/VSARM/sdk/pico/pico-sdk/lib/tinyusb/src/class/dfu/dfu_device.c.obj
LOAD CMakeFiles/gif_screen_driver.dir/C_/VSARM/sdk/pico/pico-sdk/lib/tinyusb/src/class/dfu/dfu_rt_device.c.obj
LOAD CMakeFiles/gif_screen_driver.dir/C_/VSARM/sdk/pico/pico-sdk/lib/tinyusb/src/class/hid/hid_device.c.obj
LOAD CMakeFiles/gif_screen_driver.dir/C_/VSARM/sdk/pico/pico-sdk/lib/tinyusb/src/class/midi/midi_device.c.obj
LOAD CMakeFiles/gif_screen_driver.dir/C_/VSARM/sdk/pico/pico-sdk/lib/tinyusb/src/class/msc/msc_device.c.obj
LOAD CMakeFiles/gif_screen_driver.dir/C_/VSARM/sdk/pico/pico-sdk/lib/tinyusb/src/class/net/ecm_rndis_device.c.obj
LOAD CMakeFiles/gif_screen_driver.dir/C_/VSARM/sdk/pico/pico-sdk/lib/tinyusb/src/class/net/ncm_device.c.obj
LOAD CMakeFiles/gif_screen_driver.dir/C_/VSARM/sdk/pico/pico-sdk/lib/tinyusb/src/class/usbtmc/usbtmc_device.c.obj
LOAD CMakeFiles/gif_screen_driver.dir/C_/VSARM/sdk/pico/pico-sdk/lib/tinyusb/src/class/vendor/vendor_device.c.obj
LOAD CMakeFiles/gif_screen_driver.dir/C_/VSARM/sdk/pico/pico-sdk/lib/tinyusb/src/class/video/video_device.c.obj
LOAD CMakeFiles/gif_screen_driver.dir/C_/VSARM/sdk/pico/pico-sdk/lib/tinyusb/src/tusb.c.obj
LOAD CMakeFiles/gif_screen_driver.dir/C_/VSARM/sdk/pico/pico-sdk/lib/tinyusb/src/common/tusb_fifo.c.obj
LOAD CMakeFiles/gif_screen_driver.dir/C_/VSARM/sdk/pico/pico-sdk/src/rp2_common/pico_fix/rp2040_usb_device_enumeration/rp2040_usb_device_enumeration.c.obj
LOAD CMakeFiles/gif_screen_driver.dir/C_/VSARM/sdk/pico/pico-sdk/src/rp2_common/pico_multicore/multicore.c.obj
LOAD CMakeFiles/gif_screen_driver.dir/C_/VSARM/sdk/pico/pico-sdk/src/rp2_common/hardware_i2c/i2c.c.obj
LOAD CMakeFiles/gif_screen_driver.dir/M_/house-projects/Christmas/display-screen-ws2812b/FatFs_SPI/ff15/source/ffsystem.c.obj
LOAD CMakeFiles/gif_screen_driver.dir/M_/house-projects/Christmas/display-screen-ws2812b/FatFs_SPI/ff15/source/ffunicode.c.obj
LOAD CMakeFiles/gif_screen_driver.dir/M_/house-projects/Christmas/display-screen-ws2812b/FatFs_SPI/ff15/source/ff.c.obj
LOAD CMakeFiles/gif_screen_driver.dir/M_/house-projects/Christmas/display-screen-ws2812b/FatFs_SPI/sd_driver/sd_spi.c.obj
LOAD CMakeFiles/gif_screen_driver.dir/M_/house-projects/Christmas/display-screen-ws2812b/FatFs_SPI/sd_driver/demo_logging.c.obj
LOAD CMakeFiles/gif_screen_driver.dir/M_/house-projects/Christmas/display-screen-ws2812b/FatFs_SPI/sd_driver/spi.c.obj
LOAD CMakeFiles/gif_screen_driver.dir/M_/house-projects/Christmas/display-screen-ws2812b/FatFs_SPI/sd_driver/sd_card.c.obj
LOAD CMakeFiles/gif_screen_driver.dir/M_/house-projects/Christmas/display-screen-ws2812b/FatFs_SPI/sd_driver/crc.c.obj
LOAD CMakeFiles/gif_screen_driver.dir/M_/house-projects/Christmas/display-screen-ws2812b/FatFs_SPI/src/glue.c.obj
LOAD CMakeFiles/gif_screen_driver.dir/M_/house-projects/Christmas/display-screen-ws2812b/FatFs_SPI/src/f_util.c.obj
LOAD CMakeFiles/gif_screen_driver.dir/M_/house-projects/Christmas/display-screen-ws2812b/FatFs_SPI/src/ff_stdio.c.obj
LOAD CMakeFiles/gif_screen_driver.dir/M_/house-projects/Christmas/display-screen-ws2812b/FatFs_SPI/src/my_debug.c.obj
LOAD CMakeFiles/gif_screen_driver.dir/M_/house-projects/Christmas/display-screen-ws2812b/FatFs_SPI/src/rtc.c.obj
LOAD CMakeFiles/gif_screen_driver.dir/C_/VSARM/sdk/pico/pico-sdk/src/rp2_common/hardware_spi/spi.c.obj
LOAD CMakeFiles/gif_screen_driver.dir/C_/VSARM/sdk/pico/pico-sdk/src/rp2_common/hardware_dma/dma.c.obj
LOAD CMakeFiles/gif_screen_driver.dir/C_/VSARM/sdk/pico/pico-sdk/src/rp2_common/hardware_rtc/rtc.c.obj
LOAD C:\Users\Branden\AppData\Local\Temp\ccKio3yU.o
LOAD c:/vsarm/armcc/102021~1.10/bin/../lib/gcc/arm-none-eabi/10.3.1/../../../../arm-none-eabi/lib/thumb/v6-m/nofp\libstdc++.a
LOAD c:/vsarm/armcc/102021~1.10/bin/../lib/gcc/arm-none-eabi/10.3.1/../../../../arm-none-eabi/lib/thumb/v6-m/nofp\libm.a
START GROUP
LOAD c:/vsarm/armcc/102021~1.10/bin/../lib/gcc/arm-none-eabi/10.3.1/thumb/v6-m/nofp\libgcc.a
LOAD c:/vsarm/armcc/102021~1.10/bin/../lib/gcc/arm-none-eabi/10.3.1/../../../../arm-none-eabi/lib/thumb/v6-m/nofp\libg.a
LOAD c:/vsarm/armcc/102021~1.10/bin/../lib/gcc/arm-none-eabi/10.3.1/../../../../arm-none-eabi/lib/thumb/v6-m/nofp\libc.a
END GROUP
START GROUP
LOAD c:/vsarm/armcc/102021~1.10/bin/../lib/gcc/arm-none-eabi/10.3.1/thumb/v6-m/nofp\libgcc.a
LOAD c:/vsarm/armcc/102021~1.10/bin/../lib/gcc/arm-none-eabi/10.3.1/../../../../arm-none-eabi/lib/thumb/v6-m/nofp\libc.a
LOAD c:/vsarm/armcc/102021~1.10/bin/../lib/gcc/arm-none-eabi/10.3.1/../../../../arm-none-eabi/lib/thumb/v6-m/nofp\libnosys.a
END GROUP
LOAD c:/vsarm/armcc/102021~1.10/bin/../lib/gcc/arm-none-eabi/10.3.1/thumb/v6-m/nofp/crtend.o
LOAD c:/vsarm/armcc/102021~1.10/bin/../lib/gcc/arm-none-eabi/10.3.1/thumb/v6-m/nofp/crtn.o
OUTPUT(gif_screen_driver.elf elf32-littlearm)
LOAD linker stubs

.ARM.attributes
                0x00000000       0x28
 .ARM.attributes
                0x00000000       0x1e c:/vsarm/armcc/102021~1.10/bin/../lib/gcc/arm-none-eabi/10.3.1/thumb/v6-m/nofp/crti.o
 .ARM.attributes
                0x0000001e       0x2c c:/vsarm/armcc/102021~1.10/bin/../lib/gcc/arm-none-eabi/10.3.1/thumb/v6-m/nofp/crtbegin.o
 .ARM.attributes
                0x0000004a       0x2c CMakeFiles/gif_screen_driver.dir/gif_screen_driver.c.obj
 .ARM.attributes
                0x00000076       0x2c CMakeFiles/gif_screen_driver.dir/hw_config.c.obj
 .ARM.attributes
                0x000000a2       0x2c CMakeFiles/gif_screen_driver.dir/gifdec.c.obj
 .ARM.attributes
                0x000000ce       0x2c CMakeFiles/gif_screen_driver.dir/ssd1306.c.obj
 .ARM.attributes
                0x000000fa       0x2c CMakeFiles/gif_screen_driver.dir/C_/VSARM/sdk/pico/pico-sdk/src/rp2_common/pico_stdlib/stdlib.c.obj
 .ARM.attributes
                0x00000126       0x2c CMakeFiles/gif_screen_driver.dir/C_/VSARM/sdk/pico/pico-sdk/src/rp2_common/hardware_gpio/gpio.c.obj
 .ARM.attributes
                0x00000152       0x2c CMakeFiles/gif_screen_driver.dir/C_/VSARM/sdk/pico/pico-sdk/src/rp2_common/pico_platform/platform.c.obj
 .ARM.attributes
                0x0000017e       0x2c CMakeFiles/gif_screen_driver.dir/C_/VSARM/sdk/pico/pico-sdk/src/rp2_common/hardware_claim/claim.c.obj
 .ARM.attributes
                0x000001aa       0x2c CMakeFiles/gif_screen_driver.dir/C_/VSARM/sdk/pico/pico-sdk/src/rp2_common/hardware_sync/sync.c.obj
 .ARM.attributes
                0x000001d6       0x2c CMakeFiles/gif_screen_driver.dir/C_/VSARM/sdk/pico/pico-sdk/src/rp2_common/hardware_irq/irq.c.obj
 .ARM.attributes
                0x00000202       0x22 CMakeFiles/gif_screen_driver.dir/C_/VSARM/sdk/pico/pico-sdk/src/rp2_common/hardware_irq/irq_handler_chain.S.obj
 .ARM.attributes
                0x00000224       0x2c CMakeFiles/gif_screen_driver.dir/C_/VSARM/sdk/pico/pico-sdk/src/common/pico_sync/sem.c.obj
 .ARM.attributes
                0x00000250       0x2c CMakeFiles/gif_screen_driver.dir/C_/VSARM/sdk/pico/pico-sdk/src/common/pico_sync/lock_core.c.obj
 .ARM.attributes
                0x0000027c       0x2c CMakeFiles/gif_screen_driver.dir/C_/VSARM/sdk/pico/pico-sdk/src/common/pico_sync/mutex.c.obj
 .ARM.attributes
                0x000002a8       0x2c CMakeFiles/gif_screen_driver.dir/C_/VSARM/sdk/pico/pico-sdk/src/common/pico_sync/critical_section.c.obj
 .ARM.attributes
                0x000002d4       0x2c CMakeFiles/gif_screen_driver.dir/C_/VSARM/sdk/pico/pico-sdk/src/common/pico_time/time.c.obj
 .ARM.attributes
                0x00000300       0x2c CMakeFiles/gif_screen_driver.dir/C_/VSARM/sdk/pico/pico-sdk/src/rp2_common/hardware_timer/timer.c.obj
 .ARM.attributes
                0x0000032c       0x2c CMakeFiles/gif_screen_driver.dir/C_/VSARM/sdk/pico/pico-sdk/src/common/pico_util/pheap.c.obj
 .ARM.attributes
                0x00000358       0x2c CMakeFiles/gif_screen_driver.dir/C_/VSARM/sdk/pico/pico-sdk/src/rp2_common/hardware_clocks/clocks.c.obj
 .ARM.attributes
                0x00000384       0x2c CMakeFiles/gif_screen_driver.dir/C_/VSARM/sdk/pico/pico-sdk/src/rp2_common/hardware_pll/pll.c.obj
 .ARM.attributes
                0x000003b0       0x2c CMakeFiles/gif_screen_driver.dir/C_/VSARM/sdk/pico/pico-sdk/src/rp2_common/hardware_watchdog/watchdog.c.obj
 .ARM.attributes
                0x000003dc       0x2c CMakeFiles/gif_screen_driver.dir/C_/VSARM/sdk/pico/pico-sdk/src/rp2_common/hardware_xosc/xosc.c.obj
 .ARM.attributes
                0x00000408       0x2c CMakeFiles/gif_screen_driver.dir/C_/VSARM/sdk/pico/pico-sdk/src/rp2_common/pico_runtime/runtime.c.obj
 .ARM.attributes
                0x00000434       0x2c CMakeFiles/gif_screen_driver.dir/C_/VSARM/sdk/pico/pico-sdk/src/rp2_common/pico_printf/printf.c.obj
 .ARM.attributes
                0x00000460       0x22 CMakeFiles/gif_screen_driver.dir/C_/VSARM/sdk/pico/pico-sdk/src/rp2_common/pico_bit_ops/bit_ops_aeabi.S.obj
 .ARM.attributes
                0x00000482       0x2c CMakeFiles/gif_screen_driver.dir/C_/VSARM/sdk/pico/pico-sdk/src/rp2_common/pico_bootrom/bootrom.c.obj
 .ARM.attributes
                0x000004ae       0x22 CMakeFiles/gif_screen_driver.dir/C_/VSARM/sdk/pico/pico-sdk/src/rp2_common/pico_divider/divider.S.obj
 .ARM.attributes
                0x000004d0       0x22 CMakeFiles/gif_screen_driver.dir/C_/VSARM/sdk/pico/pico-sdk/src/rp2_common/pico_double/double_aeabi.S.obj
 .ARM.attributes
                0x000004f2       0x2c CMakeFiles/gif_screen_driver.dir/C_/VSARM/sdk/pico/pico-sdk/src/rp2_common/pico_double/double_init_rom.c.obj
 .ARM.attributes
                0x0000051e       0x2c CMakeFiles/gif_screen_driver.dir/C_/VSARM/sdk/pico/pico-sdk/src/rp2_common/pico_double/double_math.c.obj
 .ARM.attributes
                0x0000054a       0x22 CMakeFiles/gif_screen_driver.dir/C_/VSARM/sdk/pico/pico-sdk/src/rp2_common/pico_double/double_v1_rom_shim.S.obj
 .ARM.attributes
                0x0000056c       0x22 CMakeFiles/gif_screen_driver.dir/C_/VSARM/sdk/pico/pico-sdk/src/rp2_common/pico_int64_ops/pico_int64_ops_aeabi.S.obj
 .ARM.attributes
                0x0000058e       0x22 CMakeFiles/gif_screen_driver.dir/C_/VSARM/sdk/pico/pico-sdk/src/rp2_common/pico_float/float_aeabi.S.obj
 .ARM.attributes
                0x000005b0       0x2c CMakeFiles/gif_screen_driver.dir/C_/VSARM/sdk/pico/pico-sdk/src/rp2_common/pico_float/float_init_rom.c.obj
 .ARM.attributes
                0x000005dc       0x22 CMakeFiles/gif_screen_driver.dir/C_/VSARM/sdk/pico/pico-sdk/src/rp2_common/pico_float/float_v1_rom_shim.S.obj
 .ARM.attributes
                0x000005fe       0x2c CMakeFiles/gif_screen_driver.dir/C_/VSARM/sdk/pico/pico-sdk/src/rp2_common/pico_malloc/pico_malloc.c.obj
 .ARM.attributes
                0x0000062a       0x22 CMakeFiles/gif_screen_driver.dir/C_/VSARM/sdk/pico/pico-sdk/src/rp2_common/pico_mem_ops/mem_ops_aeabi.S.obj
 .ARM.attributes
                0x0000064c       0x22 CMakeFiles/gif_screen_driver.dir/C_/VSARM/sdk/pico/pico-sdk/src/rp2_common/pico_standard_link/crt0.S.obj
 .ARM.attributes
                0x0000066e       0x2c CMakeFiles/gif_screen_driver.dir/C_/VSARM/sdk/pico/pico-sdk/src/rp2_common/pico_standard_link/binary_info.c.obj
 .ARM.attributes
                0x0000069a       0x2c CMakeFiles/gif_screen_driver.dir/C_/VSARM/sdk/pico/pico-sdk/src/rp2_common/pico_stdio/stdio.c.obj
 .ARM.attributes
                0x000006c6       0x2c CMakeFiles/gif_screen_driver.dir/C_/VSARM/sdk/pico/pico-sdk/src/rp2_common/pico_stdio_usb/reset_interface.c.obj
 .ARM.attributes
                0x000006f2       0x2c CMakeFiles/gif_screen_driver.dir/C_/VSARM/sdk/pico/pico-sdk/src/rp2_common/pico_stdio_usb/stdio_usb.c.obj
 .ARM.attributes
                0x0000071e       0x2c CMakeFiles/gif_screen_driver.dir/C_/VSARM/sdk/pico/pico-sdk/src/rp2_common/pico_stdio_usb/stdio_usb_descriptors.c.obj
 .ARM.attributes
                0x0000074a       0x2c CMakeFiles/gif_screen_driver.dir/C_/VSARM/sdk/pico/pico-sdk/src/rp2_common/pico_unique_id/unique_id.c.obj
 .ARM.attributes
                0x00000776       0x2c CMakeFiles/gif_screen_driver.dir/C_/VSARM/sdk/pico/pico-sdk/src/rp2_common/hardware_flash/flash.c.obj
 .ARM.attributes
                0x000007a2       0x2c CMakeFiles/gif_screen_driver.dir/C_/VSARM/sdk/pico/pico-sdk/lib/tinyusb/src/portable/raspberrypi/rp2040/dcd_rp2040.c.obj
 .ARM.attributes
                0x000007ce       0x2c CMakeFiles/gif_screen_driver.dir/C_/VSARM/sdk/pico/pico-sdk/lib/tinyusb/src/portable/raspberrypi/rp2040/rp2040_usb.c.obj
 .ARM.attributes
                0x000007fa       0x2c CMakeFiles/gif_screen_driver.dir/C_/VSARM/sdk/pico/pico-sdk/lib/tinyusb/src/device/usbd.c.obj
 .ARM.attributes
                0x00000826       0x2c CMakeFiles/gif_screen_driver.dir/C_/VSARM/sdk/pico/pico-sdk/lib/tinyusb/src/device/usbd_control.c.obj
 .ARM.attributes
                0x00000852       0x2c CMakeFiles/gif_screen_driver.dir/C_/VSARM/sdk/pico/pico-sdk/lib/tinyusb/src/class/cdc/cdc_device.c.obj
 .ARM.attributes
                0x0000087e       0x2c CMakeFiles/gif_screen_driver.dir/C_/VSARM/sdk/pico/pico-sdk/lib/tinyusb/src/tusb.c.obj
 .ARM.attributes
                0x000008aa       0x2c CMakeFiles/gif_screen_driver.dir/C_/VSARM/sdk/pico/pico-sdk/lib/tinyusb/src/common/tusb_fifo.c.obj
 .ARM.attributes
                0x000008d6       0x2c CMakeFiles/gif_screen_driver.dir/C_/VSARM/sdk/pico/pico-sdk/src/rp2_common/pico_multicore/multicore.c.obj
 .ARM.attributes
                0x00000902       0x2c CMakeFiles/gif_screen_driver.dir/C_/VSARM/sdk/pico/pico-sdk/src/rp2_common/hardware_i2c/i2c.c.obj
 .ARM.attributes
                0x0000092e       0x2c CMakeFiles/gif_screen_driver.dir/M_/house-projects/Christmas/display-screen-ws2812b/FatFs_SPI/ff15/source/ffsystem.c.obj
 .ARM.attributes
                0x0000095a       0x2c CMakeFiles/gif_screen_driver.dir/M_/house-projects/Christmas/display-screen-ws2812b/FatFs_SPI/ff15/source/ffunicode.c.obj
 .ARM.attributes
                0x00000986       0x2c CMakeFiles/gif_screen_driver.dir/M_/house-projects/Christmas/display-screen-ws2812b/FatFs_SPI/ff15/source/ff.c.obj
 .ARM.attributes
                0x000009b2       0x2c CMakeFiles/gif_screen_driver.dir/M_/house-projects/Christmas/display-screen-ws2812b/FatFs_SPI/sd_driver/sd_spi.c.obj
 .ARM.attributes
                0x000009de       0x2c CMakeFiles/gif_screen_driver.dir/M_/house-projects/Christmas/display-screen-ws2812b/FatFs_SPI/sd_driver/spi.c.obj
 .ARM.attributes
                0x00000a0a       0x2c CMakeFiles/gif_screen_driver.dir/M_/house-projects/Christmas/display-screen-ws2812b/FatFs_SPI/sd_driver/sd_card.c.obj
 .ARM.attributes
                0x00000a36       0x2c CMakeFiles/gif_screen_driver.dir/M_/house-projects/Christmas/display-screen-ws2812b/FatFs_SPI/sd_driver/crc.c.obj
 .ARM.attributes
                0x00000a62       0x2c CMakeFiles/gif_screen_driver.dir/M_/house-projects/Christmas/display-screen-ws2812b/FatFs_SPI/src/glue.c.obj
 .ARM.attributes
                0x00000a8e       0x2c CMakeFiles/gif_screen_driver.dir/M_/house-projects/Christmas/display-screen-ws2812b/FatFs_SPI/src/f_util.c.obj
 .ARM.attributes
                0x00000aba       0x2c CMakeFiles/gif_screen_driver.dir/M_/house-projects/Christmas/display-screen-ws2812b/FatFs_SPI/src/my_debug.c.obj
 .ARM.attributes
                0x00000ae6       0x2c CMakeFiles/gif_screen_driver.dir/M_/house-projects/Christmas/display-screen-ws2812b/FatFs_SPI/src/rtc.c.obj
 .ARM.attributes
                0x00000b12       0x2c CMakeFiles/gif_screen_driver.dir/C_/VSARM/sdk/pico/pico-sdk/src/rp2_common/hardware_spi/spi.c.obj
 .ARM.attributes
                0x00000b3e       0x2c CMakeFiles/gif_screen_driver.dir/C_/VSARM/sdk/pico/pico-sdk/src/rp2_common/hardware_dma/dma.c.obj
 .ARM.attributes
                0x00000b6a       0x2c CMakeFiles/gif_screen_driver.dir/C_/VSARM/sdk/pico/pico-sdk/src/rp2_common/hardware_rtc/rtc.c.obj
 .ARM.attributes
                0x00000b96       0x22 C:\Users\Branden\AppData\Local\Temp\ccKio3yU.o
 .ARM.attributes
                0x00000bb8       0x1e c:/vsarm/armcc/102021~1.10/bin/../lib/gcc/arm-none-eabi/10.3.1/thumb/v6-m/nofp\libgcc.a(_dvmd_tls.o)
 .ARM.attributes
                0x00000bd6       0x2c c:/vsarm/armcc/102021~1.10/bin/../lib/gcc/arm-none-eabi/10.3.1/../../../../arm-none-eabi/lib/thumb/v6-m/nofp\libg.a(lib_a-calloc.o)
 .ARM.attributes
                0x00000c02       0x2c c:/vsarm/armcc/102021~1.10/bin/../lib/gcc/arm-none-eabi/10.3.1/../../../../arm-none-eabi/lib/thumb/v6-m/nofp\libg.a(lib_a-callocr.o)
 .ARM.attributes
                0x00000c2e       0x2c c:/vsarm/armcc/102021~1.10/bin/../lib/gcc/arm-none-eabi/10.3.1/../../../../arm-none-eabi/lib/thumb/v6-m/nofp\libg.a(lib_a-errno.o)
 .ARM.attributes
                0x00000c5a       0x2c c:/vsarm/armcc/102021~1.10/bin/../lib/gcc/arm-none-eabi/10.3.1/../../../../arm-none-eabi/lib/thumb/v6-m/nofp\libg.a(lib_a-fflush.o)
 .ARM.attributes
                0x00000c86       0x2c c:/vsarm/armcc/102021~1.10/bin/../lib/gcc/arm-none-eabi/10.3.1/../../../../arm-none-eabi/lib/thumb/v6-m/nofp\libg.a(lib_a-findfp.o)
 .ARM.attributes
                0x00000cb2       0x2c c:/vsarm/armcc/102021~1.10/bin/../lib/gcc/arm-none-eabi/10.3.1/../../../../arm-none-eabi/lib/thumb/v6-m/nofp\libg.a(lib_a-freer.o)
 .ARM.attributes
                0x00000cde       0x2c c:/vsarm/armcc/102021~1.10/bin/../lib/gcc/arm-none-eabi/10.3.1/../../../../arm-none-eabi/lib/thumb/v6-m/nofp\libg.a(lib_a-fwalk.o)
 .ARM.attributes
                0x00000d0a       0x2c c:/vsarm/armcc/102021~1.10/bin/../lib/gcc/arm-none-eabi/10.3.1/../../../../arm-none-eabi/lib/thumb/v6-m/nofp\libg.a(lib_a-impure.o)
 .ARM.attributes
                0x00000d36       0x2c c:/vsarm/armcc/102021~1.10/bin/../lib/gcc/arm-none-eabi/10.3.1/../../../../arm-none-eabi/lib/thumb/v6-m/nofp\libg.a(lib_a-lock.o)
 .ARM.attributes
                0x00000d62       0x2c c:/vsarm/armcc/102021~1.10/bin/../lib/gcc/arm-none-eabi/10.3.1/../../../../arm-none-eabi/lib/thumb/v6-m/nofp\libg.a(lib_a-malloc.o)
 .ARM.attributes
                0x00000d8e       0x2c c:/vsarm/armcc/102021~1.10/bin/../lib/gcc/arm-none-eabi/10.3.1/../../../../arm-none-eabi/lib/thumb/v6-m/nofp\libg.a(lib_a-mallocr.o)
 .ARM.attributes
                0x00000dba       0x2c c:/vsarm/armcc/102021~1.10/bin/../lib/gcc/arm-none-eabi/10.3.1/../../../../arm-none-eabi/lib/thumb/v6-m/nofp\libg.a(lib_a-memcmp.o)
 .ARM.attributes
                0x00000de6       0x2c c:/vsarm/armcc/102021~1.10/bin/../lib/gcc/arm-none-eabi/10.3.1/../../../../arm-none-eabi/lib/thumb/v6-m/nofp\libg.a(lib_a-mlock.o)
 .ARM.attributes
                0x00000e12       0x2c c:/vsarm/armcc/102021~1.10/bin/../lib/gcc/arm-none-eabi/10.3.1/../../../../arm-none-eabi/lib/thumb/v6-m/nofp\libg.a(lib_a-realloc.o)
 .ARM.attributes
                0x00000e3e       0x2c c:/vsarm/armcc/102021~1.10/bin/../lib/gcc/arm-none-eabi/10.3.1/../../../../arm-none-eabi/lib/thumb/v6-m/nofp\libg.a(lib_a-reallocr.o)
 .ARM.attributes
                0x00000e6a       0x2c c:/vsarm/armcc/102021~1.10/bin/../lib/gcc/arm-none-eabi/10.3.1/../../../../arm-none-eabi/lib/thumb/v6-m/nofp\libg.a(lib_a-sbrkr.o)
 .ARM.attributes
                0x00000e96       0x2c c:/vsarm/armcc/102021~1.10/bin/../lib/gcc/arm-none-eabi/10.3.1/../../../../arm-none-eabi/lib/thumb/v6-m/nofp\libg.a(lib_a-stdio.o)
 .ARM.attributes
                0x00000ec2       0x2c c:/vsarm/armcc/102021~1.10/bin/../lib/gcc/arm-none-eabi/10.3.1/../../../../arm-none-eabi/lib/thumb/v6-m/nofp\libg.a(lib_a-strchr.o)
 .ARM.attributes
                0x00000eee       0x2c c:/vsarm/armcc/102021~1.10/bin/../lib/gcc/arm-none-eabi/10.3.1/../../../../arm-none-eabi/lib/thumb/v6-m/nofp\libg.a(lib_a-strlen-stub.o)
 .ARM.attributes
                0x00000f1a       0x2c c:/vsarm/armcc/102021~1.10/bin/../lib/gcc/arm-none-eabi/10.3.1/../../../../arm-none-eabi/lib/thumb/v6-m/nofp\libg.a(lib_a-strncmp.o)
 .ARM.attributes
                0x00000f46       0x2c c:/vsarm/armcc/102021~1.10/bin/../lib/gcc/arm-none-eabi/10.3.1/../../../../arm-none-eabi/lib/thumb/v6-m/nofp\libg.a(lib_a-writer.o)
 .ARM.attributes
                0x00000f72       0x2c c:/vsarm/armcc/102021~1.10/bin/../lib/gcc/arm-none-eabi/10.3.1/../../../../arm-none-eabi/lib/thumb/v6-m/nofp\libg.a(lib_a-closer.o)
 .ARM.attributes
                0x00000f9e       0x2c c:/vsarm/armcc/102021~1.10/bin/../lib/gcc/arm-none-eabi/10.3.1/../../../../arm-none-eabi/lib/thumb/v6-m/nofp\libg.a(lib_a-fclose.o)
 .ARM.attributes
                0x00000fca       0x2c c:/vsarm/armcc/102021~1.10/bin/../lib/gcc/arm-none-eabi/10.3.1/../../../../arm-none-eabi/lib/thumb/v6-m/nofp\libg.a(lib_a-lseekr.o)
 .ARM.attributes
                0x00000ff6       0x2c c:/vsarm/armcc/102021~1.10/bin/../lib/gcc/arm-none-eabi/10.3.1/../../../../arm-none-eabi/lib/thumb/v6-m/nofp\libg.a(lib_a-memmove.o)
 .ARM.attributes
                0x00001022       0x2c c:/vsarm/armcc/102021~1.10/bin/../lib/gcc/arm-none-eabi/10.3.1/../../../../arm-none-eabi/lib/thumb/v6-m/nofp\libg.a(lib_a-readr.o)
 .ARM.attributes
                0x0000104e       0x2c c:/vsarm/armcc/102021~1.10/bin/../lib/gcc/arm-none-eabi/10.3.1/../../../../arm-none-eabi/lib/thumb/v6-m/nofp\libg.a(lib_a-reent.o)

.comment        0x00000000       0x49
 .comment       0x00000000       0x49 CMakeFiles/gif_screen_driver.dir/gif_screen_driver.c.obj
                                 0x4a (size before relaxing)
 .comment       0x00000049       0x4a CMakeFiles/gif_screen_driver.dir/hw_config.c.obj
 .comment       0x00000049       0x4a CMakeFiles/gif_screen_driver.dir/gifdec.c.obj
 .comment       0x00000049       0x4a CMakeFiles/gif_screen_driver.dir/ssd1306.c.obj
 .comment       0x00000049       0x4a CMakeFiles/gif_screen_driver.dir/C_/VSARM/sdk/pico/pico-sdk/src/rp2_common/pico_stdlib/stdlib.c.obj
 .comment       0x00000049       0x4a CMakeFiles/gif_screen_driver.dir/C_/VSARM/sdk/pico/pico-sdk/src/rp2_common/hardware_gpio/gpio.c.obj
 .comment       0x00000049       0x4a CMakeFiles/gif_screen_driver.dir/C_/VSARM/sdk/pico/pico-sdk/src/rp2_common/pico_platform/platform.c.obj
 .comment       0x00000049       0x4a CMakeFiles/gif_screen_driver.dir/C_/VSARM/sdk/pico/pico-sdk/src/rp2_common/hardware_claim/claim.c.obj
 .comment       0x00000049       0x4a CMakeFiles/gif_screen_driver.dir/C_/VSARM/sdk/pico/pico-sdk/src/rp2_common/hardware_sync/sync.c.obj
 .comment       0x00000049       0x4a CMakeFiles/gif_screen_driver.dir/C_/VSARM/sdk/pico/pico-sdk/src/rp2_common/hardware_irq/irq.c.obj
 .comment       0x00000049       0x4a CMakeFiles/gif_screen_driver.dir/C_/VSARM/sdk/pico/pico-sdk/src/common/pico_sync/sem.c.obj
 .comment       0x00000049       0x4a CMakeFiles/gif_screen_driver.dir/C_/VSARM/sdk/pico/pico-sdk/src/common/pico_sync/lock_core.c.obj
 .comment       0x00000049       0x4a CMakeFiles/gif_screen_driver.dir/C_/VSARM/sdk/pico/pico-sdk/src/common/pico_sync/mutex.c.obj
 .comment       0x00000049       0x4a CMakeFiles/gif_screen_driver.dir/C_/VSARM/sdk/pico/pico-sdk/src/common/pico_sync/critical_section.c.obj
 .comment       0x00000049       0x4a CMakeFiles/gif_screen_driver.dir/C_/VSARM/sdk/pico/pico-sdk/src/common/pico_time/time.c.obj
 .comment       0x00000049       0x4a CMakeFiles/gif_screen_driver.dir/C_/VSARM/sdk/pico/pico-sdk/src/rp2_common/hardware_timer/timer.c.obj
 .comment       0x00000049       0x4a CMakeFiles/gif_screen_driver.dir/C_/VSARM/sdk/pico/pico-sdk/src/common/pico_util/pheap.c.obj
 .comment       0x00000049       0x4a CMakeFiles/gif_screen_driver.dir/C_/VSARM/sdk/pico/pico-sdk/src/rp2_common/hardware_clocks/clocks.c.obj
 .comment       0x00000049       0x4a CMakeFiles/gif_screen_driver.dir/C_/VSARM/sdk/pico/pico-sdk/src/rp2_common/hardware_pll/pll.c.obj
 .comment       0x00000049       0x4a CMakeFiles/gif_screen_driver.dir/C_/VSARM/sdk/pico/pico-sdk/src/rp2_common/hardware_watchdog/watchdog.c.obj
 .comment       0x00000049       0x4a CMakeFiles/gif_screen_driver.dir/C_/VSARM/sdk/pico/pico-sdk/src/rp2_common/hardware_xosc/xosc.c.obj
 .comment       0x00000049       0x4a CMakeFiles/gif_screen_driver.dir/C_/VSARM/sdk/pico/pico-sdk/src/rp2_common/pico_runtime/runtime.c.obj
 .comment       0x00000049       0x4a CMakeFiles/gif_screen_driver.dir/C_/VSARM/sdk/pico/pico-sdk/src/rp2_common/pico_printf/printf.c.obj
 .comment       0x00000049       0x4a CMakeFiles/gif_screen_driver.dir/C_/VSARM/sdk/pico/pico-sdk/src/rp2_common/pico_bootrom/bootrom.c.obj
 .comment       0x00000049       0x4a CMakeFiles/gif_screen_driver.dir/C_/VSARM/sdk/pico/pico-sdk/src/rp2_common/pico_double/double_init_rom.c.obj
 .comment       0x00000049       0x4a CMakeFiles/gif_screen_driver.dir/C_/VSARM/sdk/pico/pico-sdk/src/rp2_common/pico_double/double_math.c.obj
 .comment       0x00000049       0x4a CMakeFiles/gif_screen_driver.dir/C_/VSARM/sdk/pico/pico-sdk/src/rp2_common/pico_float/float_init_rom.c.obj
 .comment       0x00000049       0x4a CMakeFiles/gif_screen_driver.dir/C_/VSARM/sdk/pico/pico-sdk/src/rp2_common/pico_malloc/pico_malloc.c.obj
 .comment       0x00000049       0x4a CMakeFiles/gif_screen_driver.dir/C_/VSARM/sdk/pico/pico-sdk/src/rp2_common/pico_standard_link/binary_info.c.obj
 .comment       0x00000049       0x4a CMakeFiles/gif_screen_driver.dir/C_/VSARM/sdk/pico/pico-sdk/src/rp2_common/pico_stdio/stdio.c.obj
 .comment       0x00000049       0x4a CMakeFiles/gif_screen_driver.dir/C_/VSARM/sdk/pico/pico-sdk/src/rp2_common/pico_stdio_usb/reset_interface.c.obj
 .comment       0x00000049       0x4a CMakeFiles/gif_screen_driver.dir/C_/VSARM/sdk/pico/pico-sdk/src/rp2_common/pico_stdio_usb/stdio_usb.c.obj
 .comment       0x00000049       0x4a CMakeFiles/gif_screen_driver.dir/C_/VSARM/sdk/pico/pico-sdk/src/rp2_common/pico_stdio_usb/stdio_usb_descriptors.c.obj
 .comment       0x00000049       0x4a CMakeFiles/gif_screen_driver.dir/C_/VSARM/sdk/pico/pico-sdk/src/rp2_common/pico_unique_id/unique_id.c.obj
 .comment       0x00000049       0x4a CMakeFiles/gif_screen_driver.dir/C_/VSARM/sdk/pico/pico-sdk/src/rp2_common/hardware_flash/flash.c.obj
 .comment       0x00000049       0x4a CMakeFiles/gif_screen_driver.dir/C_/VSARM/sdk/pico/pico-sdk/lib/tinyusb/src/portable/raspberrypi/rp2040/dcd_rp2040.c.obj
 .comment       0x00000049       0x4a CMakeFiles/gif_screen_driver.dir/C_/VSARM/sdk/pico/pico-sdk/lib/tinyusb/src/portable/raspberrypi/rp2040/rp2040_usb.c.obj
 .comment       0x00000049       0x4a CMakeFiles/gif_screen_driver.dir/C_/VSARM/sdk/pico/pico-sdk/lib/tinyusb/src/device/usbd.c.obj
 .comment       0x00000049       0x4a CMakeFiles/gif_screen_driver.dir/C_/VSARM/sdk/pico/pico-sdk/lib/tinyusb/src/device/usbd_control.c.obj
 .comment       0x00000049       0x4a CMakeFiles/gif_screen_driver.dir/C_/VSARM/sdk/pico/pico-sdk/lib/tinyusb/src/class/cdc/cdc_device.c.obj
 .comment       0x00000049       0x4a CMakeFiles/gif_screen_driver.dir/C_/VSARM/sdk/pico/pico-sdk/lib/tinyusb/src/tusb.c.obj
 .comment       0x00000049       0x4a CMakeFiles/gif_screen_driver.dir/C_/VSARM/sdk/pico/pico-sdk/lib/tinyusb/src/common/tusb_fifo.c.obj
 .comment       0x00000049       0x4a CMakeFiles/gif_screen_driver.dir/C_/VSARM/sdk/pico/pico-sdk/src/rp2_common/pico_multicore/multicore.c.obj
 .comment       0x00000049       0x4a CMakeFiles/gif_screen_driver.dir/C_/VSARM/sdk/pico/pico-sdk/src/rp2_common/hardware_i2c/i2c.c.obj
 .comment       0x00000049       0x4a CMakeFiles/gif_screen_driver.dir/M_/house-projects/Christmas/display-screen-ws2812b/FatFs_SPI/ff15/source/ffsystem.c.obj
 .comment       0x00000049       0x4a CMakeFiles/gif_screen_driver.dir/M_/house-projects/Christmas/display-screen-ws2812b/FatFs_SPI/ff15/source/ffunicode.c.obj
 .comment       0x00000049       0x4a CMakeFiles/gif_screen_driver.dir/M_/house-projects/Christmas/display-screen-ws2812b/FatFs_SPI/ff15/source/ff.c.obj
 .comment       0x00000049       0x4a CMakeFiles/gif_screen_driver.dir/M_/house-projects/Christmas/display-screen-ws2812b/FatFs_SPI/sd_driver/sd_spi.c.obj
 .comment       0x00000049       0x4a CMakeFiles/gif_screen_driver.dir/M_/house-projects/Christmas/display-screen-ws2812b/FatFs_SPI/sd_driver/spi.c.obj
 .comment       0x00000049       0x4a CMakeFiles/gif_screen_driver.dir/M_/house-projects/Christmas/display-screen-ws2812b/FatFs_SPI/sd_driver/sd_card.c.obj
 .comment       0x00000049       0x4a CMakeFiles/gif_screen_driver.dir/M_/house-projects/Christmas/display-screen-ws2812b/FatFs_SPI/sd_driver/crc.c.obj
 .comment       0x00000049       0x4a CMakeFiles/gif_screen_driver.dir/M_/house-projects/Christmas/display-screen-ws2812b/FatFs_SPI/src/glue.c.obj
 .comment       0x00000049       0x4a CMakeFiles/gif_screen_driver.dir/M_/house-projects/Christmas/display-screen-ws2812b/FatFs_SPI/src/f_util.c.obj
 .comment       0x00000049       0x4a CMakeFiles/gif_screen_driver.dir/M_/house-projects/Christmas/display-screen-ws2812b/FatFs_SPI/src/my_debug.c.obj
 .comment       0x00000049       0x4a CMakeFiles/gif_screen_driver.dir/M_/house-projects/Christmas/display-screen-ws2812b/FatFs_SPI/src/rtc.c.obj
 .comment       0x00000049       0x4a CMakeFiles/gif_screen_driver.dir/C_/VSARM/sdk/pico/pico-sdk/src/rp2_common/hardware_spi/spi.c.obj
 .comment       0x00000049       0x4a CMakeFiles/gif_screen_driver.dir/C_/VSARM/sdk/pico/pico-sdk/src/rp2_common/hardware_dma/dma.c.obj
 .comment       0x00000049       0x4a CMakeFiles/gif_screen_driver.dir/C_/VSARM/sdk/pico/pico-sdk/src/rp2_common/hardware_rtc/rtc.c.obj

.debug_info     0x00000000    0x4a436
 .debug_info    0x00000000     0x37a3 CMakeFiles/gif_screen_driver.dir/gif_screen_driver.c.obj
 .debug_info    0x000037a3      0x857 CMakeFiles/gif_screen_driver.dir/hw_config.c.obj
 .debug_info    0x00003ffa     0x1c88 CMakeFiles/gif_screen_driver.dir/gifdec.c.obj
 .debug_info    0x00005c82     0x1ce2 CMakeFiles/gif_screen_driver.dir/ssd1306.c.obj
 .debug_info    0x00007964      0x748 CMakeFiles/gif_screen_driver.dir/C_/VSARM/sdk/pico/pico-sdk/src/rp2_common/pico_stdlib/stdlib.c.obj
 .debug_info    0x000080ac     0x187e CMakeFiles/gif_screen_driver.dir/C_/VSARM/sdk/pico/pico-sdk/src/rp2_common/hardware_gpio/gpio.c.obj
 .debug_info    0x0000992a      0x1e3 CMakeFiles/gif_screen_driver.dir/C_/VSARM/sdk/pico/pico-sdk/src/rp2_common/pico_platform/platform.c.obj
 .debug_info    0x00009b0d      0x6be CMakeFiles/gif_screen_driver.dir/C_/VSARM/sdk/pico/pico-sdk/src/rp2_common/hardware_claim/claim.c.obj
 .debug_info    0x0000a1cb      0x58e CMakeFiles/gif_screen_driver.dir/C_/VSARM/sdk/pico/pico-sdk/src/rp2_common/hardware_sync/sync.c.obj
 .debug_info    0x0000a759     0x1c9e CMakeFiles/gif_screen_driver.dir/C_/VSARM/sdk/pico/pico-sdk/src/rp2_common/hardware_irq/irq.c.obj
 .debug_info    0x0000c3f7     0x1426 CMakeFiles/gif_screen_driver.dir/C_/VSARM/sdk/pico/pico-sdk/src/common/pico_sync/sem.c.obj
 .debug_info    0x0000d81d      0x1a4 CMakeFiles/gif_screen_driver.dir/C_/VSARM/sdk/pico/pico-sdk/src/common/pico_sync/lock_core.c.obj
 .debug_info    0x0000d9c1     0x20d5 CMakeFiles/gif_screen_driver.dir/C_/VSARM/sdk/pico/pico-sdk/src/common/pico_sync/mutex.c.obj
 .debug_info    0x0000fa96      0x2d1 CMakeFiles/gif_screen_driver.dir/C_/VSARM/sdk/pico/pico-sdk/src/common/pico_sync/critical_section.c.obj
 .debug_info    0x0000fd67     0x4068 CMakeFiles/gif_screen_driver.dir/C_/VSARM/sdk/pico/pico-sdk/src/common/pico_time/time.c.obj
 .debug_info    0x00013dcf     0x13f0 CMakeFiles/gif_screen_driver.dir/C_/VSARM/sdk/pico/pico-sdk/src/rp2_common/hardware_timer/timer.c.obj
 .debug_info    0x000151bf     0x123b CMakeFiles/gif_screen_driver.dir/C_/VSARM/sdk/pico/pico-sdk/src/common/pico_util/pheap.c.obj
 .debug_info    0x000163fa      0xfcf CMakeFiles/gif_screen_driver.dir/C_/VSARM/sdk/pico/pico-sdk/src/rp2_common/hardware_clocks/clocks.c.obj
 .debug_info    0x000173c9      0x51b CMakeFiles/gif_screen_driver.dir/C_/VSARM/sdk/pico/pico-sdk/src/rp2_common/hardware_pll/pll.c.obj
 .debug_info    0x000178e4      0x4ee CMakeFiles/gif_screen_driver.dir/C_/VSARM/sdk/pico/pico-sdk/src/rp2_common/hardware_watchdog/watchdog.c.obj
 .debug_info    0x00017dd2      0x1d8 CMakeFiles/gif_screen_driver.dir/C_/VSARM/sdk/pico/pico-sdk/src/rp2_common/hardware_xosc/xosc.c.obj
 .debug_info    0x00017faa     0x1053 CMakeFiles/gif_screen_driver.dir/C_/VSARM/sdk/pico/pico-sdk/src/rp2_common/pico_runtime/runtime.c.obj
 .debug_info    0x00018ffd     0x1a5f CMakeFiles/gif_screen_driver.dir/C_/VSARM/sdk/pico/pico-sdk/src/rp2_common/pico_printf/printf.c.obj
 .debug_info    0x0001aa5c       0x22 CMakeFiles/gif_screen_driver.dir/C_/VSARM/sdk/pico/pico-sdk/src/rp2_common/pico_bit_ops/bit_ops_aeabi.S.obj
 .debug_info    0x0001aa7e      0x27c CMakeFiles/gif_screen_driver.dir/C_/VSARM/sdk/pico/pico-sdk/src/rp2_common/pico_bootrom/bootrom.c.obj
 .debug_info    0x0001acfa       0x22 CMakeFiles/gif_screen_driver.dir/C_/VSARM/sdk/pico/pico-sdk/src/rp2_common/pico_divider/divider.S.obj
 .debug_info    0x0001ad1c       0x22 CMakeFiles/gif_screen_driver.dir/C_/VSARM/sdk/pico/pico-sdk/src/rp2_common/pico_double/double_aeabi.S.obj
 .debug_info    0x0001ad3e      0x2d1 CMakeFiles/gif_screen_driver.dir/C_/VSARM/sdk/pico/pico-sdk/src/rp2_common/pico_double/double_init_rom.c.obj
 .debug_info    0x0001b00f     0x5586 CMakeFiles/gif_screen_driver.dir/C_/VSARM/sdk/pico/pico-sdk/src/rp2_common/pico_double/double_math.c.obj
 .debug_info    0x00020595       0x22 CMakeFiles/gif_screen_driver.dir/C_/VSARM/sdk/pico/pico-sdk/src/rp2_common/pico_double/double_v1_rom_shim.S.obj
 .debug_info    0x000205b7       0x26 CMakeFiles/gif_screen_driver.dir/C_/VSARM/sdk/pico/pico-sdk/src/rp2_common/pico_int64_ops/pico_int64_ops_aeabi.S.obj
 .debug_info    0x000205dd       0x22 CMakeFiles/gif_screen_driver.dir/C_/VSARM/sdk/pico/pico-sdk/src/rp2_common/pico_float/float_aeabi.S.obj
 .debug_info    0x000205ff      0x2eb CMakeFiles/gif_screen_driver.dir/C_/VSARM/sdk/pico/pico-sdk/src/rp2_common/pico_float/float_init_rom.c.obj
 .debug_info    0x000208ea       0x22 CMakeFiles/gif_screen_driver.dir/C_/VSARM/sdk/pico/pico-sdk/src/rp2_common/pico_float/float_v1_rom_shim.S.obj
 .debug_info    0x0002090c      0x4a6 CMakeFiles/gif_screen_driver.dir/C_/VSARM/sdk/pico/pico-sdk/src/rp2_common/pico_malloc/pico_malloc.c.obj
 .debug_info    0x00020db2       0x22 CMakeFiles/gif_screen_driver.dir/C_/VSARM/sdk/pico/pico-sdk/src/rp2_common/pico_mem_ops/mem_ops_aeabi.S.obj
 .debug_info    0x00020dd4       0x22 CMakeFiles/gif_screen_driver.dir/C_/VSARM/sdk/pico/pico-sdk/src/rp2_common/pico_standard_link/crt0.S.obj
 .debug_info    0x00020df6      0x32c CMakeFiles/gif_screen_driver.dir/C_/VSARM/sdk/pico/pico-sdk/src/rp2_common/pico_standard_link/binary_info.c.obj
 .debug_info    0x00021122     0x1827 CMakeFiles/gif_screen_driver.dir/C_/VSARM/sdk/pico/pico-sdk/src/rp2_common/pico_stdio/stdio.c.obj
 .debug_info    0x00022949      0x79f CMakeFiles/gif_screen_driver.dir/C_/VSARM/sdk/pico/pico-sdk/src/rp2_common/pico_stdio_usb/reset_interface.c.obj
 .debug_info    0x000230e8     0x1b69 CMakeFiles/gif_screen_driver.dir/C_/VSARM/sdk/pico/pico-sdk/src/rp2_common/pico_stdio_usb/stdio_usb.c.obj
 .debug_info    0x00024c51      0x5fc CMakeFiles/gif_screen_driver.dir/C_/VSARM/sdk/pico/pico-sdk/src/rp2_common/pico_stdio_usb/stdio_usb_descriptors.c.obj
 .debug_info    0x0002524d      0x257 CMakeFiles/gif_screen_driver.dir/C_/VSARM/sdk/pico/pico-sdk/src/rp2_common/pico_unique_id/unique_id.c.obj
 .debug_info    0x000254a4      0xf3a CMakeFiles/gif_screen_driver.dir/C_/VSARM/sdk/pico/pico-sdk/src/rp2_common/hardware_flash/flash.c.obj
 .debug_info    0x000263de     0x2080 CMakeFiles/gif_screen_driver.dir/C_/VSARM/sdk/pico/pico-sdk/lib/tinyusb/src/portable/raspberrypi/rp2040/dcd_rp2040.c.obj
 .debug_info    0x0002845e      0xfe4 CMakeFiles/gif_screen_driver.dir/C_/VSARM/sdk/pico/pico-sdk/lib/tinyusb/src/portable/raspberrypi/rp2040/rp2040_usb.c.obj
 .debug_info    0x00029442     0x3c23 CMakeFiles/gif_screen_driver.dir/C_/VSARM/sdk/pico/pico-sdk/lib/tinyusb/src/device/usbd.c.obj
 .debug_info    0x0002d065      0x8be CMakeFiles/gif_screen_driver.dir/C_/VSARM/sdk/pico/pico-sdk/lib/tinyusb/src/device/usbd_control.c.obj
 .debug_info    0x0002d923     0x19bd CMakeFiles/gif_screen_driver.dir/C_/VSARM/sdk/pico/pico-sdk/lib/tinyusb/src/class/cdc/cdc_device.c.obj
 .debug_info    0x0002f2e0     0x14db CMakeFiles/gif_screen_driver.dir/C_/VSARM/sdk/pico/pico-sdk/lib/tinyusb/src/tusb.c.obj
 .debug_info    0x000307bb     0x2851 CMakeFiles/gif_screen_driver.dir/C_/VSARM/sdk/pico/pico-sdk/lib/tinyusb/src/common/tusb_fifo.c.obj
 .debug_info    0x0003300c     0x1d18 CMakeFiles/gif_screen_driver.dir/C_/VSARM/sdk/pico/pico-sdk/src/rp2_common/pico_multicore/multicore.c.obj
 .debug_info    0x00034d24     0x1606 CMakeFiles/gif_screen_driver.dir/C_/VSARM/sdk/pico/pico-sdk/src/rp2_common/hardware_i2c/i2c.c.obj
 .debug_info    0x0003632a      0x128 CMakeFiles/gif_screen_driver.dir/M_/house-projects/Christmas/display-screen-ws2812b/FatFs_SPI/ff15/source/ffsystem.c.obj
 .debug_info    0x00036452      0x2b4 CMakeFiles/gif_screen_driver.dir/M_/house-projects/Christmas/display-screen-ws2812b/FatFs_SPI/ff15/source/ffunicode.c.obj
 .debug_info    0x00036706     0x80e7 CMakeFiles/gif_screen_driver.dir/M_/house-projects/Christmas/display-screen-ws2812b/FatFs_SPI/ff15/source/ff.c.obj
 .debug_info    0x0003e7ed     0x1530 CMakeFiles/gif_screen_driver.dir/M_/house-projects/Christmas/display-screen-ws2812b/FatFs_SPI/sd_driver/sd_spi.c.obj
 .debug_info    0x0003fd1d     0x268f CMakeFiles/gif_screen_driver.dir/M_/house-projects/Christmas/display-screen-ws2812b/FatFs_SPI/sd_driver/spi.c.obj
 .debug_info    0x000423ac     0x37ef CMakeFiles/gif_screen_driver.dir/M_/house-projects/Christmas/display-screen-ws2812b/FatFs_SPI/sd_driver/sd_card.c.obj
 .debug_info    0x00045b9b      0x1eb CMakeFiles/gif_screen_driver.dir/M_/house-projects/Christmas/display-screen-ws2812b/FatFs_SPI/sd_driver/crc.c.obj
 .debug_info    0x00045d86      0xa63 CMakeFiles/gif_screen_driver.dir/M_/house-projects/Christmas/display-screen-ws2812b/FatFs_SPI/src/glue.c.obj
 .debug_info    0x000467e9      0x6b7 CMakeFiles/gif_screen_driver.dir/M_/house-projects/Christmas/display-screen-ws2812b/FatFs_SPI/src/f_util.c.obj
 .debug_info    0x00046ea0      0xacb CMakeFiles/gif_screen_driver.dir/M_/house-projects/Christmas/display-screen-ws2812b/FatFs_SPI/src/my_debug.c.obj
 .debug_info    0x0004796b      0x5bc CMakeFiles/gif_screen_driver.dir/M_/house-projects/Christmas/display-screen-ws2812b/FatFs_SPI/src/rtc.c.obj
 .debug_info    0x00047f27     0x11c5 CMakeFiles/gif_screen_driver.dir/C_/VSARM/sdk/pico/pico-sdk/src/rp2_common/hardware_spi/spi.c.obj
 .debug_info    0x000490ec      0xa44 CMakeFiles/gif_screen_driver.dir/C_/VSARM/sdk/pico/pico-sdk/src/rp2_common/hardware_dma/dma.c.obj
 .debug_info    0x00049b30      0x906 CMakeFiles/gif_screen_driver.dir/C_/VSARM/sdk/pico/pico-sdk/src/rp2_common/hardware_rtc/rtc.c.obj

.debug_abbrev   0x00000000     0xac25
 .debug_abbrev  0x00000000      0x5e1 CMakeFiles/gif_screen_driver.dir/gif_screen_driver.c.obj
 .debug_abbrev  0x000005e1      0x1f5 CMakeFiles/gif_screen_driver.dir/hw_config.c.obj
 .debug_abbrev  0x000007d6      0x39d CMakeFiles/gif_screen_driver.dir/gifdec.c.obj
 .debug_abbrev  0x00000b73      0x3de CMakeFiles/gif_screen_driver.dir/ssd1306.c.obj
 .debug_abbrev  0x00000f51      0x1f1 CMakeFiles/gif_screen_driver.dir/C_/VSARM/sdk/pico/pico-sdk/src/rp2_common/pico_stdlib/stdlib.c.obj
 .debug_abbrev  0x00001142      0x379 CMakeFiles/gif_screen_driver.dir/C_/VSARM/sdk/pico/pico-sdk/src/rp2_common/hardware_gpio/gpio.c.obj
 .debug_abbrev  0x000014bb       0xeb CMakeFiles/gif_screen_driver.dir/C_/VSARM/sdk/pico/pico-sdk/src/rp2_common/pico_platform/platform.c.obj
 .debug_abbrev  0x000015a6      0x2e9 CMakeFiles/gif_screen_driver.dir/C_/VSARM/sdk/pico/pico-sdk/src/rp2_common/hardware_claim/claim.c.obj
 .debug_abbrev  0x0000188f      0x21b CMakeFiles/gif_screen_driver.dir/C_/VSARM/sdk/pico/pico-sdk/src/rp2_common/hardware_sync/sync.c.obj
 .debug_abbrev  0x00001aaa      0x4e7 CMakeFiles/gif_screen_driver.dir/C_/VSARM/sdk/pico/pico-sdk/src/rp2_common/hardware_irq/irq.c.obj
 .debug_abbrev  0x00001f91      0x329 CMakeFiles/gif_screen_driver.dir/C_/VSARM/sdk/pico/pico-sdk/src/common/pico_sync/sem.c.obj
 .debug_abbrev  0x000022ba      0x116 CMakeFiles/gif_screen_driver.dir/C_/VSARM/sdk/pico/pico-sdk/src/common/pico_sync/lock_core.c.obj
 .debug_abbrev  0x000023d0      0x397 CMakeFiles/gif_screen_driver.dir/C_/VSARM/sdk/pico/pico-sdk/src/common/pico_sync/mutex.c.obj
 .debug_abbrev  0x00002767      0x1aa CMakeFiles/gif_screen_driver.dir/C_/VSARM/sdk/pico/pico-sdk/src/common/pico_sync/critical_section.c.obj
 .debug_abbrev  0x00002911      0x571 CMakeFiles/gif_screen_driver.dir/C_/VSARM/sdk/pico/pico-sdk/src/common/pico_time/time.c.obj
 .debug_abbrev  0x00002e82      0x3b8 CMakeFiles/gif_screen_driver.dir/C_/VSARM/sdk/pico/pico-sdk/src/rp2_common/hardware_timer/timer.c.obj
 .debug_abbrev  0x0000323a      0x297 CMakeFiles/gif_screen_driver.dir/C_/VSARM/sdk/pico/pico-sdk/src/common/pico_util/pheap.c.obj
 .debug_abbrev  0x000034d1      0x3c7 CMakeFiles/gif_screen_driver.dir/C_/VSARM/sdk/pico/pico-sdk/src/rp2_common/hardware_clocks/clocks.c.obj
 .debug_abbrev  0x00003898      0x1ea CMakeFiles/gif_screen_driver.dir/C_/VSARM/sdk/pico/pico-sdk/src/rp2_common/hardware_pll/pll.c.obj
 .debug_abbrev  0x00003a82      0x1a8 CMakeFiles/gif_screen_driver.dir/C_/VSARM/sdk/pico/pico-sdk/src/rp2_common/hardware_watchdog/watchdog.c.obj
 .debug_abbrev  0x00003c2a      0x109 CMakeFiles/gif_screen_driver.dir/C_/VSARM/sdk/pico/pico-sdk/src/rp2_common/hardware_xosc/xosc.c.obj
 .debug_abbrev  0x00003d33      0x4cb CMakeFiles/gif_screen_driver.dir/C_/VSARM/sdk/pico/pico-sdk/src/rp2_common/pico_runtime/runtime.c.obj
 .debug_abbrev  0x000041fe      0x384 CMakeFiles/gif_screen_driver.dir/C_/VSARM/sdk/pico/pico-sdk/src/rp2_common/pico_printf/printf.c.obj
 .debug_abbrev  0x00004582       0x12 CMakeFiles/gif_screen_driver.dir/C_/VSARM/sdk/pico/pico-sdk/src/rp2_common/pico_bit_ops/bit_ops_aeabi.S.obj
 .debug_abbrev  0x00004594      0x13b CMakeFiles/gif_screen_driver.dir/C_/VSARM/sdk/pico/pico-sdk/src/rp2_common/pico_bootrom/bootrom.c.obj
 .debug_abbrev  0x000046cf       0x12 CMakeFiles/gif_screen_driver.dir/C_/VSARM/sdk/pico/pico-sdk/src/rp2_common/pico_divider/divider.S.obj
 .debug_abbrev  0x000046e1       0x12 CMakeFiles/gif_screen_driver.dir/C_/VSARM/sdk/pico/pico-sdk/src/rp2_common/pico_double/double_aeabi.S.obj
 .debug_abbrev  0x000046f3      0x179 CMakeFiles/gif_screen_driver.dir/C_/VSARM/sdk/pico/pico-sdk/src/rp2_common/pico_double/double_init_rom.c.obj
 .debug_abbrev  0x0000486c      0x2e3 CMakeFiles/gif_screen_driver.dir/C_/VSARM/sdk/pico/pico-sdk/src/rp2_common/pico_double/double_math.c.obj
 .debug_abbrev  0x00004b4f       0x12 CMakeFiles/gif_screen_driver.dir/C_/VSARM/sdk/pico/pico-sdk/src/rp2_common/pico_double/double_v1_rom_shim.S.obj
 .debug_abbrev  0x00004b61       0x14 CMakeFiles/gif_screen_driver.dir/C_/VSARM/sdk/pico/pico-sdk/src/rp2_common/pico_int64_ops/pico_int64_ops_aeabi.S.obj
 .debug_abbrev  0x00004b75       0x12 CMakeFiles/gif_screen_driver.dir/C_/VSARM/sdk/pico/pico-sdk/src/rp2_common/pico_float/float_aeabi.S.obj
 .debug_abbrev  0x00004b87      0x18c CMakeFiles/gif_screen_driver.dir/C_/VSARM/sdk/pico/pico-sdk/src/rp2_common/pico_float/float_init_rom.c.obj
 .debug_abbrev  0x00004d13       0x12 CMakeFiles/gif_screen_driver.dir/C_/VSARM/sdk/pico/pico-sdk/src/rp2_common/pico_float/float_v1_rom_shim.S.obj
 .debug_abbrev  0x00004d25      0x1cf CMakeFiles/gif_screen_driver.dir/C_/VSARM/sdk/pico/pico-sdk/src/rp2_common/pico_malloc/pico_malloc.c.obj
 .debug_abbrev  0x00004ef4       0x12 CMakeFiles/gif_screen_driver.dir/C_/VSARM/sdk/pico/pico-sdk/src/rp2_common/pico_mem_ops/mem_ops_aeabi.S.obj
 .debug_abbrev  0x00004f06       0x12 CMakeFiles/gif_screen_driver.dir/C_/VSARM/sdk/pico/pico-sdk/src/rp2_common/pico_standard_link/crt0.S.obj
 .debug_abbrev  0x00004f18       0xad CMakeFiles/gif_screen_driver.dir/C_/VSARM/sdk/pico/pico-sdk/src/rp2_common/pico_standard_link/binary_info.c.obj
 .debug_abbrev  0x00004fc5      0x4a5 CMakeFiles/gif_screen_driver.dir/C_/VSARM/sdk/pico/pico-sdk/src/rp2_common/pico_stdio/stdio.c.obj
 .debug_abbrev  0x0000546a      0x2b2 CMakeFiles/gif_screen_driver.dir/C_/VSARM/sdk/pico/pico-sdk/src/rp2_common/pico_stdio_usb/reset_interface.c.obj
 .debug_abbrev  0x0000571c      0x4c7 CMakeFiles/gif_screen_driver.dir/C_/VSARM/sdk/pico/pico-sdk/src/rp2_common/pico_stdio_usb/stdio_usb.c.obj
 .debug_abbrev  0x00005be3      0x14e CMakeFiles/gif_screen_driver.dir/C_/VSARM/sdk/pico/pico-sdk/src/rp2_common/pico_stdio_usb/stdio_usb_descriptors.c.obj
 .debug_abbrev  0x00005d31      0x163 CMakeFiles/gif_screen_driver.dir/C_/VSARM/sdk/pico/pico-sdk/src/rp2_common/pico_unique_id/unique_id.c.obj
 .debug_abbrev  0x00005e94      0x2b6 CMakeFiles/gif_screen_driver.dir/C_/VSARM/sdk/pico/pico-sdk/src/rp2_common/hardware_flash/flash.c.obj
 .debug_abbrev  0x0000614a      0x4ff CMakeFiles/gif_screen_driver.dir/C_/VSARM/sdk/pico/pico-sdk/lib/tinyusb/src/portable/raspberrypi/rp2040/dcd_rp2040.c.obj
 .debug_abbrev  0x00006649      0x40d CMakeFiles/gif_screen_driver.dir/C_/VSARM/sdk/pico/pico-sdk/lib/tinyusb/src/portable/raspberrypi/rp2040/rp2040_usb.c.obj
 .debug_abbrev  0x00006a56      0x561 CMakeFiles/gif_screen_driver.dir/C_/VSARM/sdk/pico/pico-sdk/lib/tinyusb/src/device/usbd.c.obj
 .debug_abbrev  0x00006fb7      0x309 CMakeFiles/gif_screen_driver.dir/C_/VSARM/sdk/pico/pico-sdk/lib/tinyusb/src/device/usbd_control.c.obj
 .debug_abbrev  0x000072c0      0x463 CMakeFiles/gif_screen_driver.dir/C_/VSARM/sdk/pico/pico-sdk/lib/tinyusb/src/class/cdc/cdc_device.c.obj
 .debug_abbrev  0x00007723      0x41c CMakeFiles/gif_screen_driver.dir/C_/VSARM/sdk/pico/pico-sdk/lib/tinyusb/src/tusb.c.obj
 .debug_abbrev  0x00007b3f      0x437 CMakeFiles/gif_screen_driver.dir/C_/VSARM/sdk/pico/pico-sdk/lib/tinyusb/src/common/tusb_fifo.c.obj
 .debug_abbrev  0x00007f76      0x49f CMakeFiles/gif_screen_driver.dir/C_/VSARM/sdk/pico/pico-sdk/src/rp2_common/pico_multicore/multicore.c.obj
 .debug_abbrev  0x00008415      0x476 CMakeFiles/gif_screen_driver.dir/C_/VSARM/sdk/pico/pico-sdk/src/rp2_common/hardware_i2c/i2c.c.obj
 .debug_abbrev  0x0000888b       0xb8 CMakeFiles/gif_screen_driver.dir/M_/house-projects/Christmas/display-screen-ws2812b/FatFs_SPI/ff15/source/ffsystem.c.obj
 .debug_abbrev  0x00008943       0xf0 CMakeFiles/gif_screen_driver.dir/M_/house-projects/Christmas/display-screen-ws2812b/FatFs_SPI/ff15/source/ffunicode.c.obj
 .debug_abbrev  0x00008a33      0x2f4 CMakeFiles/gif_screen_driver.dir/M_/house-projects/Christmas/display-screen-ws2812b/FatFs_SPI/ff15/source/ff.c.obj
 .debug_abbrev  0x00008d27      0x3e1 CMakeFiles/gif_screen_driver.dir/M_/house-projects/Christmas/display-screen-ws2812b/FatFs_SPI/sd_driver/sd_spi.c.obj
 .debug_abbrev  0x00009108      0x489 CMakeFiles/gif_screen_driver.dir/M_/house-projects/Christmas/display-screen-ws2812b/FatFs_SPI/sd_driver/spi.c.obj
 .debug_abbrev  0x00009591      0x4f1 CMakeFiles/gif_screen_driver.dir/M_/house-projects/Christmas/display-screen-ws2812b/FatFs_SPI/sd_driver/sd_card.c.obj
 .debug_abbrev  0x00009a82      0x10b CMakeFiles/gif_screen_driver.dir/M_/house-projects/Christmas/display-screen-ws2812b/FatFs_SPI/sd_driver/crc.c.obj
 .debug_abbrev  0x00009b8d      0x2c4 CMakeFiles/gif_screen_driver.dir/M_/house-projects/Christmas/display-screen-ws2812b/FatFs_SPI/src/glue.c.obj
 .debug_abbrev  0x00009e51      0x180 CMakeFiles/gif_screen_driver.dir/M_/house-projects/Christmas/display-screen-ws2812b/FatFs_SPI/src/f_util.c.obj
 .debug_abbrev  0x00009fd1      0x270 CMakeFiles/gif_screen_driver.dir/M_/house-projects/Christmas/display-screen-ws2812b/FatFs_SPI/src/my_debug.c.obj
 .debug_abbrev  0x0000a241      0x25f CMakeFiles/gif_screen_driver.dir/M_/house-projects/Christmas/display-screen-ws2812b/FatFs_SPI/src/rtc.c.obj
 .debug_abbrev  0x0000a4a0      0x2ca CMakeFiles/gif_screen_driver.dir/C_/VSARM/sdk/pico/pico-sdk/src/rp2_common/hardware_spi/spi.c.obj
 .debug_abbrev  0x0000a76a      0x258 CMakeFiles/gif_screen_driver.dir/C_/VSARM/sdk/pico/pico-sdk/src/rp2_common/hardware_dma/dma.c.obj
 .debug_abbrev  0x0000a9c2      0x263 CMakeFiles/gif_screen_driver.dir/C_/VSARM/sdk/pico/pico-sdk/src/rp2_common/hardware_rtc/rtc.c.obj

.debug_loc      0x00000000    0x38a54
 .debug_loc     0x00000000      0xebf CMakeFiles/gif_screen_driver.dir/gif_screen_driver.c.obj
 .debug_loc     0x00000ebf       0x7e CMakeFiles/gif_screen_driver.dir/hw_config.c.obj
 .debug_loc     0x00000f3d     0x116b CMakeFiles/gif_screen_driver.dir/gifdec.c.obj
 .debug_loc     0x000020a8     0x1aad CMakeFiles/gif_screen_driver.dir/ssd1306.c.obj
 .debug_loc     0x00003b55      0x296 CMakeFiles/gif_screen_driver.dir/C_/VSARM/sdk/pico/pico-sdk/src/rp2_common/pico_stdlib/stdlib.c.obj
 .debug_loc     0x00003deb     0x1237 CMakeFiles/gif_screen_driver.dir/C_/VSARM/sdk/pico/pico-sdk/src/rp2_common/hardware_gpio/gpio.c.obj
 .debug_loc     0x00005022       0xe9 CMakeFiles/gif_screen_driver.dir/C_/VSARM/sdk/pico/pico-sdk/src/rp2_common/pico_platform/platform.c.obj
 .debug_loc     0x0000510b      0x45f CMakeFiles/gif_screen_driver.dir/C_/VSARM/sdk/pico/pico-sdk/src/rp2_common/hardware_claim/claim.c.obj
 .debug_loc     0x0000556a      0x233 CMakeFiles/gif_screen_driver.dir/C_/VSARM/sdk/pico/pico-sdk/src/rp2_common/hardware_sync/sync.c.obj
 .debug_loc     0x0000579d     0x13f5 CMakeFiles/gif_screen_driver.dir/C_/VSARM/sdk/pico/pico-sdk/src/rp2_common/hardware_irq/irq.c.obj
 .debug_loc     0x00006b92      0xba2 CMakeFiles/gif_screen_driver.dir/C_/VSARM/sdk/pico/pico-sdk/src/common/pico_sync/sem.c.obj
 .debug_loc     0x00007734       0x60 CMakeFiles/gif_screen_driver.dir/C_/VSARM/sdk/pico/pico-sdk/src/common/pico_sync/lock_core.c.obj
 .debug_loc     0x00007794     0x152e CMakeFiles/gif_screen_driver.dir/C_/VSARM/sdk/pico/pico-sdk/src/common/pico_sync/mutex.c.obj
 .debug_loc     0x00008cc2       0xf5 CMakeFiles/gif_screen_driver.dir/C_/VSARM/sdk/pico/pico-sdk/src/common/pico_sync/critical_section.c.obj
 .debug_loc     0x00008db7     0x31e5 CMakeFiles/gif_screen_driver.dir/C_/VSARM/sdk/pico/pico-sdk/src/common/pico_time/time.c.obj
 .debug_loc     0x0000bf9c      0xacb CMakeFiles/gif_screen_driver.dir/C_/VSARM/sdk/pico/pico-sdk/src/rp2_common/hardware_timer/timer.c.obj
 .debug_loc     0x0000ca67     0x1446 CMakeFiles/gif_screen_driver.dir/C_/VSARM/sdk/pico/pico-sdk/src/common/pico_util/pheap.c.obj
 .debug_loc     0x0000dead      0x832 CMakeFiles/gif_screen_driver.dir/C_/VSARM/sdk/pico/pico-sdk/src/rp2_common/hardware_clocks/clocks.c.obj
 .debug_loc     0x0000e6df      0x310 CMakeFiles/gif_screen_driver.dir/C_/VSARM/sdk/pico/pico-sdk/src/rp2_common/hardware_pll/pll.c.obj
 .debug_loc     0x0000e9ef      0x2ec CMakeFiles/gif_screen_driver.dir/C_/VSARM/sdk/pico/pico-sdk/src/rp2_common/hardware_watchdog/watchdog.c.obj
 .debug_loc     0x0000ecdb       0x71 CMakeFiles/gif_screen_driver.dir/C_/VSARM/sdk/pico/pico-sdk/src/rp2_common/hardware_xosc/xosc.c.obj
 .debug_loc     0x0000ed4c      0x674 CMakeFiles/gif_screen_driver.dir/C_/VSARM/sdk/pico/pico-sdk/src/rp2_common/pico_runtime/runtime.c.obj
 .debug_loc     0x0000f3c0     0x2095 CMakeFiles/gif_screen_driver.dir/C_/VSARM/sdk/pico/pico-sdk/src/rp2_common/pico_printf/printf.c.obj
 .debug_loc     0x00011455      0x1a1 CMakeFiles/gif_screen_driver.dir/C_/VSARM/sdk/pico/pico-sdk/src/rp2_common/pico_bootrom/bootrom.c.obj
 .debug_loc     0x000115f6       0x59 CMakeFiles/gif_screen_driver.dir/C_/VSARM/sdk/pico/pico-sdk/src/rp2_common/pico_double/double_init_rom.c.obj
 .debug_loc     0x0001164f     0x7f1a CMakeFiles/gif_screen_driver.dir/C_/VSARM/sdk/pico/pico-sdk/src/rp2_common/pico_double/double_math.c.obj
 .debug_loc     0x00019569       0x73 CMakeFiles/gif_screen_driver.dir/C_/VSARM/sdk/pico/pico-sdk/src/rp2_common/pico_float/float_init_rom.c.obj
 .debug_loc     0x000195dc      0x2dc CMakeFiles/gif_screen_driver.dir/C_/VSARM/sdk/pico/pico-sdk/src/rp2_common/pico_malloc/pico_malloc.c.obj
 .debug_loc     0x000198b8      0xe22 CMakeFiles/gif_screen_driver.dir/C_/VSARM/sdk/pico/pico-sdk/src/rp2_common/pico_stdio/stdio.c.obj
 .debug_loc     0x0001a6da      0x38e CMakeFiles/gif_screen_driver.dir/C_/VSARM/sdk/pico/pico-sdk/src/rp2_common/pico_stdio_usb/reset_interface.c.obj
 .debug_loc     0x0001aa68      0xd2a CMakeFiles/gif_screen_driver.dir/C_/VSARM/sdk/pico/pico-sdk/src/rp2_common/pico_stdio_usb/stdio_usb.c.obj
 .debug_loc     0x0001b792      0x109 CMakeFiles/gif_screen_driver.dir/C_/VSARM/sdk/pico/pico-sdk/src/rp2_common/pico_stdio_usb/stdio_usb_descriptors.c.obj
 .debug_loc     0x0001b89b       0xff CMakeFiles/gif_screen_driver.dir/C_/VSARM/sdk/pico/pico-sdk/src/rp2_common/pico_unique_id/unique_id.c.obj
 .debug_loc     0x0001b99a      0x909 CMakeFiles/gif_screen_driver.dir/C_/VSARM/sdk/pico/pico-sdk/src/rp2_common/hardware_flash/flash.c.obj
 .debug_loc     0x0001c2a3      0xebe CMakeFiles/gif_screen_driver.dir/C_/VSARM/sdk/pico/pico-sdk/lib/tinyusb/src/portable/raspberrypi/rp2040/dcd_rp2040.c.obj
 .debug_loc     0x0001d161      0x7a9 CMakeFiles/gif_screen_driver.dir/C_/VSARM/sdk/pico/pico-sdk/lib/tinyusb/src/portable/raspberrypi/rp2040/rp2040_usb.c.obj
 .debug_loc     0x0001d90a     0x2449 CMakeFiles/gif_screen_driver.dir/C_/VSARM/sdk/pico/pico-sdk/lib/tinyusb/src/device/usbd.c.obj
 .debug_loc     0x0001fd53      0x4de CMakeFiles/gif_screen_driver.dir/C_/VSARM/sdk/pico/pico-sdk/lib/tinyusb/src/device/usbd_control.c.obj
 .debug_loc     0x00020231     0x1188 CMakeFiles/gif_screen_driver.dir/C_/VSARM/sdk/pico/pico-sdk/lib/tinyusb/src/class/cdc/cdc_device.c.obj
 .debug_loc     0x000213b9      0xe2f CMakeFiles/gif_screen_driver.dir/C_/VSARM/sdk/pico/pico-sdk/lib/tinyusb/src/tusb.c.obj
 .debug_loc     0x000221e8     0x2b8e CMakeFiles/gif_screen_driver.dir/C_/VSARM/sdk/pico/pico-sdk/lib/tinyusb/src/common/tusb_fifo.c.obj
 .debug_loc     0x00024d76      0xf93 CMakeFiles/gif_screen_driver.dir/C_/VSARM/sdk/pico/pico-sdk/src/rp2_common/pico_multicore/multicore.c.obj
 .debug_loc     0x00025d09     0x1359 CMakeFiles/gif_screen_driver.dir/C_/VSARM/sdk/pico/pico-sdk/src/rp2_common/hardware_i2c/i2c.c.obj
 .debug_loc     0x00027062       0x4a CMakeFiles/gif_screen_driver.dir/M_/house-projects/Christmas/display-screen-ws2812b/FatFs_SPI/ff15/source/ffsystem.c.obj
 .debug_loc     0x000270ac      0x47d CMakeFiles/gif_screen_driver.dir/M_/house-projects/Christmas/display-screen-ws2812b/FatFs_SPI/ff15/source/ffunicode.c.obj
 .debug_loc     0x00027529     0xbc4d CMakeFiles/gif_screen_driver.dir/M_/house-projects/Christmas/display-screen-ws2812b/FatFs_SPI/ff15/source/ff.c.obj
 .debug_loc     0x00033176      0x6a0 CMakeFiles/gif_screen_driver.dir/M_/house-projects/Christmas/display-screen-ws2812b/FatFs_SPI/sd_driver/sd_spi.c.obj
 .debug_loc     0x00033816     0x11e8 CMakeFiles/gif_screen_driver.dir/M_/house-projects/Christmas/display-screen-ws2812b/FatFs_SPI/sd_driver/spi.c.obj
 .debug_loc     0x000349fe     0x20a4 CMakeFiles/gif_screen_driver.dir/M_/house-projects/Christmas/display-screen-ws2812b/FatFs_SPI/sd_driver/sd_card.c.obj
 .debug_loc     0x00036aa2      0x12d CMakeFiles/gif_screen_driver.dir/M_/house-projects/Christmas/display-screen-ws2812b/FatFs_SPI/sd_driver/crc.c.obj
 .debug_loc     0x00036bcf      0x420 CMakeFiles/gif_screen_driver.dir/M_/house-projects/Christmas/display-screen-ws2812b/FatFs_SPI/src/glue.c.obj
 .debug_loc     0x00036fef      0x1b5 CMakeFiles/gif_screen_driver.dir/M_/house-projects/Christmas/display-screen-ws2812b/FatFs_SPI/src/f_util.c.obj
 .debug_loc     0x000371a4       0xb9 CMakeFiles/gif_screen_driver.dir/M_/house-projects/Christmas/display-screen-ws2812b/FatFs_SPI/src/my_debug.c.obj
 .debug_loc     0x0003725d      0x2a3 CMakeFiles/gif_screen_driver.dir/M_/house-projects/Christmas/display-screen-ws2812b/FatFs_SPI/src/rtc.c.obj
 .debug_loc     0x00037500      0xc12 CMakeFiles/gif_screen_driver.dir/C_/VSARM/sdk/pico/pico-sdk/src/rp2_common/hardware_spi/spi.c.obj
 .debug_loc     0x00038112      0x3dd CMakeFiles/gif_screen_driver.dir/C_/VSARM/sdk/pico/pico-sdk/src/rp2_common/hardware_dma/dma.c.obj
 .debug_loc     0x000384ef      0x565 CMakeFiles/gif_screen_driver.dir/C_/VSARM/sdk/pico/pico-sdk/src/rp2_common/hardware_rtc/rtc.c.obj

.debug_aranges  0x00000000     0x2140
 .debug_aranges
                0x00000000       0x98 CMakeFiles/gif_screen_driver.dir/gif_screen_driver.c.obj
 .debug_aranges
                0x00000098       0x38 CMakeFiles/gif_screen_driver.dir/hw_config.c.obj
 .debug_aranges
                0x000000d0       0xd0 CMakeFiles/gif_screen_driver.dir/gifdec.c.obj
 .debug_aranges
                0x000001a0       0xb8 CMakeFiles/gif_screen_driver.dir/ssd1306.c.obj
 .debug_aranges
                0x00000258       0x38 CMakeFiles/gif_screen_driver.dir/C_/VSARM/sdk/pico/pico-sdk/src/rp2_common/pico_stdlib/stdlib.c.obj
 .debug_aranges
                0x00000290      0x100 CMakeFiles/gif_screen_driver.dir/C_/VSARM/sdk/pico/pico-sdk/src/rp2_common/hardware_gpio/gpio.c.obj
 .debug_aranges
                0x00000390       0x28 CMakeFiles/gif_screen_driver.dir/C_/VSARM/sdk/pico/pico-sdk/src/rp2_common/pico_platform/platform.c.obj
 .debug_aranges
                0x000003b8       0x48 CMakeFiles/gif_screen_driver.dir/C_/VSARM/sdk/pico/pico-sdk/src/rp2_common/hardware_claim/claim.c.obj
 .debug_aranges
                0x00000400       0x58 CMakeFiles/gif_screen_driver.dir/C_/VSARM/sdk/pico/pico-sdk/src/rp2_common/hardware_sync/sync.c.obj
 .debug_aranges
                0x00000458       0xc8 CMakeFiles/gif_screen_driver.dir/C_/VSARM/sdk/pico/pico-sdk/src/rp2_common/hardware_irq/irq.c.obj
 .debug_aranges
                0x00000520       0x60 CMakeFiles/gif_screen_driver.dir/C_/VSARM/sdk/pico/pico-sdk/src/common/pico_sync/sem.c.obj
 .debug_aranges
                0x00000580       0x20 CMakeFiles/gif_screen_driver.dir/C_/VSARM/sdk/pico/pico-sdk/src/common/pico_sync/lock_core.c.obj
 .debug_aranges
                0x000005a0       0x90 CMakeFiles/gif_screen_driver.dir/C_/VSARM/sdk/pico/pico-sdk/src/common/pico_sync/mutex.c.obj
 .debug_aranges
                0x00000630       0x30 CMakeFiles/gif_screen_driver.dir/C_/VSARM/sdk/pico/pico-sdk/src/common/pico_sync/critical_section.c.obj
 .debug_aranges
                0x00000660       0xe8 CMakeFiles/gif_screen_driver.dir/C_/VSARM/sdk/pico/pico-sdk/src/common/pico_time/time.c.obj
 .debug_aranges
                0x00000748       0x88 CMakeFiles/gif_screen_driver.dir/C_/VSARM/sdk/pico/pico-sdk/src/rp2_common/hardware_timer/timer.c.obj
 .debug_aranges
                0x000007d0       0x78 CMakeFiles/gif_screen_driver.dir/C_/VSARM/sdk/pico/pico-sdk/src/common/pico_util/pheap.c.obj
 .debug_aranges
                0x00000848       0x70 CMakeFiles/gif_screen_driver.dir/C_/VSARM/sdk/pico/pico-sdk/src/rp2_common/hardware_clocks/clocks.c.obj
 .debug_aranges
                0x000008b8       0x28 CMakeFiles/gif_screen_driver.dir/C_/VSARM/sdk/pico/pico-sdk/src/rp2_common/hardware_pll/pll.c.obj
 .debug_aranges
                0x000008e0       0x58 CMakeFiles/gif_screen_driver.dir/C_/VSARM/sdk/pico/pico-sdk/src/rp2_common/hardware_watchdog/watchdog.c.obj
 .debug_aranges
                0x00000938       0x30 CMakeFiles/gif_screen_driver.dir/C_/VSARM/sdk/pico/pico-sdk/src/rp2_common/hardware_xosc/xosc.c.obj
 .debug_aranges
                0x00000968       0x88 CMakeFiles/gif_screen_driver.dir/C_/VSARM/sdk/pico/pico-sdk/src/rp2_common/pico_runtime/runtime.c.obj
 .debug_aranges
                0x000009f0       0x90 CMakeFiles/gif_screen_driver.dir/C_/VSARM/sdk/pico/pico-sdk/src/rp2_common/pico_printf/printf.c.obj
 .debug_aranges
                0x00000a80       0x68 CMakeFiles/gif_screen_driver.dir/C_/VSARM/sdk/pico/pico-sdk/src/rp2_common/pico_bit_ops/bit_ops_aeabi.S.obj
 .debug_aranges
                0x00000ae8       0x30 CMakeFiles/gif_screen_driver.dir/C_/VSARM/sdk/pico/pico-sdk/src/rp2_common/pico_bootrom/bootrom.c.obj
 .debug_aranges
                0x00000b18       0x40 CMakeFiles/gif_screen_driver.dir/C_/VSARM/sdk/pico/pico-sdk/src/rp2_common/pico_divider/divider.S.obj
 .debug_aranges
                0x00000b58      0x140 CMakeFiles/gif_screen_driver.dir/C_/VSARM/sdk/pico/pico-sdk/src/rp2_common/pico_double/double_aeabi.S.obj
 .debug_aranges
                0x00000c98       0x20 CMakeFiles/gif_screen_driver.dir/C_/VSARM/sdk/pico/pico-sdk/src/rp2_common/pico_double/double_init_rom.c.obj
 .debug_aranges
                0x00000cb8      0x130 CMakeFiles/gif_screen_driver.dir/C_/VSARM/sdk/pico/pico-sdk/src/rp2_common/pico_double/double_math.c.obj
 .debug_aranges
                0x00000de8       0xc8 CMakeFiles/gif_screen_driver.dir/C_/VSARM/sdk/pico/pico-sdk/src/rp2_common/pico_double/double_v1_rom_shim.S.obj
 .debug_aranges
                0x00000eb0       0x20 CMakeFiles/gif_screen_driver.dir/C_/VSARM/sdk/pico/pico-sdk/src/rp2_common/pico_int64_ops/pico_int64_ops_aeabi.S.obj
 .debug_aranges
                0x00000ed0      0x130 CMakeFiles/gif_screen_driver.dir/C_/VSARM/sdk/pico/pico-sdk/src/rp2_common/pico_float/float_aeabi.S.obj
 .debug_aranges
                0x00001000       0x20 CMakeFiles/gif_screen_driver.dir/C_/VSARM/sdk/pico/pico-sdk/src/rp2_common/pico_float/float_init_rom.c.obj
 .debug_aranges
                0x00001020       0x50 CMakeFiles/gif_screen_driver.dir/C_/VSARM/sdk/pico/pico-sdk/src/rp2_common/pico_float/float_v1_rom_shim.S.obj
 .debug_aranges
                0x00001070       0x38 CMakeFiles/gif_screen_driver.dir/C_/VSARM/sdk/pico/pico-sdk/src/rp2_common/pico_malloc/pico_malloc.c.obj
 .debug_aranges
                0x000010a8       0x38 CMakeFiles/gif_screen_driver.dir/C_/VSARM/sdk/pico/pico-sdk/src/rp2_common/pico_mem_ops/mem_ops_aeabi.S.obj
 .debug_aranges
                0x000010e0       0x28 CMakeFiles/gif_screen_driver.dir/C_/VSARM/sdk/pico/pico-sdk/src/rp2_common/pico_standard_link/crt0.S.obj
 .debug_aranges
                0x00001108       0x18 CMakeFiles/gif_screen_driver.dir/C_/VSARM/sdk/pico/pico-sdk/src/rp2_common/pico_standard_link/binary_info.c.obj
 .debug_aranges
                0x00001120      0x100 CMakeFiles/gif_screen_driver.dir/C_/VSARM/sdk/pico/pico-sdk/src/rp2_common/pico_stdio/stdio.c.obj
 .debug_aranges
                0x00001220       0x58 CMakeFiles/gif_screen_driver.dir/C_/VSARM/sdk/pico/pico-sdk/src/rp2_common/pico_stdio_usb/reset_interface.c.obj
 .debug_aranges
                0x00001278       0x60 CMakeFiles/gif_screen_driver.dir/C_/VSARM/sdk/pico/pico-sdk/src/rp2_common/pico_stdio_usb/stdio_usb.c.obj
 .debug_aranges
                0x000012d8       0x30 CMakeFiles/gif_screen_driver.dir/C_/VSARM/sdk/pico/pico-sdk/src/rp2_common/pico_stdio_usb/stdio_usb_descriptors.c.obj
 .debug_aranges
                0x00001308       0x30 CMakeFiles/gif_screen_driver.dir/C_/VSARM/sdk/pico/pico-sdk/src/rp2_common/pico_unique_id/unique_id.c.obj
 .debug_aranges
                0x00001338       0x50 CMakeFiles/gif_screen_driver.dir/C_/VSARM/sdk/pico/pico-sdk/src/rp2_common/hardware_flash/flash.c.obj
 .debug_aranges
                0x00001388       0xe0 CMakeFiles/gif_screen_driver.dir/C_/VSARM/sdk/pico/pico-sdk/lib/tinyusb/src/portable/raspberrypi/rp2040/dcd_rp2040.c.obj
 .debug_aranges
                0x00001468       0x70 CMakeFiles/gif_screen_driver.dir/C_/VSARM/sdk/pico/pico-sdk/lib/tinyusb/src/portable/raspberrypi/rp2040/rp2040_usb.c.obj
 .debug_aranges
                0x000014d8      0x118 CMakeFiles/gif_screen_driver.dir/C_/VSARM/sdk/pico/pico-sdk/lib/tinyusb/src/device/usbd.c.obj
 .debug_aranges
                0x000015f0       0x50 CMakeFiles/gif_screen_driver.dir/C_/VSARM/sdk/pico/pico-sdk/lib/tinyusb/src/device/usbd_control.c.obj
 .debug_aranges
                0x00001640       0xa8 CMakeFiles/gif_screen_driver.dir/C_/VSARM/sdk/pico/pico-sdk/lib/tinyusb/src/class/cdc/cdc_device.c.obj
 .debug_aranges
                0x000016e8       0x98 CMakeFiles/gif_screen_driver.dir/C_/VSARM/sdk/pico/pico-sdk/lib/tinyusb/src/tusb.c.obj
 .debug_aranges
                0x00001780      0x108 CMakeFiles/gif_screen_driver.dir/C_/VSARM/sdk/pico/pico-sdk/lib/tinyusb/src/common/tusb_fifo.c.obj
 .debug_aranges
                0x00001888       0xc0 CMakeFiles/gif_screen_driver.dir/C_/VSARM/sdk/pico/pico-sdk/src/rp2_common/pico_multicore/multicore.c.obj
 .debug_aranges
                0x00001948       0x78 CMakeFiles/gif_screen_driver.dir/C_/VSARM/sdk/pico/pico-sdk/src/rp2_common/hardware_i2c/i2c.c.obj
 .debug_aranges
                0x000019c0       0x28 CMakeFiles/gif_screen_driver.dir/M_/house-projects/Christmas/display-screen-ws2812b/FatFs_SPI/ff15/source/ffsystem.c.obj
 .debug_aranges
                0x000019e8       0x30 CMakeFiles/gif_screen_driver.dir/M_/house-projects/Christmas/display-screen-ws2812b/FatFs_SPI/ff15/source/ffunicode.c.obj
 .debug_aranges
                0x00001a18      0x320 CMakeFiles/gif_screen_driver.dir/M_/house-projects/Christmas/display-screen-ws2812b/FatFs_SPI/ff15/source/ff.c.obj
 .debug_aranges
                0x00001d38       0x80 CMakeFiles/gif_screen_driver.dir/M_/house-projects/Christmas/display-screen-ws2812b/FatFs_SPI/sd_driver/sd_spi.c.obj
 .debug_aranges
                0x00001db8       0x58 CMakeFiles/gif_screen_driver.dir/M_/house-projects/Christmas/display-screen-ws2812b/FatFs_SPI/sd_driver/spi.c.obj
 .debug_aranges
                0x00001e10       0xe8 CMakeFiles/gif_screen_driver.dir/M_/house-projects/Christmas/display-screen-ws2812b/FatFs_SPI/sd_driver/sd_card.c.obj
 .debug_aranges
                0x00001ef8       0x30 CMakeFiles/gif_screen_driver.dir/M_/house-projects/Christmas/display-screen-ws2812b/FatFs_SPI/sd_driver/crc.c.obj
 .debug_aranges
                0x00001f28       0x48 CMakeFiles/gif_screen_driver.dir/M_/house-projects/Christmas/display-screen-ws2812b/FatFs_SPI/src/glue.c.obj
 .debug_aranges
                0x00001f70       0x28 CMakeFiles/gif_screen_driver.dir/M_/house-projects/Christmas/display-screen-ws2812b/FatFs_SPI/src/f_util.c.obj
 .debug_aranges
                0x00001f98       0x28 CMakeFiles/gif_screen_driver.dir/M_/house-projects/Christmas/display-screen-ws2812b/FatFs_SPI/src/my_debug.c.obj
 .debug_aranges
                0x00001fc0       0x38 CMakeFiles/gif_screen_driver.dir/M_/house-projects/Christmas/display-screen-ws2812b/FatFs_SPI/src/rtc.c.obj
 .debug_aranges
                0x00001ff8       0x68 CMakeFiles/gif_screen_driver.dir/C_/VSARM/sdk/pico/pico-sdk/src/rp2_common/hardware_spi/spi.c.obj
 .debug_aranges
                0x00002060       0x78 CMakeFiles/gif_screen_driver.dir/C_/VSARM/sdk/pico/pico-sdk/src/rp2_common/hardware_dma/dma.c.obj
 .debug_aranges
                0x000020d8       0x68 CMakeFiles/gif_screen_driver.dir/C_/VSARM/sdk/pico/pico-sdk/src/rp2_common/hardware_rtc/rtc.c.obj

.debug_ranges   0x00000000     0x73e8
 .debug_ranges  0x00000000      0x200 CMakeFiles/gif_screen_driver.dir/gif_screen_driver.c.obj
 .debug_ranges  0x00000200       0x28 CMakeFiles/gif_screen_driver.dir/hw_config.c.obj
 .debug_ranges  0x00000228       0xc0 CMakeFiles/gif_screen_driver.dir/gifdec.c.obj
 .debug_ranges  0x000002e8      0x300 CMakeFiles/gif_screen_driver.dir/ssd1306.c.obj
 .debug_ranges  0x000005e8       0x98 CMakeFiles/gif_screen_driver.dir/C_/VSARM/sdk/pico/pico-sdk/src/rp2_common/pico_stdlib/stdlib.c.obj
 .debug_ranges  0x00000680      0x150 CMakeFiles/gif_screen_driver.dir/C_/VSARM/sdk/pico/pico-sdk/src/rp2_common/hardware_gpio/gpio.c.obj
 .debug_ranges  0x000007d0       0x18 CMakeFiles/gif_screen_driver.dir/C_/VSARM/sdk/pico/pico-sdk/src/rp2_common/pico_platform/platform.c.obj
 .debug_ranges  0x000007e8       0xd8 CMakeFiles/gif_screen_driver.dir/C_/VSARM/sdk/pico/pico-sdk/src/rp2_common/hardware_claim/claim.c.obj
 .debug_ranges  0x000008c0       0xf0 CMakeFiles/gif_screen_driver.dir/C_/VSARM/sdk/pico/pico-sdk/src/rp2_common/hardware_sync/sync.c.obj
 .debug_ranges  0x000009b0      0x400 CMakeFiles/gif_screen_driver.dir/C_/VSARM/sdk/pico/pico-sdk/src/rp2_common/hardware_irq/irq.c.obj
 .debug_ranges  0x00000db0      0x6b0 CMakeFiles/gif_screen_driver.dir/C_/VSARM/sdk/pico/pico-sdk/src/common/pico_sync/sem.c.obj
 .debug_ranges  0x00001460       0x10 CMakeFiles/gif_screen_driver.dir/C_/VSARM/sdk/pico/pico-sdk/src/common/pico_sync/lock_core.c.obj
 .debug_ranges  0x00001470      0xac0 CMakeFiles/gif_screen_driver.dir/C_/VSARM/sdk/pico/pico-sdk/src/common/pico_sync/mutex.c.obj
 .debug_ranges  0x00001f30       0x38 CMakeFiles/gif_screen_driver.dir/C_/VSARM/sdk/pico/pico-sdk/src/common/pico_sync/critical_section.c.obj
 .debug_ranges  0x00001f68      0xcb8 CMakeFiles/gif_screen_driver.dir/C_/VSARM/sdk/pico/pico-sdk/src/common/pico_time/time.c.obj
 .debug_ranges  0x00002c20      0x3d0 CMakeFiles/gif_screen_driver.dir/C_/VSARM/sdk/pico/pico-sdk/src/rp2_common/hardware_timer/timer.c.obj
 .debug_ranges  0x00002ff0      0x248 CMakeFiles/gif_screen_driver.dir/C_/VSARM/sdk/pico/pico-sdk/src/common/pico_util/pheap.c.obj
 .debug_ranges  0x00003238       0x60 CMakeFiles/gif_screen_driver.dir/C_/VSARM/sdk/pico/pico-sdk/src/rp2_common/hardware_clocks/clocks.c.obj
 .debug_ranges  0x00003298       0x30 CMakeFiles/gif_screen_driver.dir/C_/VSARM/sdk/pico/pico-sdk/src/rp2_common/hardware_pll/pll.c.obj
 .debug_ranges  0x000032c8       0x48 CMakeFiles/gif_screen_driver.dir/C_/VSARM/sdk/pico/pico-sdk/src/rp2_common/hardware_watchdog/watchdog.c.obj
 .debug_ranges  0x00003310       0x20 CMakeFiles/gif_screen_driver.dir/C_/VSARM/sdk/pico/pico-sdk/src/rp2_common/hardware_xosc/xosc.c.obj
 .debug_ranges  0x00003330      0x168 CMakeFiles/gif_screen_driver.dir/C_/VSARM/sdk/pico/pico-sdk/src/rp2_common/pico_runtime/runtime.c.obj
 .debug_ranges  0x00003498      0x108 CMakeFiles/gif_screen_driver.dir/C_/VSARM/sdk/pico/pico-sdk/src/rp2_common/pico_printf/printf.c.obj
 .debug_ranges  0x000035a0       0x60 CMakeFiles/gif_screen_driver.dir/C_/VSARM/sdk/pico/pico-sdk/src/rp2_common/pico_bit_ops/bit_ops_aeabi.S.obj
 .debug_ranges  0x00003600       0x38 CMakeFiles/gif_screen_driver.dir/C_/VSARM/sdk/pico/pico-sdk/src/rp2_common/pico_bootrom/bootrom.c.obj
 .debug_ranges  0x00003638       0x38 CMakeFiles/gif_screen_driver.dir/C_/VSARM/sdk/pico/pico-sdk/src/rp2_common/pico_divider/divider.S.obj
 .debug_ranges  0x00003670      0x138 CMakeFiles/gif_screen_driver.dir/C_/VSARM/sdk/pico/pico-sdk/src/rp2_common/pico_double/double_aeabi.S.obj
 .debug_ranges  0x000037a8       0x30 CMakeFiles/gif_screen_driver.dir/C_/VSARM/sdk/pico/pico-sdk/src/rp2_common/pico_double/double_init_rom.c.obj
 .debug_ranges  0x000037d8      0x5e8 CMakeFiles/gif_screen_driver.dir/C_/VSARM/sdk/pico/pico-sdk/src/rp2_common/pico_double/double_math.c.obj
 .debug_ranges  0x00003dc0       0xc0 CMakeFiles/gif_screen_driver.dir/C_/VSARM/sdk/pico/pico-sdk/src/rp2_common/pico_double/double_v1_rom_shim.S.obj
 .debug_ranges  0x00003e80      0x128 CMakeFiles/gif_screen_driver.dir/C_/VSARM/sdk/pico/pico-sdk/src/rp2_common/pico_float/float_aeabi.S.obj
 .debug_ranges  0x00003fa8       0x28 CMakeFiles/gif_screen_driver.dir/C_/VSARM/sdk/pico/pico-sdk/src/rp2_common/pico_float/float_init_rom.c.obj
 .debug_ranges  0x00003fd0       0x48 CMakeFiles/gif_screen_driver.dir/C_/VSARM/sdk/pico/pico-sdk/src/rp2_common/pico_float/float_v1_rom_shim.S.obj
 .debug_ranges  0x00004018       0x70 CMakeFiles/gif_screen_driver.dir/C_/VSARM/sdk/pico/pico-sdk/src/rp2_common/pico_malloc/pico_malloc.c.obj
 .debug_ranges  0x00004088       0x30 CMakeFiles/gif_screen_driver.dir/C_/VSARM/sdk/pico/pico-sdk/src/rp2_common/pico_mem_ops/mem_ops_aeabi.S.obj
 .debug_ranges  0x000040b8       0x20 CMakeFiles/gif_screen_driver.dir/C_/VSARM/sdk/pico/pico-sdk/src/rp2_common/pico_standard_link/crt0.S.obj
 .debug_ranges  0x000040d8      0x258 CMakeFiles/gif_screen_driver.dir/C_/VSARM/sdk/pico/pico-sdk/src/rp2_common/pico_stdio/stdio.c.obj
 .debug_ranges  0x00004330       0x48 CMakeFiles/gif_screen_driver.dir/C_/VSARM/sdk/pico/pico-sdk/src/rp2_common/pico_stdio_usb/reset_interface.c.obj
 .debug_ranges  0x00004378      0x470 CMakeFiles/gif_screen_driver.dir/C_/VSARM/sdk/pico/pico-sdk/src/rp2_common/pico_stdio_usb/stdio_usb.c.obj
 .debug_ranges  0x000047e8       0x20 CMakeFiles/gif_screen_driver.dir/C_/VSARM/sdk/pico/pico-sdk/src/rp2_common/pico_stdio_usb/stdio_usb_descriptors.c.obj
 .debug_ranges  0x00004808       0x38 CMakeFiles/gif_screen_driver.dir/C_/VSARM/sdk/pico/pico-sdk/src/rp2_common/pico_unique_id/unique_id.c.obj
 .debug_ranges  0x00004840       0x58 CMakeFiles/gif_screen_driver.dir/C_/VSARM/sdk/pico/pico-sdk/src/rp2_common/hardware_flash/flash.c.obj
 .debug_ranges  0x00004898      0x1b8 CMakeFiles/gif_screen_driver.dir/C_/VSARM/sdk/pico/pico-sdk/lib/tinyusb/src/portable/raspberrypi/rp2040/dcd_rp2040.c.obj
 .debug_ranges  0x00004a50       0x78 CMakeFiles/gif_screen_driver.dir/C_/VSARM/sdk/pico/pico-sdk/lib/tinyusb/src/portable/raspberrypi/rp2040/rp2040_usb.c.obj
 .debug_ranges  0x00004ac8      0xb78 CMakeFiles/gif_screen_driver.dir/C_/VSARM/sdk/pico/pico-sdk/lib/tinyusb/src/device/usbd.c.obj
 .debug_ranges  0x00005640       0x88 CMakeFiles/gif_screen_driver.dir/C_/VSARM/sdk/pico/pico-sdk/lib/tinyusb/src/device/usbd_control.c.obj
 .debug_ranges  0x000056c8      0x128 CMakeFiles/gif_screen_driver.dir/C_/VSARM/sdk/pico/pico-sdk/lib/tinyusb/src/class/cdc/cdc_device.c.obj
 .debug_ranges  0x000057f0      0x170 CMakeFiles/gif_screen_driver.dir/C_/VSARM/sdk/pico/pico-sdk/lib/tinyusb/src/tusb.c.obj
 .debug_ranges  0x00005960      0x370 CMakeFiles/gif_screen_driver.dir/C_/VSARM/sdk/pico/pico-sdk/lib/tinyusb/src/common/tusb_fifo.c.obj
 .debug_ranges  0x00005cd0      0x328 CMakeFiles/gif_screen_driver.dir/C_/VSARM/sdk/pico/pico-sdk/src/rp2_common/pico_multicore/multicore.c.obj
 .debug_ranges  0x00005ff8      0x198 CMakeFiles/gif_screen_driver.dir/C_/VSARM/sdk/pico/pico-sdk/src/rp2_common/hardware_i2c/i2c.c.obj
 .debug_ranges  0x00006190       0x18 CMakeFiles/gif_screen_driver.dir/M_/house-projects/Christmas/display-screen-ws2812b/FatFs_SPI/ff15/source/ffsystem.c.obj
 .debug_ranges  0x000061a8       0x20 CMakeFiles/gif_screen_driver.dir/M_/house-projects/Christmas/display-screen-ws2812b/FatFs_SPI/ff15/source/ffunicode.c.obj
 .debug_ranges  0x000061c8      0x3b0 CMakeFiles/gif_screen_driver.dir/M_/house-projects/Christmas/display-screen-ws2812b/FatFs_SPI/ff15/source/ff.c.obj
 .debug_ranges  0x00006578      0x130 CMakeFiles/gif_screen_driver.dir/M_/house-projects/Christmas/display-screen-ws2812b/FatFs_SPI/sd_driver/sd_spi.c.obj
 .debug_ranges  0x000066a8      0x4b0 CMakeFiles/gif_screen_driver.dir/M_/house-projects/Christmas/display-screen-ws2812b/FatFs_SPI/sd_driver/spi.c.obj
 .debug_ranges  0x00006b58      0x390 CMakeFiles/gif_screen_driver.dir/M_/house-projects/Christmas/display-screen-ws2812b/FatFs_SPI/sd_driver/sd_card.c.obj
 .debug_ranges  0x00006ee8       0x50 CMakeFiles/gif_screen_driver.dir/M_/house-projects/Christmas/display-screen-ws2812b/FatFs_SPI/sd_driver/crc.c.obj
 .debug_ranges  0x00006f38       0x50 CMakeFiles/gif_screen_driver.dir/M_/house-projects/Christmas/display-screen-ws2812b/FatFs_SPI/src/glue.c.obj
 .debug_ranges  0x00006f88       0x18 CMakeFiles/gif_screen_driver.dir/M_/house-projects/Christmas/display-screen-ws2812b/FatFs_SPI/src/f_util.c.obj
 .debug_ranges  0x00006fa0       0x18 CMakeFiles/gif_screen_driver.dir/M_/house-projects/Christmas/display-screen-ws2812b/FatFs_SPI/src/my_debug.c.obj
 .debug_ranges  0x00006fb8       0x88 CMakeFiles/gif_screen_driver.dir/M_/house-projects/Christmas/display-screen-ws2812b/FatFs_SPI/src/rtc.c.obj
 .debug_ranges  0x00007040      0x288 CMakeFiles/gif_screen_driver.dir/C_/VSARM/sdk/pico/pico-sdk/src/rp2_common/hardware_spi/spi.c.obj
 .debug_ranges  0x000072c8       0xb0 CMakeFiles/gif_screen_driver.dir/C_/VSARM/sdk/pico/pico-sdk/src/rp2_common/hardware_dma/dma.c.obj
 .debug_ranges  0x00007378       0x70 CMakeFiles/gif_screen_driver.dir/C_/VSARM/sdk/pico/pico-sdk/src/rp2_common/hardware_rtc/rtc.c.obj

.debug_line     0x00000000    0x2de3a
 .debug_line    0x00000000     0x13c7 CMakeFiles/gif_screen_driver.dir/gif_screen_driver.c.obj
 .debug_line    0x000013c7      0x542 CMakeFiles/gif_screen_driver.dir/hw_config.c.obj
 .debug_line    0x00001909      0xfe9 CMakeFiles/gif_screen_driver.dir/gifdec.c.obj
 .debug_line    0x000028f2      0xe13 CMakeFiles/gif_screen_driver.dir/ssd1306.c.obj
 .debug_line    0x00003705      0x591 CMakeFiles/gif_screen_driver.dir/C_/VSARM/sdk/pico/pico-sdk/src/rp2_common/pico_stdlib/stdlib.c.obj
 .debug_line    0x00003c96      0xcaa CMakeFiles/gif_screen_driver.dir/C_/VSARM/sdk/pico/pico-sdk/src/rp2_common/hardware_gpio/gpio.c.obj
 .debug_line    0x00004940      0x258 CMakeFiles/gif_screen_driver.dir/C_/VSARM/sdk/pico/pico-sdk/src/rp2_common/pico_platform/platform.c.obj
 .debug_line    0x00004b98      0x448 CMakeFiles/gif_screen_driver.dir/C_/VSARM/sdk/pico/pico-sdk/src/rp2_common/hardware_claim/claim.c.obj
 .debug_line    0x00004fe0      0x445 CMakeFiles/gif_screen_driver.dir/C_/VSARM/sdk/pico/pico-sdk/src/rp2_common/hardware_sync/sync.c.obj
 .debug_line    0x00005425     0x1023 CMakeFiles/gif_screen_driver.dir/C_/VSARM/sdk/pico/pico-sdk/src/rp2_common/hardware_irq/irq.c.obj
 .debug_line    0x00006448      0xa4f CMakeFiles/gif_screen_driver.dir/C_/VSARM/sdk/pico/pico-sdk/src/common/pico_sync/sem.c.obj
 .debug_line    0x00006e97      0x202 CMakeFiles/gif_screen_driver.dir/C_/VSARM/sdk/pico/pico-sdk/src/common/pico_sync/lock_core.c.obj
 .debug_line    0x00007099     0x107f CMakeFiles/gif_screen_driver.dir/C_/VSARM/sdk/pico/pico-sdk/src/common/pico_sync/mutex.c.obj
 .debug_line    0x00008118      0x28d CMakeFiles/gif_screen_driver.dir/C_/VSARM/sdk/pico/pico-sdk/src/common/pico_sync/critical_section.c.obj
 .debug_line    0x000083a5     0x1b75 CMakeFiles/gif_screen_driver.dir/C_/VSARM/sdk/pico/pico-sdk/src/common/pico_time/time.c.obj
 .debug_line    0x00009f1a      0xbde CMakeFiles/gif_screen_driver.dir/C_/VSARM/sdk/pico/pico-sdk/src/rp2_common/hardware_timer/timer.c.obj
 .debug_line    0x0000aaf8      0x886 CMakeFiles/gif_screen_driver.dir/C_/VSARM/sdk/pico/pico-sdk/src/common/pico_util/pheap.c.obj
 .debug_line    0x0000b37e      0x988 CMakeFiles/gif_screen_driver.dir/C_/VSARM/sdk/pico/pico-sdk/src/rp2_common/hardware_clocks/clocks.c.obj
 .debug_line    0x0000bd06      0x51e CMakeFiles/gif_screen_driver.dir/C_/VSARM/sdk/pico/pico-sdk/src/rp2_common/hardware_pll/pll.c.obj
 .debug_line    0x0000c224      0x3eb CMakeFiles/gif_screen_driver.dir/C_/VSARM/sdk/pico/pico-sdk/src/rp2_common/hardware_watchdog/watchdog.c.obj
 .debug_line    0x0000c60f      0x28f CMakeFiles/gif_screen_driver.dir/C_/VSARM/sdk/pico/pico-sdk/src/rp2_common/hardware_xosc/xosc.c.obj
 .debug_line    0x0000c89e      0xa83 CMakeFiles/gif_screen_driver.dir/C_/VSARM/sdk/pico/pico-sdk/src/rp2_common/pico_runtime/runtime.c.obj
 .debug_line    0x0000d321     0x1200 CMakeFiles/gif_screen_driver.dir/C_/VSARM/sdk/pico/pico-sdk/src/rp2_common/pico_printf/printf.c.obj
 .debug_line    0x0000e521      0x147 CMakeFiles/gif_screen_driver.dir/C_/VSARM/sdk/pico/pico-sdk/src/rp2_common/pico_bit_ops/bit_ops_aeabi.S.obj
 .debug_line    0x0000e668      0x217 CMakeFiles/gif_screen_driver.dir/C_/VSARM/sdk/pico/pico-sdk/src/rp2_common/pico_bootrom/bootrom.c.obj
 .debug_line    0x0000e87f      0x2d0 CMakeFiles/gif_screen_driver.dir/C_/VSARM/sdk/pico/pico-sdk/src/rp2_common/pico_divider/divider.S.obj
 .debug_line    0x0000eb4f      0x425 CMakeFiles/gif_screen_driver.dir/C_/VSARM/sdk/pico/pico-sdk/src/rp2_common/pico_double/double_aeabi.S.obj
 .debug_line    0x0000ef74      0x322 CMakeFiles/gif_screen_driver.dir/C_/VSARM/sdk/pico/pico-sdk/src/rp2_common/pico_double/double_init_rom.c.obj
 .debug_line    0x0000f296     0x2c4d CMakeFiles/gif_screen_driver.dir/C_/VSARM/sdk/pico/pico-sdk/src/rp2_common/pico_double/double_math.c.obj
 .debug_line    0x00011ee3      0x69d CMakeFiles/gif_screen_driver.dir/C_/VSARM/sdk/pico/pico-sdk/src/rp2_common/pico_double/double_v1_rom_shim.S.obj
 .debug_line    0x00012580       0x97 CMakeFiles/gif_screen_driver.dir/C_/VSARM/sdk/pico/pico-sdk/src/rp2_common/pico_int64_ops/pico_int64_ops_aeabi.S.obj
 .debug_line    0x00012617      0x3db CMakeFiles/gif_screen_driver.dir/C_/VSARM/sdk/pico/pico-sdk/src/rp2_common/pico_float/float_aeabi.S.obj
 .debug_line    0x000129f2      0x314 CMakeFiles/gif_screen_driver.dir/C_/VSARM/sdk/pico/pico-sdk/src/rp2_common/pico_float/float_init_rom.c.obj
 .debug_line    0x00012d06      0x1c7 CMakeFiles/gif_screen_driver.dir/C_/VSARM/sdk/pico/pico-sdk/src/rp2_common/pico_float/float_v1_rom_shim.S.obj
 .debug_line    0x00012ecd      0x376 CMakeFiles/gif_screen_driver.dir/C_/VSARM/sdk/pico/pico-sdk/src/rp2_common/pico_malloc/pico_malloc.c.obj
 .debug_line    0x00013243       0xc1 CMakeFiles/gif_screen_driver.dir/C_/VSARM/sdk/pico/pico-sdk/src/rp2_common/pico_mem_ops/mem_ops_aeabi.S.obj
 .debug_line    0x00013304       0xcf CMakeFiles/gif_screen_driver.dir/C_/VSARM/sdk/pico/pico-sdk/src/rp2_common/pico_standard_link/crt0.S.obj
 .debug_line    0x000133d3      0x1a1 CMakeFiles/gif_screen_driver.dir/C_/VSARM/sdk/pico/pico-sdk/src/rp2_common/pico_standard_link/binary_info.c.obj
 .debug_line    0x00013574      0xe39 CMakeFiles/gif_screen_driver.dir/C_/VSARM/sdk/pico/pico-sdk/src/rp2_common/pico_stdio/stdio.c.obj
 .debug_line    0x000143ad      0x42d CMakeFiles/gif_screen_driver.dir/C_/VSARM/sdk/pico/pico-sdk/src/rp2_common/pico_stdio_usb/reset_interface.c.obj
 .debug_line    0x000147da      0xd40 CMakeFiles/gif_screen_driver.dir/C_/VSARM/sdk/pico/pico-sdk/src/rp2_common/pico_stdio_usb/stdio_usb.c.obj
 .debug_line    0x0001551a      0x2bf CMakeFiles/gif_screen_driver.dir/C_/VSARM/sdk/pico/pico-sdk/src/rp2_common/pico_stdio_usb/stdio_usb_descriptors.c.obj
 .debug_line    0x000157d9      0x368 CMakeFiles/gif_screen_driver.dir/C_/VSARM/sdk/pico/pico-sdk/src/rp2_common/pico_unique_id/unique_id.c.obj
 .debug_line    0x00015b41      0x7a2 CMakeFiles/gif_screen_driver.dir/C_/VSARM/sdk/pico/pico-sdk/src/rp2_common/hardware_flash/flash.c.obj
 .debug_line    0x000162e3      0xe4b CMakeFiles/gif_screen_driver.dir/C_/VSARM/sdk/pico/pico-sdk/lib/tinyusb/src/portable/raspberrypi/rp2040/dcd_rp2040.c.obj
 .debug_line    0x0001712e      0x9f1 CMakeFiles/gif_screen_driver.dir/C_/VSARM/sdk/pico/pico-sdk/lib/tinyusb/src/portable/raspberrypi/rp2040/rp2040_usb.c.obj
 .debug_line    0x00017b1f     0x1fd5 CMakeFiles/gif_screen_driver.dir/C_/VSARM/sdk/pico/pico-sdk/lib/tinyusb/src/device/usbd.c.obj
 .debug_line    0x00019af4      0x46b CMakeFiles/gif_screen_driver.dir/C_/VSARM/sdk/pico/pico-sdk/lib/tinyusb/src/device/usbd_control.c.obj
 .debug_line    0x00019f5f      0xde2 CMakeFiles/gif_screen_driver.dir/C_/VSARM/sdk/pico/pico-sdk/lib/tinyusb/src/class/cdc/cdc_device.c.obj
 .debug_line    0x0001ad41      0xb97 CMakeFiles/gif_screen_driver.dir/C_/VSARM/sdk/pico/pico-sdk/lib/tinyusb/src/tusb.c.obj
 .debug_line    0x0001b8d8     0x1515 CMakeFiles/gif_screen_driver.dir/C_/VSARM/sdk/pico/pico-sdk/lib/tinyusb/src/common/tusb_fifo.c.obj
 .debug_line    0x0001cded      0xf77 CMakeFiles/gif_screen_driver.dir/C_/VSARM/sdk/pico/pico-sdk/src/rp2_common/pico_multicore/multicore.c.obj
 .debug_line    0x0001dd64      0xc49 CMakeFiles/gif_screen_driver.dir/C_/VSARM/sdk/pico/pico-sdk/src/rp2_common/hardware_i2c/i2c.c.obj
 .debug_line    0x0001e9ad      0x13e CMakeFiles/gif_screen_driver.dir/M_/house-projects/Christmas/display-screen-ws2812b/FatFs_SPI/ff15/source/ffsystem.c.obj
 .debug_line    0x0001eaeb      0x35e CMakeFiles/gif_screen_driver.dir/M_/house-projects/Christmas/display-screen-ws2812b/FatFs_SPI/ff15/source/ffunicode.c.obj
 .debug_line    0x0001ee49     0x8d83 CMakeFiles/gif_screen_driver.dir/M_/house-projects/Christmas/display-screen-ws2812b/FatFs_SPI/ff15/source/ff.c.obj
 .debug_line    0x00027bcc      0x9b4 CMakeFiles/gif_screen_driver.dir/M_/house-projects/Christmas/display-screen-ws2812b/FatFs_SPI/sd_driver/sd_spi.c.obj
 .debug_line    0x00028580     0x10d0 CMakeFiles/gif_screen_driver.dir/M_/house-projects/Christmas/display-screen-ws2812b/FatFs_SPI/sd_driver/spi.c.obj
 .debug_line    0x00029650     0x1933 CMakeFiles/gif_screen_driver.dir/M_/house-projects/Christmas/display-screen-ws2812b/FatFs_SPI/sd_driver/sd_card.c.obj
 .debug_line    0x0002af83      0x239 CMakeFiles/gif_screen_driver.dir/M_/house-projects/Christmas/display-screen-ws2812b/FatFs_SPI/sd_driver/crc.c.obj
 .debug_line    0x0002b1bc      0x58b CMakeFiles/gif_screen_driver.dir/M_/house-projects/Christmas/display-screen-ws2812b/FatFs_SPI/src/glue.c.obj
 .debug_line    0x0002b747      0x302 CMakeFiles/gif_screen_driver.dir/M_/house-projects/Christmas/display-screen-ws2812b/FatFs_SPI/src/f_util.c.obj
 .debug_line    0x0002ba49      0x1cb CMakeFiles/gif_screen_driver.dir/M_/house-projects/Christmas/display-screen-ws2812b/FatFs_SPI/src/my_debug.c.obj
 .debug_line    0x0002bc14      0x4fd CMakeFiles/gif_screen_driver.dir/M_/house-projects/Christmas/display-screen-ws2812b/FatFs_SPI/src/rtc.c.obj
 .debug_line    0x0002c111      0xde4 CMakeFiles/gif_screen_driver.dir/C_/VSARM/sdk/pico/pico-sdk/src/rp2_common/hardware_spi/spi.c.obj
 .debug_line    0x0002cef5      0x63c CMakeFiles/gif_screen_driver.dir/C_/VSARM/sdk/pico/pico-sdk/src/rp2_common/hardware_dma/dma.c.obj
 .debug_line    0x0002d531      0x909 CMakeFiles/gif_screen_driver.dir/C_/VSARM/sdk/pico/pico-sdk/src/rp2_common/hardware_rtc/rtc.c.obj

.debug_str      0x00000000     0xa81c
 .debug_str     0x00000000     0x1594 CMakeFiles/gif_screen_driver.dir/gif_screen_driver.c.obj
                               0x1878 (size before relaxing)
 .debug_str     0x00001594       0x85 CMakeFiles/gif_screen_driver.dir/hw_config.c.obj
                                0x627 (size before relaxing)
 .debug_str     0x00001619      0x313 CMakeFiles/gif_screen_driver.dir/gifdec.c.obj
                                0x7e0 (size before relaxing)
 .debug_str     0x0000192c      0x4b1 CMakeFiles/gif_screen_driver.dir/ssd1306.c.obj
                                0x98d (size before relaxing)
 .debug_str     0x00001ddd      0x260 CMakeFiles/gif_screen_driver.dir/C_/VSARM/sdk/pico/pico-sdk/src/rp2_common/pico_stdlib/stdlib.c.obj
                                0x552 (size before relaxing)
 .debug_str     0x0000203d      0x42a CMakeFiles/gif_screen_driver.dir/C_/VSARM/sdk/pico/pico-sdk/src/rp2_common/hardware_gpio/gpio.c.obj
                                0xa28 (size before relaxing)
 .debug_str     0x00002467       0x6c CMakeFiles/gif_screen_driver.dir/C_/VSARM/sdk/pico/pico-sdk/src/rp2_common/pico_platform/platform.c.obj
                                0x24f (size before relaxing)
 .debug_str     0x000024d3      0x19c CMakeFiles/gif_screen_driver.dir/C_/VSARM/sdk/pico/pico-sdk/src/rp2_common/hardware_claim/claim.c.obj
                                0x393 (size before relaxing)
 .debug_str     0x0000266f       0xec CMakeFiles/gif_screen_driver.dir/C_/VSARM/sdk/pico/pico-sdk/src/rp2_common/hardware_sync/sync.c.obj
                                0x37a (size before relaxing)
 .debug_str     0x0000275b      0x3b9 CMakeFiles/gif_screen_driver.dir/C_/VSARM/sdk/pico/pico-sdk/src/rp2_common/hardware_irq/irq.c.obj
                                0x7f8 (size before relaxing)
 .debug_str     0x00002b14      0x1ca CMakeFiles/gif_screen_driver.dir/C_/VSARM/sdk/pico/pico-sdk/src/common/pico_sync/sem.c.obj
                                0x527 (size before relaxing)
 .debug_str     0x00002cde       0x3c CMakeFiles/gif_screen_driver.dir/C_/VSARM/sdk/pico/pico-sdk/src/common/pico_sync/lock_core.c.obj
                                0x230 (size before relaxing)
 .debug_str     0x00002d1a      0x158 CMakeFiles/gif_screen_driver.dir/C_/VSARM/sdk/pico/pico-sdk/src/common/pico_sync/mutex.c.obj
                                0x622 (size before relaxing)
 .debug_str     0x00002e72       0xcb CMakeFiles/gif_screen_driver.dir/C_/VSARM/sdk/pico/pico-sdk/src/common/pico_sync/critical_section.c.obj
                                0x2f0 (size before relaxing)
 .debug_str     0x00002f3d      0x639 CMakeFiles/gif_screen_driver.dir/C_/VSARM/sdk/pico/pico-sdk/src/common/pico_time/time.c.obj
                                0xc84 (size before relaxing)
 .debug_str     0x00003576      0x142 CMakeFiles/gif_screen_driver.dir/C_/VSARM/sdk/pico/pico-sdk/src/rp2_common/hardware_timer/timer.c.obj
                                0x74c (size before relaxing)
 .debug_str     0x000036b8       0xe6 CMakeFiles/gif_screen_driver.dir/C_/VSARM/sdk/pico/pico-sdk/src/common/pico_util/pheap.c.obj
                                0x419 (size before relaxing)
 .debug_str     0x0000379e      0x278 CMakeFiles/gif_screen_driver.dir/C_/VSARM/sdk/pico/pico-sdk/src/rp2_common/hardware_clocks/clocks.c.obj
                                0x6e9 (size before relaxing)
 .debug_str     0x00003a16       0x95 CMakeFiles/gif_screen_driver.dir/C_/VSARM/sdk/pico/pico-sdk/src/rp2_common/hardware_pll/pll.c.obj
                                0x30b (size before relaxing)
 .debug_str     0x00003aab      0x113 CMakeFiles/gif_screen_driver.dir/C_/VSARM/sdk/pico/pico-sdk/src/rp2_common/hardware_watchdog/watchdog.c.obj
                                0x351 (size before relaxing)
 .debug_str     0x00003bbe       0x6b CMakeFiles/gif_screen_driver.dir/C_/VSARM/sdk/pico/pico-sdk/src/rp2_common/hardware_xosc/xosc.c.obj
                                0x24e (size before relaxing)
 .debug_str     0x00003c29      0x2bb CMakeFiles/gif_screen_driver.dir/C_/VSARM/sdk/pico/pico-sdk/src/rp2_common/pico_runtime/runtime.c.obj
                                0x811 (size before relaxing)
 .debug_str     0x00003ee4      0x211 CMakeFiles/gif_screen_driver.dir/C_/VSARM/sdk/pico/pico-sdk/src/rp2_common/pico_printf/printf.c.obj
                                0x4af (size before relaxing)
 .debug_str     0x000040f5       0x55 CMakeFiles/gif_screen_driver.dir/C_/VSARM/sdk/pico/pico-sdk/src/rp2_common/pico_bit_ops/bit_ops_aeabi.S.obj
                                 0xa0 (size before relaxing)
 .debug_str     0x0000414a       0xc4 CMakeFiles/gif_screen_driver.dir/C_/VSARM/sdk/pico/pico-sdk/src/rp2_common/pico_bootrom/bootrom.c.obj
                                0x289 (size before relaxing)
 .debug_str     0x0000420e       0x41 CMakeFiles/gif_screen_driver.dir/C_/VSARM/sdk/pico/pico-sdk/src/rp2_common/pico_divider/divider.S.obj
                                 0x9a (size before relaxing)
 .debug_str     0x0000424f       0x45 CMakeFiles/gif_screen_driver.dir/C_/VSARM/sdk/pico/pico-sdk/src/rp2_common/pico_double/double_aeabi.S.obj
                                 0x9e (size before relaxing)
 .debug_str     0x00004294       0x9d CMakeFiles/gif_screen_driver.dir/C_/VSARM/sdk/pico/pico-sdk/src/rp2_common/pico_double/double_init_rom.c.obj
                                0x2c8 (size before relaxing)
 .debug_str     0x00004331      0x2c8 CMakeFiles/gif_screen_driver.dir/C_/VSARM/sdk/pico/pico-sdk/src/rp2_common/pico_double/double_math.c.obj
                                0x53b (size before relaxing)
 .debug_str     0x000045f9       0x4b CMakeFiles/gif_screen_driver.dir/C_/VSARM/sdk/pico/pico-sdk/src/rp2_common/pico_double/double_v1_rom_shim.S.obj
                                 0xa4 (size before relaxing)
 .debug_str     0x00004644       0x50 CMakeFiles/gif_screen_driver.dir/C_/VSARM/sdk/pico/pico-sdk/src/rp2_common/pico_int64_ops/pico_int64_ops_aeabi.S.obj
                                 0xa9 (size before relaxing)
 .debug_str     0x00004694       0x43 CMakeFiles/gif_screen_driver.dir/C_/VSARM/sdk/pico/pico-sdk/src/rp2_common/pico_float/float_aeabi.S.obj
                                 0x9c (size before relaxing)
 .debug_str     0x000046d7       0x81 CMakeFiles/gif_screen_driver.dir/C_/VSARM/sdk/pico/pico-sdk/src/rp2_common/pico_float/float_init_rom.c.obj
                                0x2e4 (size before relaxing)
 .debug_str     0x00004758       0x49 CMakeFiles/gif_screen_driver.dir/C_/VSARM/sdk/pico/pico-sdk/src/rp2_common/pico_float/float_v1_rom_shim.S.obj
                                 0xa2 (size before relaxing)
 .debug_str     0x000047a1       0xcb CMakeFiles/gif_screen_driver.dir/C_/VSARM/sdk/pico/pico-sdk/src/rp2_common/pico_malloc/pico_malloc.c.obj
                                0x2f9 (size before relaxing)
 .debug_str     0x0000486c       0x47 CMakeFiles/gif_screen_driver.dir/C_/VSARM/sdk/pico/pico-sdk/src/rp2_common/pico_mem_ops/mem_ops_aeabi.S.obj
                                 0xa0 (size before relaxing)
 .debug_str     0x000048b3       0x44 CMakeFiles/gif_screen_driver.dir/C_/VSARM/sdk/pico/pico-sdk/src/rp2_common/pico_standard_link/crt0.S.obj
                                 0x9d (size before relaxing)
 .debug_str     0x000048f7      0x26c CMakeFiles/gif_screen_driver.dir/C_/VSARM/sdk/pico/pico-sdk/src/rp2_common/pico_standard_link/binary_info.c.obj
                                0x44b (size before relaxing)
 .debug_str     0x00004b63      0x3a7 CMakeFiles/gif_screen_driver.dir/C_/VSARM/sdk/pico/pico-sdk/src/rp2_common/pico_stdio/stdio.c.obj
                                0x9e7 (size before relaxing)
 .debug_str     0x00004f0a      0x544 CMakeFiles/gif_screen_driver.dir/C_/VSARM/sdk/pico/pico-sdk/src/rp2_common/pico_stdio_usb/reset_interface.c.obj
                                0x795 (size before relaxing)
 .debug_str     0x0000544e      0x341 CMakeFiles/gif_screen_driver.dir/C_/VSARM/sdk/pico/pico-sdk/src/rp2_common/pico_stdio_usb/stdio_usb.c.obj
                                0xb1b (size before relaxing)
 .debug_str     0x0000578f      0xae2 CMakeFiles/gif_screen_driver.dir/C_/VSARM/sdk/pico/pico-sdk/src/rp2_common/pico_stdio_usb/stdio_usb_descriptors.c.obj
                                0xe80 (size before relaxing)
 .debug_str     0x00006271       0xc0 CMakeFiles/gif_screen_driver.dir/C_/VSARM/sdk/pico/pico-sdk/src/rp2_common/pico_unique_id/unique_id.c.obj
                                0x2a2 (size before relaxing)
 .debug_str     0x00006331      0x2e2 CMakeFiles/gif_screen_driver.dir/C_/VSARM/sdk/pico/pico-sdk/src/rp2_common/hardware_flash/flash.c.obj
                                0x625 (size before relaxing)
 .debug_str     0x00006613      0xa0f CMakeFiles/gif_screen_driver.dir/C_/VSARM/sdk/pico/pico-sdk/lib/tinyusb/src/portable/raspberrypi/rp2040/dcd_rp2040.c.obj
                                0xedf (size before relaxing)
 .debug_str     0x00007022      0x145 CMakeFiles/gif_screen_driver.dir/C_/VSARM/sdk/pico/pico-sdk/lib/tinyusb/src/portable/raspberrypi/rp2040/rp2040_usb.c.obj
                                0x840 (size before relaxing)
 .debug_str     0x00007167      0x934 CMakeFiles/gif_screen_driver.dir/C_/VSARM/sdk/pico/pico-sdk/lib/tinyusb/src/device/usbd.c.obj
                               0x1706 (size before relaxing)
 .debug_str     0x00007a9b       0xeb CMakeFiles/gif_screen_driver.dir/C_/VSARM/sdk/pico/pico-sdk/lib/tinyusb/src/device/usbd_control.c.obj
                                0x54a (size before relaxing)
 .debug_str     0x00007b86      0x71c CMakeFiles/gif_screen_driver.dir/C_/VSARM/sdk/pico/pico-sdk/lib/tinyusb/src/class/cdc/cdc_device.c.obj
                               0x1537 (size before relaxing)
 .debug_str     0x000082a2      0x219 CMakeFiles/gif_screen_driver.dir/C_/VSARM/sdk/pico/pico-sdk/lib/tinyusb/src/tusb.c.obj
                                0xaf0 (size before relaxing)
 .debug_str     0x000084bb      0x3af CMakeFiles/gif_screen_driver.dir/C_/VSARM/sdk/pico/pico-sdk/lib/tinyusb/src/common/tusb_fifo.c.obj
                                0x772 (size before relaxing)
 .debug_str     0x0000886a      0x41a CMakeFiles/gif_screen_driver.dir/C_/VSARM/sdk/pico/pico-sdk/src/rp2_common/pico_multicore/multicore.c.obj
                                0xb12 (size before relaxing)
 .debug_str     0x00008c84      0x27e CMakeFiles/gif_screen_driver.dir/C_/VSARM/sdk/pico/pico-sdk/src/rp2_common/hardware_i2c/i2c.c.obj
                                0x94a (size before relaxing)
 .debug_str     0x00008f02       0x78 CMakeFiles/gif_screen_driver.dir/M_/house-projects/Christmas/display-screen-ws2812b/FatFs_SPI/ff15/source/ffsystem.c.obj
                                0x205 (size before relaxing)
 .debug_str     0x00008f7a       0x87 CMakeFiles/gif_screen_driver.dir/M_/house-projects/Christmas/display-screen-ws2812b/FatFs_SPI/ff15/source/ffunicode.c.obj
                                0x229 (size before relaxing)
 .debug_str     0x00009001      0x6b7 CMakeFiles/gif_screen_driver.dir/M_/house-projects/Christmas/display-screen-ws2812b/FatFs_SPI/ff15/source/ff.c.obj
                                0xd53 (size before relaxing)
 .debug_str     0x000096b8      0x19f CMakeFiles/gif_screen_driver.dir/M_/house-projects/Christmas/display-screen-ws2812b/FatFs_SPI/sd_driver/sd_spi.c.obj
                                0xad7 (size before relaxing)
 .debug_str     0x00009857      0x1a0 CMakeFiles/gif_screen_driver.dir/M_/house-projects/Christmas/display-screen-ws2812b/FatFs_SPI/sd_driver/spi.c.obj
                                0xdc8 (size before relaxing)
 .debug_str     0x000099f7      0x494 CMakeFiles/gif_screen_driver.dir/M_/house-projects/Christmas/display-screen-ws2812b/FatFs_SPI/sd_driver/sd_card.c.obj
                                0xf7a (size before relaxing)
 .debug_str     0x00009e8b       0x7a CMakeFiles/gif_screen_driver.dir/M_/house-projects/Christmas/display-screen-ws2812b/FatFs_SPI/sd_driver/crc.c.obj
                                0x1b7 (size before relaxing)
 .debug_str     0x00009f05       0x6f CMakeFiles/gif_screen_driver.dir/M_/house-projects/Christmas/display-screen-ws2812b/FatFs_SPI/src/glue.c.obj
                                0x68d (size before relaxing)
 .debug_str     0x00009f74       0x5e CMakeFiles/gif_screen_driver.dir/M_/house-projects/Christmas/display-screen-ws2812b/FatFs_SPI/src/f_util.c.obj
                                0x4df (size before relaxing)
 .debug_str     0x00009fd2      0x3cd CMakeFiles/gif_screen_driver.dir/M_/house-projects/Christmas/display-screen-ws2812b/FatFs_SPI/src/my_debug.c.obj
                                0x625 (size before relaxing)
 .debug_str     0x0000a39f       0xee CMakeFiles/gif_screen_driver.dir/M_/house-projects/Christmas/display-screen-ws2812b/FatFs_SPI/src/rtc.c.obj
                                0x381 (size before relaxing)
 .debug_str     0x0000a48d      0x136 CMakeFiles/gif_screen_driver.dir/C_/VSARM/sdk/pico/pico-sdk/src/rp2_common/hardware_spi/spi.c.obj
                                0x5cc (size before relaxing)
 .debug_str     0x0000a5c3      0x151 CMakeFiles/gif_screen_driver.dir/C_/VSARM/sdk/pico/pico-sdk/src/rp2_common/hardware_dma/dma.c.obj
                                0x607 (size before relaxing)
 .debug_str     0x0000a714      0x108 CMakeFiles/gif_screen_driver.dir/C_/VSARM/sdk/pico/pico-sdk/src/rp2_common/hardware_rtc/rtc.c.obj
                                0x4b3 (size before relaxing)

.debug_frame    0x00000000     0x5964
 .debug_frame   0x00000000      0x1b4 CMakeFiles/gif_screen_driver.dir/gif_screen_driver.c.obj
 .debug_frame   0x000001b4       0x60 CMakeFiles/gif_screen_driver.dir/hw_config.c.obj
 .debug_frame   0x00000214      0x2e0 CMakeFiles/gif_screen_driver.dir/gifdec.c.obj
 .debug_frame   0x000004f4      0x284 CMakeFiles/gif_screen_driver.dir/ssd1306.c.obj
 .debug_frame   0x00000778       0x90 CMakeFiles/gif_screen_driver.dir/C_/VSARM/sdk/pico/pico-sdk/src/rp2_common/pico_stdlib/stdlib.c.obj
 .debug_frame   0x00000808      0x278 CMakeFiles/gif_screen_driver.dir/C_/VSARM/sdk/pico/pico-sdk/src/rp2_common/hardware_gpio/gpio.c.obj
 .debug_frame   0x00000a80       0x38 CMakeFiles/gif_screen_driver.dir/C_/VSARM/sdk/pico/pico-sdk/src/rp2_common/pico_platform/platform.c.obj
 .debug_frame   0x00000ab8       0x9c CMakeFiles/gif_screen_driver.dir/C_/VSARM/sdk/pico/pico-sdk/src/rp2_common/hardware_claim/claim.c.obj
 .debug_frame   0x00000b54       0xc4 CMakeFiles/gif_screen_driver.dir/C_/VSARM/sdk/pico/pico-sdk/src/rp2_common/hardware_sync/sync.c.obj
 .debug_frame   0x00000c18      0x20c CMakeFiles/gif_screen_driver.dir/C_/VSARM/sdk/pico/pico-sdk/src/rp2_common/hardware_irq/irq.c.obj
 .debug_frame   0x00000e24       0xec CMakeFiles/gif_screen_driver.dir/C_/VSARM/sdk/pico/pico-sdk/src/common/pico_sync/sem.c.obj
 .debug_frame   0x00000f10       0x20 CMakeFiles/gif_screen_driver.dir/C_/VSARM/sdk/pico/pico-sdk/src/common/pico_sync/lock_core.c.obj
 .debug_frame   0x00000f30      0x1b0 CMakeFiles/gif_screen_driver.dir/C_/VSARM/sdk/pico/pico-sdk/src/common/pico_sync/mutex.c.obj
 .debug_frame   0x000010e0       0x50 CMakeFiles/gif_screen_driver.dir/C_/VSARM/sdk/pico/pico-sdk/src/common/pico_sync/critical_section.c.obj
 .debug_frame   0x00001130      0x2dc CMakeFiles/gif_screen_driver.dir/C_/VSARM/sdk/pico/pico-sdk/src/common/pico_time/time.c.obj
 .debug_frame   0x0000140c      0x15c CMakeFiles/gif_screen_driver.dir/C_/VSARM/sdk/pico/pico-sdk/src/rp2_common/hardware_timer/timer.c.obj
 .debug_frame   0x00001568      0x164 CMakeFiles/gif_screen_driver.dir/C_/VSARM/sdk/pico/pico-sdk/src/common/pico_util/pheap.c.obj
 .debug_frame   0x000016cc      0x130 CMakeFiles/gif_screen_driver.dir/C_/VSARM/sdk/pico/pico-sdk/src/rp2_common/hardware_clocks/clocks.c.obj
 .debug_frame   0x000017fc       0x44 CMakeFiles/gif_screen_driver.dir/C_/VSARM/sdk/pico/pico-sdk/src/rp2_common/hardware_pll/pll.c.obj
 .debug_frame   0x00001840       0xa8 CMakeFiles/gif_screen_driver.dir/C_/VSARM/sdk/pico/pico-sdk/src/rp2_common/hardware_watchdog/watchdog.c.obj
 .debug_frame   0x000018e8       0x40 CMakeFiles/gif_screen_driver.dir/C_/VSARM/sdk/pico/pico-sdk/src/rp2_common/hardware_xosc/xosc.c.obj
 .debug_frame   0x00001928      0x150 CMakeFiles/gif_screen_driver.dir/C_/VSARM/sdk/pico/pico-sdk/src/rp2_common/pico_runtime/runtime.c.obj
 .debug_frame   0x00001a78      0x1f8 CMakeFiles/gif_screen_driver.dir/C_/VSARM/sdk/pico/pico-sdk/src/rp2_common/pico_printf/printf.c.obj
 .debug_frame   0x00001c70       0x64 CMakeFiles/gif_screen_driver.dir/C_/VSARM/sdk/pico/pico-sdk/src/rp2_common/pico_bootrom/bootrom.c.obj
 .debug_frame   0x00001cd4       0x2c CMakeFiles/gif_screen_driver.dir/C_/VSARM/sdk/pico/pico-sdk/src/rp2_common/pico_double/double_init_rom.c.obj
 .debug_frame   0x00001d00      0x440 CMakeFiles/gif_screen_driver.dir/C_/VSARM/sdk/pico/pico-sdk/src/rp2_common/pico_double/double_math.c.obj
 .debug_frame   0x00002140       0x2c CMakeFiles/gif_screen_driver.dir/C_/VSARM/sdk/pico/pico-sdk/src/rp2_common/pico_float/float_init_rom.c.obj
 .debug_frame   0x0000216c       0x80 CMakeFiles/gif_screen_driver.dir/C_/VSARM/sdk/pico/pico-sdk/src/rp2_common/pico_malloc/pico_malloc.c.obj
 .debug_frame   0x000021ec      0x2d8 CMakeFiles/gif_screen_driver.dir/C_/VSARM/sdk/pico/pico-sdk/src/rp2_common/pico_stdio/stdio.c.obj
 .debug_frame   0x000024c4       0xac CMakeFiles/gif_screen_driver.dir/C_/VSARM/sdk/pico/pico-sdk/src/rp2_common/pico_stdio_usb/reset_interface.c.obj
 .debug_frame   0x00002570       0xfc CMakeFiles/gif_screen_driver.dir/C_/VSARM/sdk/pico/pico-sdk/src/rp2_common/pico_stdio_usb/stdio_usb.c.obj
 .debug_frame   0x0000266c       0x48 CMakeFiles/gif_screen_driver.dir/C_/VSARM/sdk/pico/pico-sdk/src/rp2_common/pico_stdio_usb/stdio_usb_descriptors.c.obj
 .debug_frame   0x000026b4       0x58 CMakeFiles/gif_screen_driver.dir/C_/VSARM/sdk/pico/pico-sdk/src/rp2_common/pico_unique_id/unique_id.c.obj
 .debug_frame   0x0000270c       0xe4 CMakeFiles/gif_screen_driver.dir/C_/VSARM/sdk/pico/pico-sdk/src/rp2_common/hardware_flash/flash.c.obj
 .debug_frame   0x000027f0      0x268 CMakeFiles/gif_screen_driver.dir/C_/VSARM/sdk/pico/pico-sdk/lib/tinyusb/src/portable/raspberrypi/rp2040/dcd_rp2040.c.obj
 .debug_frame   0x00002a58      0x120 CMakeFiles/gif_screen_driver.dir/C_/VSARM/sdk/pico/pico-sdk/lib/tinyusb/src/portable/raspberrypi/rp2040/rp2040_usb.c.obj
 .debug_frame   0x00002b78      0x35c CMakeFiles/gif_screen_driver.dir/C_/VSARM/sdk/pico/pico-sdk/lib/tinyusb/src/device/usbd.c.obj
 .debug_frame   0x00002ed4       0xcc CMakeFiles/gif_screen_driver.dir/C_/VSARM/sdk/pico/pico-sdk/lib/tinyusb/src/device/usbd_control.c.obj
 .debug_frame   0x00002fa0      0x1f4 CMakeFiles/gif_screen_driver.dir/C_/VSARM/sdk/pico/pico-sdk/lib/tinyusb/src/class/cdc/cdc_device.c.obj
 .debug_frame   0x00003194      0x1c4 CMakeFiles/gif_screen_driver.dir/C_/VSARM/sdk/pico/pico-sdk/lib/tinyusb/src/tusb.c.obj
 .debug_frame   0x00003358      0x33c CMakeFiles/gif_screen_driver.dir/C_/VSARM/sdk/pico/pico-sdk/lib/tinyusb/src/common/tusb_fifo.c.obj
 .debug_frame   0x00003694      0x214 CMakeFiles/gif_screen_driver.dir/C_/VSARM/sdk/pico/pico-sdk/src/rp2_common/pico_multicore/multicore.c.obj
 .debug_frame   0x000038a8      0x1a8 CMakeFiles/gif_screen_driver.dir/C_/VSARM/sdk/pico/pico-sdk/src/rp2_common/hardware_i2c/i2c.c.obj
 .debug_frame   0x00003a50       0x40 CMakeFiles/gif_screen_driver.dir/M_/house-projects/Christmas/display-screen-ws2812b/FatFs_SPI/ff15/source/ffsystem.c.obj
 .debug_frame   0x00003a90       0x50 CMakeFiles/gif_screen_driver.dir/M_/house-projects/Christmas/display-screen-ws2812b/FatFs_SPI/ff15/source/ffunicode.c.obj
 .debug_frame   0x00003ae0      0xc18 CMakeFiles/gif_screen_driver.dir/M_/house-projects/Christmas/display-screen-ws2812b/FatFs_SPI/ff15/source/ff.c.obj
 .debug_frame   0x000046f8      0x150 CMakeFiles/gif_screen_driver.dir/M_/house-projects/Christmas/display-screen-ws2812b/FatFs_SPI/sd_driver/sd_spi.c.obj
 .debug_frame   0x00004848       0xd8 CMakeFiles/gif_screen_driver.dir/M_/house-projects/Christmas/display-screen-ws2812b/FatFs_SPI/sd_driver/spi.c.obj
 .debug_frame   0x00004920      0x320 CMakeFiles/gif_screen_driver.dir/M_/house-projects/Christmas/display-screen-ws2812b/FatFs_SPI/sd_driver/sd_card.c.obj
 .debug_frame   0x00004c40       0x60 CMakeFiles/gif_screen_driver.dir/M_/house-projects/Christmas/display-screen-ws2812b/FatFs_SPI/sd_driver/crc.c.obj
 .debug_frame   0x00004ca0       0xac CMakeFiles/gif_screen_driver.dir/M_/house-projects/Christmas/display-screen-ws2812b/FatFs_SPI/src/glue.c.obj
 .debug_frame   0x00004d4c       0x4c CMakeFiles/gif_screen_driver.dir/M_/house-projects/Christmas/display-screen-ws2812b/FatFs_SPI/src/f_util.c.obj
 .debug_frame   0x00004d98       0x4c CMakeFiles/gif_screen_driver.dir/M_/house-projects/Christmas/display-screen-ws2812b/FatFs_SPI/src/my_debug.c.obj
 .debug_frame   0x00004de4       0x74 CMakeFiles/gif_screen_driver.dir/M_/house-projects/Christmas/display-screen-ws2812b/FatFs_SPI/src/rtc.c.obj
 .debug_frame   0x00004e58      0x134 CMakeFiles/gif_screen_driver.dir/C_/VSARM/sdk/pico/pico-sdk/src/rp2_common/hardware_spi/spi.c.obj
 .debug_frame   0x00004f8c      0x144 CMakeFiles/gif_screen_driver.dir/C_/VSARM/sdk/pico/pico-sdk/src/rp2_common/hardware_dma/dma.c.obj
 .debug_frame   0x000050d0       0xe0 CMakeFiles/gif_screen_driver.dir/C_/VSARM/sdk/pico/pico-sdk/src/rp2_common/hardware_rtc/rtc.c.obj
 .debug_frame   0x000051b0       0x28 c:/vsarm/armcc/102021~1.10/bin/../lib/gcc/arm-none-eabi/10.3.1/../../../../arm-none-eabi/lib/thumb/v6-m/nofp\libg.a(lib_a-calloc.o)
 .debug_frame   0x000051d8       0x2c c:/vsarm/armcc/102021~1.10/bin/../lib/gcc/arm-none-eabi/10.3.1/../../../../arm-none-eabi/lib/thumb/v6-m/nofp\libg.a(lib_a-callocr.o)
 .debug_frame   0x00005204       0x20 c:/vsarm/armcc/102021~1.10/bin/../lib/gcc/arm-none-eabi/10.3.1/../../../../arm-none-eabi/lib/thumb/v6-m/nofp\libg.a(lib_a-errno.o)
 .debug_frame   0x00005224       0x6c c:/vsarm/armcc/102021~1.10/bin/../lib/gcc/arm-none-eabi/10.3.1/../../../../arm-none-eabi/lib/thumb/v6-m/nofp\libg.a(lib_a-fflush.o)
 .debug_frame   0x00005290      0x170 c:/vsarm/armcc/102021~1.10/bin/../lib/gcc/arm-none-eabi/10.3.1/../../../../arm-none-eabi/lib/thumb/v6-m/nofp\libg.a(lib_a-findfp.o)
 .debug_frame   0x00005400       0x54 c:/vsarm/armcc/102021~1.10/bin/../lib/gcc/arm-none-eabi/10.3.1/../../../../arm-none-eabi/lib/thumb/v6-m/nofp\libg.a(lib_a-freer.o)
 .debug_frame   0x00005454       0x5c c:/vsarm/armcc/102021~1.10/bin/../lib/gcc/arm-none-eabi/10.3.1/../../../../arm-none-eabi/lib/thumb/v6-m/nofp\libg.a(lib_a-fwalk.o)
 .debug_frame   0x000054b0       0xb0 c:/vsarm/armcc/102021~1.10/bin/../lib/gcc/arm-none-eabi/10.3.1/../../../../arm-none-eabi/lib/thumb/v6-m/nofp\libg.a(lib_a-lock.o)
 .debug_frame   0x00005560       0x40 c:/vsarm/armcc/102021~1.10/bin/../lib/gcc/arm-none-eabi/10.3.1/../../../../arm-none-eabi/lib/thumb/v6-m/nofp\libg.a(lib_a-malloc.o)
 .debug_frame   0x000055a0       0x3c c:/vsarm/armcc/102021~1.10/bin/../lib/gcc/arm-none-eabi/10.3.1/../../../../arm-none-eabi/lib/thumb/v6-m/nofp\libg.a(lib_a-mallocr.o)
 .debug_frame   0x000055dc       0x2c c:/vsarm/armcc/102021~1.10/bin/../lib/gcc/arm-none-eabi/10.3.1/../../../../arm-none-eabi/lib/thumb/v6-m/nofp\libg.a(lib_a-memcmp.o)
 .debug_frame   0x00005608       0x40 c:/vsarm/armcc/102021~1.10/bin/../lib/gcc/arm-none-eabi/10.3.1/../../../../arm-none-eabi/lib/thumb/v6-m/nofp\libg.a(lib_a-mlock.o)
 .debug_frame   0x00005648       0x28 c:/vsarm/armcc/102021~1.10/bin/../lib/gcc/arm-none-eabi/10.3.1/../../../../arm-none-eabi/lib/thumb/v6-m/nofp\libg.a(lib_a-realloc.o)
 .debug_frame   0x00005670       0x3c c:/vsarm/armcc/102021~1.10/bin/../lib/gcc/arm-none-eabi/10.3.1/../../../../arm-none-eabi/lib/thumb/v6-m/nofp\libg.a(lib_a-reallocr.o)
 .debug_frame   0x000056ac       0x2c c:/vsarm/armcc/102021~1.10/bin/../lib/gcc/arm-none-eabi/10.3.1/../../../../arm-none-eabi/lib/thumb/v6-m/nofp\libg.a(lib_a-sbrkr.o)
 .debug_frame   0x000056d8       0x90 c:/vsarm/armcc/102021~1.10/bin/../lib/gcc/arm-none-eabi/10.3.1/../../../../arm-none-eabi/lib/thumb/v6-m/nofp\libg.a(lib_a-stdio.o)
 .debug_frame   0x00005768       0x30 c:/vsarm/armcc/102021~1.10/bin/../lib/gcc/arm-none-eabi/10.3.1/../../../../arm-none-eabi/lib/thumb/v6-m/nofp\libg.a(lib_a-strchr.o)
 .debug_frame   0x00005798       0x28 c:/vsarm/armcc/102021~1.10/bin/../lib/gcc/arm-none-eabi/10.3.1/../../../../arm-none-eabi/lib/thumb/v6-m/nofp\libg.a(lib_a-strlen-stub.o)
 .debug_frame   0x000057c0       0x2c c:/vsarm/armcc/102021~1.10/bin/../lib/gcc/arm-none-eabi/10.3.1/../../../../arm-none-eabi/lib/thumb/v6-m/nofp\libg.a(lib_a-strncmp.o)
 .debug_frame   0x000057ec       0x2c c:/vsarm/armcc/102021~1.10/bin/../lib/gcc/arm-none-eabi/10.3.1/../../../../arm-none-eabi/lib/thumb/v6-m/nofp\libg.a(lib_a-writer.o)
 .debug_frame   0x00005818       0x2c c:/vsarm/armcc/102021~1.10/bin/../lib/gcc/arm-none-eabi/10.3.1/../../../../arm-none-eabi/lib/thumb/v6-m/nofp\libg.a(lib_a-closer.o)
 .debug_frame   0x00005844       0x48 c:/vsarm/armcc/102021~1.10/bin/../lib/gcc/arm-none-eabi/10.3.1/../../../../arm-none-eabi/lib/thumb/v6-m/nofp\libg.a(lib_a-fclose.o)
 .debug_frame   0x0000588c       0x2c c:/vsarm/armcc/102021~1.10/bin/../lib/gcc/arm-none-eabi/10.3.1/../../../../arm-none-eabi/lib/thumb/v6-m/nofp\libg.a(lib_a-lseekr.o)
 .debug_frame   0x000058b8       0x30 c:/vsarm/armcc/102021~1.10/bin/../lib/gcc/arm-none-eabi/10.3.1/../../../../arm-none-eabi/lib/thumb/v6-m/nofp\libg.a(lib_a-memmove.o)
 .debug_frame   0x000058e8       0x2c c:/vsarm/armcc/102021~1.10/bin/../lib/gcc/arm-none-eabi/10.3.1/../../../../arm-none-eabi/lib/thumb/v6-m/nofp\libg.a(lib_a-readr.o)
 .debug_frame   0x00005914       0x50 c:/vsarm/armcc/102021~1.10/bin/../lib/gcc/arm-none-eabi/10.3.1/../../../../arm-none-eabi/lib/thumb/v6-m/nofp\libg.a(lib_a-reent.o)
